(dp0
S'ZFTAMZYQEVPD'
p1
S'Snapchat  libsnedxInstagram  libsnedTwitter  libsned'
p2
sS'EIURRCCAIFZX'
p3
S'Fully qualified Advanced Beauty Therapist Dunfermline Fife Scotland Snapchat  lovelydawnxoxo Insta  missdawnlx'
p4
sS'TDTJPSPJFJPS'
p5
S"Im ft  Sadly I am on tinder to actually find someone since its no happening when I'm out Im not looking for someone till after christmas just so i dont have to buy you a present Want to know more then you know what to do "
p6
sS'FEFDQBDBCLBO'
p7
S"I'm a fucking punmeister Looking for a drinking partner  someone to take me to Rotato for a jacket potato "
p8
sS'MPEOTOXPBEEV'
p9
S"All you fellas listing your height tattoo status and beard status so I thought I'd do the same to ensure we're on the same page Yah I have tattoos No I can't grow a beard Brewdog anyone"
p10
sS'LFCCNMYQNRNQ'
p11
S'Books   films  Netflix  walks  museums  galleries  teacake  baking'
p12
sS'OMTWSISMFSRM'
p13
S'Civil Engineering student'
p14
sS'FBVOCLDWKZUV'
p15
S''
p16
sS'QOZVLRWVOBQO'
p17
S"if you have a sense of humour tattoos love coffee and music you're already halfway there  singerproducer  From Hong Kong "
p18
sS'VQEQAFXCCAVT'
p19
S''
p20
sS'RYTGIVWYDGVI'
p21
S' Business Management Student Countryside lover from EdinburghEast Lothian'
p22
sS'DTOUAWFKTSNK'
p23
S'Spanish but in love with the rest of the world'
p24
sS'IPWIHVFNZKME'
p25
S'Am kidding '
p26
sS'SDNKVFTKYXAC'
p27
g16
sS'HHJDDIUONKCK'
p28
S'Leeds  EdinburghBiological sciences studentMeat free I like travelling n being in the sea '
p29
sS'IMFGCTRUEZLR'
p30
S'here to laugh at peanut headsI uninstall this often so soz'
p31
sS'XNWOZUSLABFV'
p32
S'Snapchat xAshleySmithx                               Excitement  adventure '
p33
sS'JSCRHIWFRTSV'
p34
g16
sS'UPAIVROLQELA'
p35
g16
sS'HWPEURTXSXII'
p36
g16
sS'OTUNEPZCLIVJ'
p37
S'ECA'
p38
sS'ICFBEFLOGQMM'
p39
S"I'm nice apparently "
p40
sS'MGNYAYRZEWJQ'
p41
S"Don't really know what to say but I like going out and having a few drinks at the weekend but also happy to stay in and watch movies I also like to try and have fun and have a laugh whenever I can I probably spoil buster my staffie far to much but who wouldn't when he's trying to act all cute "
p42
sS'HUYUCJZLYXLN'
p43
S"Single because I didn't forward that chain email in Musician '"
p44
sS'SHNSFKCQVHTN'
p45
S'Philosophy and Theology  University of Edinburgh '
p46
sS'QXUSGSXDBHMH'
p47
S''
p48
sS'RCANKKPQOFCH'
p49
S'University of Edinburgh Primary EdIgabbieduncan'
p50
sS'GYSOWIWTOGAR'
p51
S'Heriot Watt uni'
p52
sS'MYVGVLMWQJBN'
p53
S' runner '
p54
sS'PTBZTNBHJCZG'
p55
g16
sS'NVRKLDKBXCBK'
p56
S'Music books traveling shitty s films '
p57
sS'BSNJQVDSOAVZ'
p58
S"Single because I didn't forward that chain email in Musician '"
p59
sS'HGMGLEHTGSSE'
p60
S'From Falkirk and currently at Cumbernauld college studying Radio Broadcasting'
p61
sS'WLDDUTRNZZLP'
p62
S'Very sporty play badminton mostly but also do tennis football and golfEnjoy the gym and general keeping fit stuff like walking my  dogsWork at the coopStart uni in September for to study sports science '
p63
sS'JLTZZHFFJAHF'
p64
S"I am DTF  Darn Tootin' Fun"
p65
sS'RTYCYCYKYOWX'
p66
g16
sS'OUCYSZKDBALF'
p67
S'If ye dinny laugh ye greetEdinburgh ScotlandLa gente esta muy loca'
p68
sS'AVTQSUILCETN'
p69
S''
p70
sS'NHHYQUVHIVUH'
p71
g16
sS'CYHYKMSSHZKD'
p72
S"Student vet nurse and work on the farm when I'm not at uni"
p73
sS'RQFNXGBBMQAT'
p74
S'German studying in the Netherlands on exchange in the UK'
p75
sS'UKFZSXJTMZZC'
p76
S'Edinburgh physio student Instagram laurarobertsonx Snapchat laurarobertsonx '
p77
sS'GECARUUSDZEM'
p78
S"I'm no  ha  play football Edinburgh X "
p79
sS'ZMDVSRBDALTU'
p80
S'DrawingEdinburghAspiring Tattoo ArtistTwitter FamousLAInstagram lynseyallan'
p81
sS'TPCLEJRZCFKV'
p82
S"I'm from fife In Love with family guy love playing piano  but it says  ft curvy pop up"
p83
sS'GELTEPWPLIBH'
p84
S''
p85
sS'FEAPZLKGNIWH'
p86
S'Instagram  maddiealiceRGU'
p87
sS'XJAPQULHFIOX'
p88
S' Scottish Snapchat AmandaGrayx'
p89
sS'JOPSGYQSMLJQ'
p90
S'Edinburgh  Psychology StudentBartender Travelling '
p91
sS'NRVUSAIEKCTE'
p92
S"Je m'appelle Gayle I have cracked my head open a few times and I broke my collar bone the first day snowboarding on real snow I'm slightly clumsyI love dogs and stags but I don't think that it would practical to have a pet deerI love stationery not to be confused with stationary However I also quite like being stationary but not too much I like changing car wheels I don't like potholes "
p93
sS'AUOTXPUWPPAB'
p94
S"I'm a fucking punmeister Looking for a drinking partner  someone to take me to Rotato for a jacket potato "
p95
sS'XDRGVUEUTIHX'
p96
S'tattoos  piercingscatsTaylor Swift is God'
p97
sS'GIZUNZOHBFSH'
p98
g16
sS'UDNDBVDDNVAB'
p99
S''
p100
sS'DIEWIEALAXTV'
p101
S'Love Toy Story and a good pair of socks '
p102
sS'PJGUWZFJUPZV'
p103
g16
sS'MHJSEXAOPVVF'
p104
g16
sS'ESCSTQQXDAJG'
p105
S"Don't really know how this works "
p106
sS'CTOFXILXLFKY'
p107
S"I'm counting on your standards being lower than mineStudying Marketing at uni in Edinburgh but still no idea what I want to do in life Instagram  caitlinmjordanTwitter  muppetkay "
p108
sS'XYRLUEFYTPGU'
p109
S''
p110
sS'NYELCPSARNPI'
p111
S''
p112
sS'JCVAGLWSMXGX'
p113
S"I'm a newly qualified nurse living in Edinburgh Here's the gist folks I don't take life too seriously I require a nice spoonful of Nutella pretty much on a daily basis you will always catch me with a gt on a night out I eat my vegetables and I squat"
p114
sS'ROUORHOEHWMW'
p115
S"My busyness is to create Doesn't even matter what  "
p116
sS'HZFNAAFFAHOQ'
p117
S''
p118
sS'NBPWQRBORMEN'
p119
S'jo perrin X'
p120
sS'SGBKQKPGXCRF'
p121
S'Australian travelling in Europe and the UK  Current location Edinburgh '
p122
sS'ZRFGIOMWZXWF'
p123
S'Instagram  maddiealiceRGU'
p124
sS'GBYAKHRDVEIT'
p125
S"My mum thinks I'm cool"
p126
sS'BPIIKNEEPUPL'
p127
S'Hayley Marie Campbell Snapchathayleymarie '
p128
sS'ZLTQZEAGZSJF'
p129
S'Hit me up for fun and games xx'
p130
sS'IEWMLTIZRXBI'
p131
S" years through the best adventure anyone could ever haveGot a map on my arm so I don't get lostAlso got my dog tattood on meMy car is just one big stickerSemi famous snowboarder with a famous dogProfessional adventure to mountains skateparks lakes bars quirky shops and anywhere with dogsAustralian taking shelter in ScotlandWhen I was younger I looked like Tina from Bobs Burgers"
p132
sS'FEDLINHSJVTP'
p133
S'Mind that time I got a tattoo on my ass True story '
p134
sS'ZKHFZNSYBIBT'
p135
S" year old student nurseLife ambitions are to cuddle a baby panda and visit the moonSleeping is my favourite hobbyA good cup of tea solves everything Just going to put it out there I'm not a movie geek too much sports scares me and I have no great desire to travel Men shouldn't wear bobbles in their hair I'm  addicted to tinder there ah said it "
p136
sS'RWRNWBLTBXNZ'
p137
S'American studying in Edinburgh '
p138
sS'HLEKVKOAUVZY'
p139
S"Edinburgh Can't ski Didn't go to uni Don't have snapchat  "
p140
sS'BYUWEBYBYZIC'
p141
g16
sS'TNEJEDSJPCWA'
p142
g16
sS'TZCYVGNDSUYX'
p143
S'Instagram  eloiseevans '
p144
sS'RBJOJZESRLZI'
p145
S'instagram amydunbar '
p146
sS'NETMAQOSUUWQ'
p147
g16
sS'MPXHTIMTUGMY'
p148
S'Snapchat  Instagram  lauraxxoxxBeauty Therapist Edinburgh'
p149
sS'EAOGFUYVGWGY'
p150
S'Snapchat aimeenisbetx FifeLive the life you love love the life you live'
p151
sS'VNTZSPJGJLXD'
p152
S"Don't really know how this works "
p153
sS'QXLZRNWFSXCW'
p154
S'Fine Art MA  ECA Brummie born and bred My neighbors think my accent is hilarious Instagram mollyhk'
p155
sS'KSJBEVIYRTDM'
p156
S'I love fiddle folk and French and alliteration '
p157
sS'RLYMVCEAXGTZ'
p158
g16
sS'QBNXPJTMPBNQ'
p159
S"I'm a fucking punmeister Looking for a drinking partner  someone to take me to Rotato for a jacket potato "
p160
sS'DFKYJAQZXPPN'
p161
S"I lift run horseback ride and play guitar amongst other talents I have  tattoos and am continuing to add to my collection Art is my passion music is my soul I'm a Yankee at heart born  raised in good ol' NY USA So one day I got bored with college quit and decided to hitchhike across America oh and then the world I'm a restless spirit Just got back from Japan and now here in Scotland for a while Add me on fb to live vicariously through me I go on a lot of adventures"
p162
sS'JSUCPIKJJKXA'
p163
S'From Edinburgh Dundee Uni'
p164
sS'OGPBIBSRURHB'
p165
g16
sS'ZNDMLHIYUCCP'
p166
g16
sS'PKBKFTPWGOQQ'
p167
S''
p168
sS'YDALKNDJLOEQ'
p169
S"I'm a fucking punmeister Looking for a drinking partner  someone to take me to Rotato for a jacket potato "
p170
sS'COREZWWRSANS'
p171
S''
p172
sS'HHVECSKATYQK'
p173
S'Edinburgh Rugby enthusiast with a serious case of wanderlust Gap year X   Insta elliedonaldson '
p174
sS'FJPXHQTGMOVR'
p175
S'Fully qualified Advanced Beauty Therapist Dunfermline Fife Scotland Snapchat  lovelydawnxoxo Insta  missdawnlx'
p176
sS'ZVJJTIOMRLJU'
p177
g16
sS'HQLUKNMLUOFT'
p178
S' and '
p179
sS'LJUECHWWEPYY'
p180
S"Netflix and chill is stupidly overrated  s'all about ghost hunting climbing trees and drinking excess amounts of gin and cocktailsAlso since height seems to be a compulsory factor   I am ' of sheer wonder"
p181
sS'HGWSEMCPKNRX'
p182
g16
sS'HDZMSRLPGIGW'
p183
S'I enjoy a nicely packed bowl placed on top of a bong Plainfield IL USA Let me be your American sweetheart Edinburgh for the next  weeks Lots to see drink smoke and explore here '
p184
sS'WPZZNDJXLQTD'
p185
g16
sS'TXOGZDABPFKA'
p186
g16
sS'AMHMXLKTOKJJ'
p187
g16
sS'RLFPLSZIMBSD'
p188
S"I'm a fucking punmeister Looking for a drinking partner  someone to take me to Rotato for a jacket potato "
p189
sS'DAPAMBDBMFWH'
p190
S'Heriot Watt uni'
p191
sS'BLUGXVXEFDSA'
p192
S'EdinburghStudying Nutrition and Food Science at QMUPlay rugby for Lismore WRFC '
p193
sS'FXXOJXYMGQEF'
p194
S"I'm a fucking punmeister Looking for a drinking partner  someone to take me to Rotato for a jacket potato "
p195
sS'VLIPCGZAPKNV'
p196
S"Buy me cheesecake and I'll love you foreverCats are easily better than most people"
p197
sS'YWIOOCQBNCIM'
p198
S''
p199
sS'NXBPDGIUDTPW'
p200
g16
sS'TKCNKGVVFUAI'
p201
g16
sS'VMPRJHGJCUUG'
p202
g16
sS'IDQQXSPNLCXK'
p203
S'Names Emily year abroad in Scotland from straight out of America  drink and smoke too much but still functional  hit me up if you are chill and like to have a good time   '
p204
sS'RYVVNIYAHOIG'
p205
S'Starwars xbox my puppyyup'
p206
sS'TKSAJKIWOBQW'
p207
S"Doing a Masters degree at St Andrews but if I had my way I'd probably still be chasing cows round the Australian outback From Devon a country girl at heart  "
p208
sS'SAEMPPSPCAOP'
p209
S'Forever wanting to be back in Bali '
p210
sS'SAZJTUKXEDIA'
p211
S''
p212
sS'XWEGOXYQKOTL'
p213
g16
sS'NCFNOXZYNLSI'
p214
S'In my th year  uws trying to get my honours in social science Hoping to go into teaching modern studies My pups are my world  '
p215
sS'CNNPLIZMNENJ'
p216
S"I'm  and from Scotland Snapchat JemmaaBrodiee "
p217
sS'OYGXWMIVCYZK'
p218
S'Studying in Edinburgh from Mallorca'
p219
sS'SMILEWDIPYVO'
p220
S'Scottish nd year at EHU  Instagram abitait'
p221
sS'NYBKAFEIZUEC'
p222
S' '
p223
sS'LGGITNAOZYTY'
p224
S'From Edinburgh Instagram megaandrydenn '
p225
sS'SGBJLXIFFYJF'
p226
S'Instagram olivia '
p227
sS'TIUVNLFPBXTQ'
p228
S'          s     Just moved to Newcastle to start my internship  Love skiing filmsbeing outdoors and I never say noto a party x'
p229
sS'XJRMHRNOYSKE'
p230
S"Im ft  Sadly I am on tinder to actually find someone since its no happening when I'm out Im not looking for someone till after christmas just so i dont have to buy you a present Want to know more then you know what to do "
p231
sS'NNAXAOUYDBPM'
p232
g16
sS'SJJQCDFQNNZC'
p233
S' Studying Health and Social Nursing in Edinburgh  Also serious music addict and guitar playerI have a tattoo and I am ftyeah maybe consider those INSTAGRAM  fionacampbellGood banter or Good bye'
p234
sS'OBODTZPDVOKR'
p235
S'DrawingEdinburghAspiring Tattoo ArtistTwitter FamousLAInstagram lynseyallan'
p236
sS'DIYYSDNZHCLO'
p237
g16
sS'IRCGPZTLITOL'
p238
S'Studying law and French at the University of Edinburgh'
p239
sS'KUVIMEZLKKBS'
p240
S'Work at Edinburgh airport as a CSASnapchat  Kaylamouns'
p241
sS'HOFAASVXVFER'
p242
g16
sS'PWOBXUWPUFKM'
p243
S"I don't know why the photos are up more than once Instagram amberpNewly blondeIf you like girls with tattoos and a dirty sense of humour I'm your girlI'm also a mum he's  just in case you hate children he's my best friend and I love him even more than bacon Happy Swiping "
p244
sS'OQUMWJAHCFVP'
p245
S"I'm a fucking punmeister Looking for a drinking partner  someone to take me to Rotato for a jacket potato "
p246
sS'PTQTIXFIZBJI'
p247
S'I go to uni for the SnowsportsI bake a lot too '
p248
sS'MYAKTCTQMWMD'
p249
S"I'm a fucking punmeister Looking for a drinking partner  someone to take me to Rotato for a jacket potato "
p250
sS'WZQTOYKVNURC'
p251
S'Instagram chelseakildayxSnapchat chelseakilday '
p252
sS'HUMAWWQVQXKP'
p253
S"Weybridge  SurreyPortsmouth UniElegant trippy chaotic flavourAbout meExtremely fond of facials and hair and facial hair Great at giving head Massages I love gin Apologies my Instagram doesn't have endless amount of selfies but there is the odd one in there to prove I'm a solid "
p254
sS'IRWJNJVYTJBY'
p255
S'Philosophy and Theology  University of Edinburgh '
p256
sS'PZCMEMTLCVJW'
p257
g16
sS'BBHZJVIMCTQF'
p258
g16
sS'LERXZFCAPAQY'
p259
S'Irish living in Edinburgh '
p260
sS'YGBWVUHGEBNL'
p261
S'nd year forensic student at GCU  FifeGlasgow Work at Knockhill racing circuit snapchatInstagram karapirie'
p262
sS'YANWNYHFTXPE'
p263
g16
sS'FXTIIWNCPBKL'
p264
S'Instagram  chloejessicaxoSnapchat  chloejessicaxx'
p265
sS'LLLOSLWZAFRU'
p266
g16
sS'QBFKQYIVFERN'
p267
S'Studying in Edinburgh from Mallorca'
p268
sS'XNWVASBTEPRB'
p269
S" polyamorous anarcho queer feminist I'm in a serious relationship but we see other people outside it I'm currently looking for casual fun and to meet new people and make friends No jembles please          "
p270
sS'UMASMXJFORMG'
p271
S'Forever wanting to be back in Bali '
p272
sS'WMRRCJUVXCTB'
p273
S''
p274
sS'IGYOFFKQONTO'
p275
g16
sS'FJYYXOHQFSYL'
p276
S'Canadian  just moved to EdinburghI just want someone who makes me laugh I make art snowboard and can do circus tricks'
p277
sS'YXFEOEZAEOEI'
p278
S''
p279
sS'NIVFYRTVAYYZ'
p280
S'Undefeated Lord of the Rings trivia championActresswhisky enthusiast'
p281
sS'HWIXGZWUUSTY'
p282
S''
p283
sS'GGRAKOUKDQTR'
p284
S"I'm a fucking punmeister Looking for a drinking partner  someone to take me to Rotato for a jacket potato "
p285
sS'MNKAFXJWWMKH'
p286
g16
sS'WUFNNVDUYEKP'
p287
S"Shona I run my own business and I work part time I love both my jobsDunipace FalkirkDrive a black ixMy black labrador he's called Jger and he is cooler than you Pin Up Girl Tattoo on me thigh pinupdaftLooking for old fashioned dating then hopefully a relationship with the right personDon't message me if you're looking for help with a wank  Thanks "
p288
sS'OHKRMCAXJGQQ'
p289
S'Snapchattaelorsmith  '
p290
sS'VXWWPWXIMABT'
p291
S''
p292
sS'DUNQMLSITAOE'
p293
S'If your looking for a fuck about then just swipe left  '
p294
sS'ZDYJYTXITSFZ'
p295
S'Eve  from falkirk I have two tattoos and a passion for music as an amateur drummer  Love a fun night out with my friends or a chilled night in '
p296
sS'LLHOEFPHFLLK'
p297
S''
p298
sS'BRTUEZHAHDZS'
p299
g16
sS'ITEEOWDPPBYT'
p300
S' Edinburgh'
p301
sS'AKRMAXSUNZDS'
p302
g16
sS'NZPZGFKARVWZ'
p303
S'psychology student at edinburgh uni bios are shit so just come chat to me ae '
p304
sS'WUNIBCLQMBPB'
p305
S"I'm a fucking punmeister Looking for a drinking partner  someone to take me to Rotato for a jacket potato "
p306
sS'EWLUGCXNKTPF'
p307
S'From northern England Sunderland Student in Edinburgh'
p308
sS'OCGLQHUCJQQK'
p309
S''
p310
sS'GDNNFBUGOXAO'
p311
S'nd year Accounting student at Edinburgh UniFrom Fife'
p312
sS'PDNVWIIZPKTA'
p313
g16
sS'ZYPFUGTNVTJW'
p314
S"I like ambition it's attractive "
p315
sS'WFFVVKWQPYPQ'
p316
g16
sS'JGYEDUSLJAXR'
p317
S'Instagram kymallan '
p318
sS'KXLWUGCDBRKX'
p319
g16
sS'NFXTOIRKCCGK'
p320
S"Bulgarian working in Manchester  'Life isn't about waiting for the storm to pass it is about learning how to dance in the rain'"
p321
sS'PNTLHGCPGHMJ'
p322
S'Never done anything like this before Friend has been raving about it Please be gentle with me '
p323
sS'OIMYTSHNTDSP'
p324
g16
sS'VKEHYIFKFWLN'
p325
S'Farmer and scientist Love all animals but sheep are my life '
p326
sS'GVMQZUCRTJTG'
p327
g16
sS'DJEVEQKJBXIO'
p328
S' nd y UoE Will go on a date with a guy who knows how to work in CAD'
p329
sS'FMFFVWEPAGIL'
p330
S"I'm a fucking punmeister Looking for a drinking partner  someone to take me to Rotato for a jacket potato "
p331
sS'ZUTGRZWCKKIH'
p332
S'Edinburgh Allergic to cats and bullshit Please give me none '
p333
sS'DGKOPDYCLLKX'
p334
S"I'm a fucking punmeister Looking for a drinking partner  someone to take me to Rotato for a jacket potato "
p335
sS'QAIXMFWWIZSD'
p336
S''
p337
sS'OEXNYVUQJJAF'
p338
g16
sS'UYHLNFJKARHA'
p339
S'McGill Faculty of Law Living in Edinburgh Scotland until June I live to travel'
p340
sS'WWLXNZOTOFSD'
p341
S'what is haaaappeninFrom Northern Ireland  living in Edinburgh'
p342
sS'OPBRQIZEGUBU'
p343
S"I'm a fucking punmeister Looking for a drinking partner  someone to take me to Rotato for a jacket potato "
p344
sS'PGRSWEHCGYSM'
p345
S'Edinburgh Uni Medic Occasional blonde moments '
p346
sS'GRIUTBMXBJOJ'
p347
g16
sS'PDTJFUSUVIIP'
p348
S"Traveling Europe until the th Let's get a drink and see how awkward a date could be"
p349
sS'GXAYWNKEWFYZ'
p350
S'Work in an officeSnapchat  allannahh'
p351
sS'NGPFSQYWISSZ'
p352
S' dental nurse fife'
p353
sS'KIXAIPKJAATD'
p354
S''
p355
sS'VTFCXRKDVWIJ'
p356
S'Instagram lucygrace'
p357
sS'SFWZPVMBQUFO'
p358
S'ChesterEdinburghnd year vet medGenuinely want to meet my husband on here'
p359
sS'EQJRDPCZTGFC'
p360
S'Probably somewhere between ECA and my hometown of Oxford'
p361
sS'AWMHTYRBWIWC'
p362
S'Ambitious and outgoing law student from Denmark studying at the University of Edinburgh for one semester Love singing dancing movies food and tea'
p363
sS'WGQTPTHJLHKD'
p364
g16
sS'EKKDGKTTEZZE'
p365
S"I'm a fucking punmeister Looking for a drinking partner  someone to take me to Rotato for a jacket potato "
p366
sS'FYBWGWSCDBIW'
p367
g16
sS'ADKSNNMUVPNF'
p368
S'Edinburgh Insta JACQX'
p369
sS'NPLDHSCMDWCO'
p370
S"EdinburghLondon Let's play carpenters first we get hammered then I nail you"
p371
sS'SYXLCGDUHKAZ'
p372
g16
sS'DOZWBYMZFEIB'
p373
g16
sS'DEMTMYXVROSW'
p374
S'st year University of Edinburgh  London gal'
p375
sS'KLFDFMJDVRWK'
p376
S"I am awful with this about me stuff so i am going to keep it short and sweet I'm an Edinburgh girl Work in retail Adore meeting new people Have the bestest group of girlys Have a couple of tattoo's Enjoy trying new things Will pretty much chat to anyone and everyone that will listen Snapchat sammywatsonxox Anything else you want to know send me a message                             "
p377
sS'XKIJVHLPYJHL'
p378
S'Snapchat  Instagram  lauraxxoxxBeauty Therapist Edinburgh'
p379
sS'XZYJBEPMOMYD'
p380
S''
p381
sS'ZZILULPKBMKE'
p382
g16
sS'TDNNLCKXYBVF'
p383
S'Kirsty Gold                                                           Scottish                                                                                                           snapchat  kirstypamela                                                                                                            My car is my baby                                              Tattooed   At college studying Professional Cookery                             '
p384
sS'ZIWDRAEDMXMR'
p385
S'born in germany with polish parents on an exchange year in edinburgh studying maths playing the violin enyoing arts jazz painting'
p386
sS'NPIXCDBSIGUK'
p387
S"I'm a fucking punmeister Looking for a drinking partner  someone to take me to Rotato for a jacket potato "
p388
sS'QQYCGVVFZBWG'
p389
S"I'm a fucking punmeister Looking for a drinking partner  someone to take me to Rotato for a jacket potato "
p390
sS'EOGBKKODCPTY'
p391
S'First year maths student Idk how to write an appealing bio so I guess u just gotta judge me by my face'
p392
sS'MWWFVBPREUHX'
p393
S''
p394
sS'VDKIFBWPKSEQ'
p395
S'French Just looking for a funny or interesting chat Maybe more according to the chat'
p396
sS'HGTJAXFPNVPN'
p397
g16
sS'IMQAEMBSZNHN'
p398
S'Art and fashion student'
p399
sS'BUNOFZSERFXR'
p400
S'nd year law student at the university of edinburghvegetarianwine and gigs are my favouritei play guitarIG  tanyawalterss'
p401
sS'VFXMCAPXCSFF'
p402
S''
p403
sS'CGXVJACVOUFN'
p404
S'Snapchat  siobahn'
p405
sS'XESHSGPWUBSC'
p406
S"I'm a fucking punmeister Looking for a drinking partner  someone to take me to Rotato for a jacket potato "
p407
sS'WCQRMPFJUYHU'
p408
S'East SussexEdinburghMaths student'
p409
sS'ZSBPWHPFOKII'
p410
S''
p411
sS'PXLXQAQVEJBP'
p412
S'Belfast  Edinburgh'
p413
sS'CLVKAPZUGHBU'
p414
g16
sS'TYPFLTJICMYZ'
p415
S'Live in Edinburgh work in London '
p416
sS'NJJSEZXYYICX'
p417
S''
p418
sS'ROBXGBQXIHDU'
p419
S'Mech Eng student at Edinburgh'
p420
sS'ASYYXPPWHAIO'
p421
g16
sS'FCKPHWJTCGYZ'
p422
S'LondonEdinburgh Studying Arabic and Persian '
p423
sS'SITRWVGUGZLE'
p424
S' Business Management Student Countryside lover from EdinburghEast Lothian'
p425
sS'IMTKHRSXEHVM'
p426
g16
sS'LWDXPNOTEFVA'
p427
S"Love the life you live  from Edinburgh Love tattoos and piercings Anything you want to know just ask Snapchat meganmclayDon't be afraid to message me first "
p428
sS'WKDBATTLHCSB'
p429
S'nd year forensic student at GCU  FifeGlasgow Work at Knockhill racing circuit snapchatInstagram karapirie'
p430
sS'OCEIYSDULFZN'
p431
g16
sS'MQIUUZJENLWF'
p432
S"Bo'ness girl I'm not fit or thin I'm on the chubby side but who cares really Love tattoos only have one but saving for another Love to laugh and smile I try to cheer everybody up when needed Hope to make new friend and who knows what else Snapchat meggylouhammy "
p433
sS'RNRWYAYSCAKH'
p434
S' Lifeguard'
p435
sS'CGFKUTYTNWAM'
p436
S"embarrassingly stereotypical art student unless you're a pisces theres not much point in trying tbh  "
p437
sS'XFBXJENXCOMN'
p438
S''
p439
sS'GVOKNSKEOTTE'
p440
S"I'm a fucking punmeister Looking for a drinking partner  someone to take me to Rotato for a jacket potato "
p441
sS'ZGBCZVZPGXMI'
p442
S''
p443
sS'JFKUJDPXSXIS'
p444
S"Love sarcasmPeoples facial expressions Edinburgh  ft There's a huge crack in my screen So playing tinder is a bit of Russian roulette atm "
p445
sS'TQQGTWKMMTBH'
p446
S'Love sports love travels'
p447
sS'JVZXCKUCLCZA'
p448
S''
p449
sS'TLBSXVJOIQVW'
p450
g16
sS'PNGDGHRZSLSV'
p451
S"I'm a fucking punmeister Looking for a drinking partner  someone to take me to Rotato for a jacket potato "
p452
sS'IXRSVSHBVRZJ'
p453
S' snapchat emmajulie  Mum of  from Musselburgh '
p454
sS'XGXLONTEDLYQ'
p455
g16
sS'MHXTNAAGHQTP'
p456
S''
p457
sS'GIBIEKNTPFQS'
p458
S"EdinburghStudying maths at Heriot WattKeeping up training for tough mudder next year although looking at me you'd never think it ft  tiny don't laugh "
p459
sS'OOENSTPBGOYU'
p460
S"part time gig photographer full time bar wench i've embarrassed myself in front of sir ian mckellan in tesco so there's that "
p461
sS'PNOVBBXJDWHD'
p462
S'Hi  ArchitectLove sports'
p463
sS'CAHIAAXDKKMJ'
p464
S'Borders girl currently in Edinburgh studying Health  Fitness Hoping to travel within the next year '
p465
sS'KNKMQNTCJEPL'
p466
S'Snapchat aimeenisbetx FifeLive the life you love love the life you live'
p467
sS'KKHYHJAIOTXR'
p468
S''
p469
sS'YHURCHAMTHAR'
p470
S'Book nerd and coffee snob  Fun friendly and full figuredor fat depends if you want to sugar coat it or not either way I am who I am Positively Honest'
p471
sS'SFKXAAONJBLW'
p472
g16
sS'FANDODTUOJWZ'
p473
S'Gym  Dance  Cook  Bake  Love  Travel  Be crazy  Be happyPeople should smile more Personal Trainer Student'
p474
sS'YGCCWMOIECYU'
p475
S"Just seeing what happens Straight forward girl to get along with Trying to find the balance between talking first and the guy thinking nice the girl chats first or a guy that thinks oh she's too eager "
p476
sS'SMNBHJGHEIZQ'
p477
g16
sS'AWENCRBOMYWL'
p478
S"I'm a fucking punmeister Looking for a drinking partner  someone to take me to Rotato for a jacket potato "
p479
sS'SLLSBXXIIANO'
p480
S'ChesterEdinburghnd year vet medGenuinely want to meet my husband on here'
p481
sS'JHOXCXQABMFN'
p482
S'Snapchat  jimmyjamjew '
p483
sS'VKNZMHQMYOPH'
p484
S'Just meeting new people Nothing more nothing less '
p485
sS'ZUWGOKJQJGEY'
p486
S'Gettysburg College Basketball and track'
p487
sS'ZZGHXLYNUQND'
p488
S"I'm like a lightbulb I light up the room when you turn me on and if you stand on me you'll end up in hospital"
p489
sS'VUMXCTDGZOZM'
p490
g16
sS'RNVZOUQBIJEW'
p491
S''
p492
sS'FIFJSXXQSVSD'
p493
S''
p494
sS'JNDWOCQDUPGJ'
p495
S''
p496
sS'LJZKMWHVVMKL'
p497
S'Irish living in Edinburgh '
p498
sS'RSIEVFARIPCQ'
p499
S' snapchat emmajulie  Mum of  from Musselburgh '
p500
sS'CYOJOMECWLDR'
p501
S'Staff nurse Voice of the Corran FerryI like caramel lattes and Paolo Nutini '
p502
sS'UGAVVYDZCADW'
p503
S"I'm a fucking punmeister Looking for a drinking partner  someone to take me to Rotato for a jacket potato "
p504
sS'YVYFPMUQNYCU'
p505
S'Journalism student Edinburgh'
p506
sS'JQDWXRHKEINB'
p507
g16
sS'YVMNISYVKNAX'
p508
S''
p509
sS'XMCRBCHWVUAX'
p510
S'If ye dinny laugh ye greetEdinburgh ScotlandLa gente esta muy loca'
p511
sS'NBKIVXFGBAKV'
p512
S"I'm a fucking punmeister Looking for a drinking partner  someone to take me to Rotato for a jacket potato "
p513
sS'QSPYUIOSYMPY'
p514
S' Medical sciences studentEdinbrah Looking for a soulmate obvz'
p515
sS'VVHSZPCWTUBA'
p516
S'Edinburgh and AberdeenStudying a useless degree and I love it Apparently I look like the crescent moon emojiWe should hang out '
p517
sS'RSHPFYPNCHND'
p518
S"EdinburghScottish ' redhead Not looking for a serious relationship Likes tall men uniforms beautiful women music dancing outdoors going out staying in watching Netflix being comfy getting dressed up laughing being spontaneous playing practical jokes tattoos  more I also have a very high sex drive bit of a wild child love house parties You only live once and I going to live it to the full so I'd love to find a few sexy people to join me and be my partners in crime "
p519
sS'QOTLKJLKNMWM'
p520
S"Don't take yourself too seriously "
p521
sS'DLKIKKRPUCMB'
p522
S'My name is Lindsay im  from Stirling have two wonderful nephews Iain  and Thomas love them to bits Want to know more just ask D life goes on always look forward never look back'
p523
sS'JSPNULPIGRJO'
p524
S'Give me bestworst your chat up line '
p525
sS'SGMDKRDTEZRJ'
p526
S"I'm a fucking punmeister Looking for a drinking partner  someone to take me to Rotato for a jacket potato "
p527
sS'RCSCMMWFXSZP'
p528
g16
sS'XKHUDQLLEHEY'
p529
S''
p530
sS'LGAHUQXGWMDP'
p531
g16
sS'YEARRGYGFRUS'
p532
g16
sS'XYRIBSRTWSWA'
p533
g16
sS'KMBBNOYRTWTU'
p534
S'Edinburgh girl '
p535
sS'QXUCXVOTNKCX'
p536
S'Copywriter for a digital marketing agencyLove games photography and reading in a twist that no one saw coming'
p537
sS'KVDAHELYUMOE'
p538
S"Easy goingI'm chubby love me or hate meNot here just for funBe honestDon't fuck me about"
p539
sS'EXHKHXQZWTFP'
p540
S'Live in Edinburgh and work for the farm assurance office Go to young farmers and have had ponies since I was a toddler'
p541
sS'TZXGKPGQNGQQ'
p542
S"Netflix and chill is stupidly overrated  s'all about ghost hunting climbing trees and drinking excess amounts of gin and cocktailsAlso since height seems to be a compulsory factor   I am ' of sheer wonder"
p543
sS'QYRDAZUPWUQC'
p544
g16
sS'OEMHPUXCLGKC'
p545
g16
sS'BPEYJSSEFXCV'
p546
S" polyamorous anarcho queer feminist I'm in a serious relationship but we see other people outside it I'm currently looking for casual fun and to meet new people and make friends No jembles please          "
p547
sS'AXILXAFCCDQM'
p548
S'Snapchat  siobahn'
p549
sS'YCTWPFKMXWKZ'
p550
S'Gettysburg College Basketball and track'
p551
sS'QAFVXMPYZGUR'
p552
S'Edinburgh Midwifery student '
p553
sS'UTUXINXOFDYI'
p554
S" Claire  Don't Be Shy  "
p555
sS'EIOFKSFJWBBZ'
p556
S''
p557
sS'EHJCASEBPOFQ'
p558
S' Edinburgh uni psychology student '
p559
sS'ITPDQUEBIADJ'
p560
g16
sS'PNZKMZKIYQIS'
p561
S'Caitlyn Strathclyde university childhood practiceManager of an out of school care setting Anything else just ask '
p562
sS'FRPYMCFJNXTV'
p563
S"EdinburghNursery Practitioner I'm an easy going girl who enjoys meeting new people I enjoying spending time with friends and prefer to be busy when I'm not busy at work I'm either at the gym with mates or enjoying a good movie Looking for a date "
p564
sS'HLOFKCMWKASU'
p565
S''
p566
sS'WMBKRVRMWCIA'
p567
S'Charlotteee  snapchat Fife '
p568
sS'ZTJUURMWBEED'
p569
S'Probably somewhere between ECA and my hometown of Oxford'
p570
sS'TUPTMDFOEUPP'
p571
S''
p572
sS'ZHEBKJDSFBOU'
p573
S'Beauty therapist Snapchat  joannapullar Instagram  joannajoyy'
p574
sS'DNZLFEMANUWT'
p575
S'Social work student at Glasgow Caledonian uni '
p576
sS'IJXWRLSYSTXP'
p577
S' University of Edinburgh for the year getting my MSc '
p578
sS'LCYAGMAZILLV'
p579
S'English language student at Edinburgh Uni Like music and books and cooking and getting drunk'
p580
sS'FNTDTATWIHQY'
p581
S'Edinburgh uni '
p582
sS'HWEDHGPSNWXU'
p583
S'Snapchat robocxo '
p584
sS'MUAWONUUPCNX'
p585
S'EdinburghMy hobbies include Netflix  Chill minesweeping drinks in George Street nightclubs and taking romantic walks with you to the cash machine'
p586
sS'PBIMEDLJCDLV'
p587
g16
sS'QBFHSHSTTAHJ'
p588
S'Edin Uni rd Year'
p589
sS'OEWXOMWCTOKT'
p590
S'A wee X file I like cartoons and science fiction '
p591
sS'YQHMYKJOTDIR'
p592
S'I like dogs more than people'
p593
sS'KHUTDFJLHAZL'
p594
S''
p595
sS'PXFLARPDAKNN'
p596
S"Weybridge  SurreyPortsmouth UniElegant trippy chaotic flavourAbout meExtremely fond of facials and hair and facial hair Great at giving head Massages I love gin Apologies my Instagram doesn't have endless amount of selfies but there is the odd one in there to prove I'm a solid "
p597
sS'UKBEOKFATBQU'
p598
S"I'm a fucking punmeister Looking for a drinking partner  someone to take me to Rotato for a jacket potato "
p599
sS'RXVXBFXDUDJU'
p600
g16
sS'TFSJSKZHOHLC'
p601
S"There are four important things that you need to know about me I enjoy binge watching series or ridiculous documentaries until I bleed from the eyes and ruining my life in general I regularly wash my hair with shower gel by accident and lastly I could probably fire through a pizza or majority of food items for that matter in  seconds flat Hope you're impressedGrandSnapchat leonnabrownGo on brighten my life up a bit "
p602
sS'UFTIRWKUTMXY'
p603
S'Studying Business '
p604
sS'CYZUXZSPJDSS'
p605
S'Studying Business '
p606
sS'UVACWEXPBYZW'
p607
S"Just moved back to Edinburgh after being in Florida for  years Please don't swipe right unless you actually want a conversation I like honest dominant men who are protective Nice feet and hairy chests too "
p608
sS'ALMLFBETEHRI'
p609
S"I'm nice apparently "
p610
sS'ZWLPDXBRSSFU'
p611
S"Hi Norwegian studying physiotherapy in EdinburghMusic  footballI'm looking for someone with a PS or Xbox with COD so I can come over and shoot something "
p612
sS'NBMTSGVNJPBJ'
p613
g16
sS'HXADZCZAWBDW'
p614
g16
sS'QOBLBGLKSEUM'
p615
S''
p616
sS'RJNHTKHOTTFK'
p617
S"I'm no  ha  play football Edinburgh X "
p618
sS'XBOFVFYKAOPS'
p619
S''
p620
sS'LDDIJTKALVGF'
p621
g16
sS'PADTRYCMBBSV'
p622
S'USA University of Edinburgh Postgrad I like a side of vodka with my orange juice at breakfast Netflix connoisseur Talk nerdy to me   '
p623
sS'FDNLMOKDKDLJ'
p624
g16
sS'GITFYKMGPRGN'
p625
S'Studying business in edinburgh'
p626
sS'EHWOLFTOOEHV'
p627
S"From LanarkI'm a carerTaken Snapchat  ashleyelder "
p628
sS'ZHSWWKXUKUSA'
p629
S'McGill Faculty of Law Living in Edinburgh Scotland until June I live to travel'
p630
sS'IXFWHAPGLHLW'
p631
S''
p632
sS'OWUHLTWZWTVX'
p633
S' not Snapchatt amylownieee '
p634
sS'HLSNOCWKYETA'
p635
g16
sS'TWDSKQURZVWF'
p636
S''
p637
sS'MGZJPIAUJNMT'
p638
g16
sS'CDUOXKKQDGGB'
p639
S''
p640
sS'AYLKQVYJNODL'
p641
S'Studying law and French at the University of Edinburgh'
p642
sS'MXIESSGHCTEJ'
p643
S'soft indie grunge'
p644
sS'FATHRLTFLANU'
p645
S'Last year of uni  Speak a few languages Love to dance Can salsa and bachataLove cookingWork in retail and training on the sideHoping to be an officer soon '
p646
sS'QBQNVVITQDHB'
p647
S''
p648
sS'DMISRKMLDKKC'
p649
g16
sS'TMMWBASEVPUH'
p650
S'Laughter is the best medicine Jayac is so amazingsexy D  I will not kill him if I find this'
p651
sS'VRHCRLUQLAND'
p652
S'Add my snapchat siobhanonlymatches add my instagram siobhan for most recent pictures '
p653
sS'CKBQWIJKQFKY'
p654
S"Acting student edinburgh if you don't like messy eaters then i'm not your gal "
p655
sS'VYBPHJZMJNKF'
p656
g16
sS'AYJYWMWDQZWI'
p657
S'Accounting student at Herriot Watt '
p658
sS'VBFQPOQLPNUZ'
p659
S'Studying chemical physics at Edinburgh uni Bilingual and love to travel for real though'
p660
sS'QKFSVNTBOVMK'
p661
S''
p662
sS'HUCTAHAHAOWX'
p663
S"I'm a fucking punmeister Looking for a drinking partner  someone to take me to Rotato for a jacket potato "
p664
sS'JFXOKAEVTDHW'
p665
S''
p666
sS'KBGLLUFNADPR'
p667
S'Chemistry student at University of EdinburghLove my dug more than anyone else '
p668
sS'MTGXVMENDZIC'
p669
S'I hate snailsSC  rebeccapolsonx'
p670
sS'TLSLUDDUWVWD'
p671
S"I'm a fucking punmeister Looking for a drinking partner  someone to take me to Rotato for a jacket potato "
p672
sS'TIVAJFCUNMAV'
p673
g16
sS'IHUCNCYMVROS'
p674
g16
sS'OOMJDSKGNUJU'
p675
S"Half Turkish festival and events student  bartender in Edinburgh steak connoisseur and gaming addict  aim to organise E one day  Little lass in the pool is my cousin ain't she a sweetie  oh also guys that have 'netflix' in their bios can u not "
p676
sS'RJFRNZUKPXRH'
p677
g16
sS'HRYSSLNRXXWI'
p678
S''
p679
sS'KMFDSJYHVIUC'
p680
S'Snapchat  carriebainnn'
p681
sS'WCSEAFOCYNFI'
p682
S"Drummer English geek and the one on the left pulling the stupid face Decided Yorkshire wasn't quite cold enough so shall be heading up to Edinburgh Uni in September"
p683
sS'JXWCWUKVVHRW'
p684
S''
p685
sS'GAIAYDISGOWY'
p686
S'American studying in Edinburgh '
p687
sS'PUVFKWUZBDDI'
p688
S'nd year law student at the university of edinburghvegetarianwine and gigs are my favouritei play guitarIG  tanyawalterss'
p689
sS'PQRWESDHBAJX'
p690
g16
sS'IQRFOKMQHRHG'
p691
S'From Edinburgh  Snapchat ashleighx'
p692
sS'NVAQCZBYUSYW'
p693
g16
sS'FFGOEEGKAMWK'
p694
S"Edinburgh Law GraduateJack Daniels enthusiast' on a good hair dayHobbies include trying to get less awful at guitar and watching disney movies in the bathInstagram ines"
p695
sS'WNNFQKKXQPBN'
p696
S'Never done anything like this before Friend has been raving about it Please be gentle with me '
p697
sS'JBMXQYLRMQET'
p698
S'StudentScottish Short'
p699
sS'HPWSBRHTZYZK'
p700
S''
p701
sS'OVDJPPLXMQSO'
p702
g16
sS'AHBLPPFSKLPI'
p703
S'soft indie grunge'
p704
sS'GQTBEXKJUJZL'
p705
g16
sS'KVOAWHOIXMHC'
p706
S'I once watched Les Mis without crying'
p707
sS'TNVKUXDQSTHO'
p708
S"I'm a fucking punmeister Looking for a drinking partner  someone to take me to Rotato for a jacket potato "
p709
sS'RQTCPURSLNQA'
p710
S'From Glasgow studying in EdinburghArt student  th yearBit of a movie geekGot a motorbike Giraffes are kinda my thing '
p711
sS'MXPGARWFZKYG'
p712
S'Half Hong Kong half Scottish  ex firefighter and now studying accounting  just moved to Edinburgh '
p713
sS'TXGGRTIHXKJN'
p714
S'Snapchat samhadden '
p715
sS'LXBEOPXIHVLK'
p716
S'Lived in Finland and New Zealand nowadays in Edinburgh for uni  Excited about life '
p717
sS'RKSUBJYTAJCJ'
p718
g16
sS'PTZJRAAFIXYU'
p719
S" Scotland Let's chat  "
p720
sS'UKGQPNLKYLCS'
p721
g16
sS'TBSYKFVHNCXJ'
p722
g16
sS'RIPAMCBYZQWF'
p723
S''
p724
sS'PFHTMPJDWNYL'
p725
g16
sS'KUYBRCLZANSL'
p726
S''
p727
sS'XHHHAQLVWOGS'
p728
S' Studying Health and Social Nursing in Edinburgh  Also serious music addict and guitar playerI have a tattoo and I am ftyeah maybe consider those INSTAGRAM  fionacampbellGood banter or Good bye'
p729
sS'ROWSRANWAKOR'
p730
S"I like spending time with friends and family going out for dinner going to the cinema and cooking I've done ice skating since I was a little and like playingwatching most sports "
p731
sS'YGVZEXKWBEKS'
p732
g16
sS'OQWFBAIWRPZJ'
p733
g16
sS'FQITSTKDXDCZ'
p734
S'I jump out of bed in the morning and promptly turn my swag on '
p735
sS'HTDJETDAYQLR'
p736
S"I'm a fucking punmeister Looking for a drinking partner  someone to take me to Rotato for a jacket potato "
p737
sS'UCXUUZMPHBGR'
p738
S'Got a baby girl '
p739
sS'ZWIBBQMOUBCH'
p740
S'Taylor ParisCool Cool cool cool insta  taylorparis'
p741
sS'LOSOJSMXCBUP'
p742
S'Hi                              '
p743
sS'KLDMPDPYSILA'
p744
S''
p745
sS'MGXUJHMFCLVS'
p746
S'Snapchat jadeboydxo'
p747
sS'VRDSFUBWSXEG'
p748
S'Radiography student Edinburgh '
p749
sS'WKLGJCTRLBAR'
p750
S"I'm a daydreamer and a nightthinker aka I go to bed at about am most nightsnd year theatre and film student  big tea lover and Christmas obsessedI'm not the kinda girl you will meet in a club I like hanging out in my flat or going out to a pub with my friends Slytherin and proud  I write scripts in my free time and I spend a lot of time with my friends who are all massive geeksnerds what ever you call them who I mum  but they keep me laughing which I love  "
p751
sS'ROAMFZNUNFQK'
p752
S"part time gig photographer full time bar wench i've embarrassed myself in front of sir ian mckellan in tesco so there's that "
p753
sS'UHIABXQDBDPN'
p754
S'Events Management  QMUSnapchat  alyssahall'
p755
sS'DDMHMNAKCQJZ'
p756
S'EdinburghTattoosSnapchat hollihunterx'
p757
sS'YWOLZGOEJIRS'
p758
S"I'm a fucking punmeister Looking for a drinking partner  someone to take me to Rotato for a jacket potato "
p759
sS'GMSQBQOPGQBY'
p760
S"I AM NOT A PSYCHO'I'm  and Looking for someone who wants to drink some beers and will let me use their bath"
p761
sS'PYOUDWIYRPDS'
p762
S''
p763
sS'FRMABJCDLQLL'
p764
S''
p765
sS'EGABCUNXGZFW'
p766
S'Snap me  Sarahwilson '
p767
sS'FOHFRAXHXCZF'
p768
S"Hi I'm Vicky  from Livingston Single but here to meet new friends  I am quite shy but when I get to know you more I come out of my shellIf you want to talk I'll try my best I love animals and I love anime manga  anything to do with Japanese culture I also like games Pokemon too   a good laugh My dream is to travel a lot see the sights  I am also quite a thrill seeker  always up to try something new Also love horror movies  theme parks very family orientated"
p769
sS'JMWIIYNUDUXP'
p770
g16
sS'OCBMRNPHUROR'
p771
S"Currently living in the wrong place for someone who can't stand the coldBut when life hands you"
p772
sS'ODQMWOCBMRXV'
p773
S''
p774
sS'MZEXELUYQNZU'
p775
S'Bsc Hon in physics Back in Edinburgh after a year teaching in ShanghaiI missed Percy Pigs a lot Peanut butter NCIS and Jumpers'
p776
sS'DMDXZIWRTBHU'
p777
S'Snapchat  chloe'
p778
sS'FFVIRTZFVQIS'
p779
S'Student nurse in Edinburgh '
p780
sS'HBSDJDVXDYMT'
p781
S'Instagram  ejfieldxDo you ever drive on the motorway and see someone fit and wish you could give them your number somehow'
p782
sS'QKZSMPERTMNG'
p783
S'Practising christian  Bae aint bae if bae dont pray Budding traveller and food lover   In the wise words of TI  no mediocre '
p784
sS'IKFJGZLFSJGV'
p785
S'Edinburgh UniBeen stuck on the last level of snail mail for  years HelpSometimes I put paper in the general waste '
p786
sS'DRRNQYIJXBCE'
p787
S'UoESailing singing drinking socialising etc '
p788
sS'JTCBLIACUHRG'
p789
g16
sS'HXYONSNQBNQI'
p790
S'Looking for friends and more than friends Feeling lonely far from homeIf you love long walks in the park or in the beach The women for you is not only for sex When swipe right and meet up  xx'
p791
sS'EZEWCLMZTWTB'
p792
S'Oot every weekendCan lick ma own nips xMa snap chat is  bethanshankie'
p793
sS'HEVLTPZZMRPN'
p794
S"I'm a fucking punmeister Looking for a drinking partner  someone to take me to Rotato for a jacket potato "
p795
sS'JIROQLGAWADC'
p796
S"I identify with Spinelli from Recess on a spiritual level and I'm shamelessly emotionally attached to my bike Also my name is Zo but Tinder apparently can't handle diacritics What a shame "
p797
sS'BPJKLYPTQULC'
p798
S'History of Art Edinburgh '
p799
sS'NZAMVLSSYCWC'
p800
S'media student at qmu  full time alcohol enthusiast '
p801
sS'MTKSXCRKZHPH'
p802
S'Instagram chloconnollySnap chat chloecon'
p803
sS'RHYCCWOYSQOY'
p804
S'I jump out of bed in the morning and promptly turn my swag on '
p805
sS'RYCVFHIUPACO'
p806
g16
sS'JEICRXHVRFKH'
p807
g16
sS'SXNRVPNFMYND'
p808
S'instagram amydunbar '
p809
sS'CZVAPKYSPZUV'
p810
g16
sS'FBAHGALMXDVO'
p811
g16
sS'POVPPCVVEXTA'
p812
g16
sS'AOEVVUKAGLRL'
p813
S'Instagram  mdrummond '
p814
sS'EFCBIUEGLSHJ'
p815
S'Liverpool  EdinburghStudent NurseTea addictParty girl'
p816
sS'HNIOUFANSLQP'
p817
S' dental nurse fife'
p818
sS'KXYWYFBTDDYH'
p819
g16
sS'TRTZAJQTFTKZ'
p820
S'Instagram olivia '
p821
sS'WPCRCLJZBOFP'
p822
S'Snapchat  Helenainslie'
p823
sS'LYVXYUEUWCAM'
p824
S"I'm hilarious tall and I like good music That's about it Chat to me and we can be pals "
p825
sS'HGKTMFVFWXZD'
p826
S"I'm a fucking punmeister Looking for a drinking partner  someone to take me to Rotato for a jacket potato "
p827
sS'KSLZDVDEOQTR'
p828
S"I never send x's nothing personalTry impress meHigh expectationsEither boogie hard or go home "
p829
sS'HQVUOTFATEET'
p830
S'Ehm So hi Im the one of the left Yo'
p831
sS'CDXFSNWEOPWW'
p832
S"Started fresh on tinder here Maybe this time round it won't be so disappointing rd year psychology student Born  raised in Glasgow Anything else yOu want to know then just ask meGive me your chat "
p833
sS'JDIYUTBHCYOZ'
p834
S''
p835
sS'MKFZAMEQNILC'
p836
S'Instagram  chloejessicaxoSnapchat  chloejessicaxx'
p837
sS'TFRDEAXKBVZV'
p838
S'QMUEvent and business management '
p839
sS'UGULILQRNWNP'
p840
S'Snapchat xmorganxInstagram xmorganxDunfermlineEdinburgh Scotland Nursing student at Edinburgh Napier university '
p841
sS'VYASZEOKEHGL'
p842
S"I'm a fucking punmeister Looking for a drinking partner  someone to take me to Rotato for a jacket potato "
p843
sS'RRJOTMKHEYDH'
p844
S'Aspiring actormusician Lover of all things chicken Queen of mediocre puns '
p845
sS'SUVHNHUFDYAO'
p846
S'snap chat ashwaaay'
p847
sS'XQWBECWVSTZU'
p848
S"I'm new in Edinburgh and just want to meet new people "
p849
sS'BGAKQPZGYXAA'
p850
g16
sS'NQOWUWJLARTA'
p851
S"I'm a fucking punmeister Looking for a drinking partner  someone to take me to Rotato for a jacket potato "
p852
sS'WUTEGVHUNOMK'
p853
S"I'm a fucking punmeister Looking for a drinking partner  someone to take me to Rotato for a jacket potato "
p854
sS'XAQPLFCBFMRS'
p855
S"Je m'appelle Gayle I have cracked my head open a few times and I broke my collar bone the first day snowboarding on real snow I'm slightly clumsyI love dogs and stags but I don't think that it would practical to have a pet deerI love stationery not to be confused with stationary However I also quite like being stationary but not too much I like changing car wheels I don't like potholes "
p856
sS'DPHFOPVXPHWF'
p857
S'Leanne  Single '
p858
sS'LDQRXYFVBHWJ'
p859
g16
sS'DOGOPROYHODB'
p860
S'An English girl living in Scotland and studying PhilosophyPolitics at Edinburgh nd yearYorkshire born'
p861
sS'QSNAMNCDFKYN'
p862
S'Edinburgh Snapchat  nevadaxFacebook  Nevada Fitzner '
p863
sS'JVAHYXVXHCOZ'
p864
S'Looking for my Chuck Bass '
p865
sS'JGJGJLKCNRXS'
p866
g16
sS'MXKBETUCQBEX'
p867
S'Oot every weekendCan lick ma own nips xMa snap chat is  bethanshankie'
p868
sS'LCJNKKGBRZQQ'
p869
S"It's unfair that breakfast in bed is romantic but dinner in bed is a cry for help"
p870
sS'WCQJLPVHBSPR'
p871
S"I'm a fucking punmeister Looking for a drinking partner  someone to take me to Rotato for a jacket potato "
p872
sS'LDMHVBGBGDVC'
p873
g16
sS'GUZMDBWAMEXA'
p874
S"I'm a fucking punmeister Looking for a drinking partner  someone to take me to Rotato for a jacket potato "
p875
sS'DYGIBQJBLAFU'
p876
S"snapchat amyproud Instagram amyyproud I'm actually  just Facebook doesn't let me change itMost likely won't talk first "
p877
sS'EZMLOWXSJGWP'
p878
S'London  Edinburgh'
p879
sS'LOJUMYIQBBSN'
p880
g16
sS'XXTHASADDLTT'
p881
S'Snapchat  caznelly'
p882
sS'ISJSAPOXWJGB'
p883
S"I'm a fucking punmeister Looking for a drinking partner  someone to take me to Rotato for a jacket potato "
p884
sS'MGPPMOKVSFRW'
p885
S'If you dinny like documentaries your no for me Soz'
p886
sS'FREYEEADWRPR'
p887
S"I'm a fucking punmeister Looking for a drinking partner  someone to take me to Rotato for a jacket potato "
p888
sS'XTNWRUDFATNJ'
p889
S'Dundee gal studying Costume Design in Edinburgh Addicted to custard creams and I make a cracking cup of tea'
p890
sS'FKWFKLWCCRQD'
p891
S'Edinburgh UniBeen stuck on the last level of snail mail for  years HelpSometimes I put paper in the general waste '
p892
sS'XNZXGHGHXQWI'
p893
S'E D I N B U R G HSnapchat jessmcgovernx'
p894
sS'GRUNILJZWAUV'
p895
S"I'm a fucking punmeister Looking for a drinking partner  someone to take me to Rotato for a jacket potato "
p896
sS'PEUSFJCMHXDA'
p897
g16
sS'IPJSXHLSUBPD'
p898
g16
sS'ZFBLHLIUHTDE'
p899
S'Live in Edinburgh studying drama                                     Snapchat  leahmac'
p900
sS'YNOYABSRTUUF'
p901
g16
sS'CGAJJPLXPGLE'
p902
g16
sS'YACEJEQXKYLO'
p903
S''
p904
sS'OCYYLDQYGDUR'
p905
S''
p906
sS'ZUSSASECPEAF'
p907
S'Im an easy going girl like having  nights in and out Anything else just askk'
p908
sS'VYINLTXRPZCQ'
p909
S'snapchat  prettylittleem Instagram  emmajohnston dancer masseuse '
p910
sS'ANTPCCQVMHHA'
p911
S''
p912
sS'NIORQCDADMRK'
p913
S''
p914
sS'UQNKBXZZXCQR'
p915
S'Edinburgh uni '
p916
sS'PYJTJDACEUWE'
p917
S'Physics Edinburgh '
p918
sS'WYWRPJXNUXEU'
p919
S'  Irish   Radiography student at QMU '
p920
sS'FRNHFTXEGZKP'
p921
S"Politics theatre UN coffee addict postgraduate law and history student traveller huge fan of old tv series as well as action and science fiction moviesHell isn't merely paved with good intentions it is walled and roofed with them  Aldous Huxley"
p922
sS'GCZYRRGQBRNF'
p923
g16
sS'FMVRPTOSUEPI'
p924
S'snapchat kirstenwindever'
p925
sS'IJJBTNDWSFBW'
p926
S'Living in Edinburgh and living life to the full'
p927
sS'KAQJPKJOPJUV'
p928
S'Instagram kymallan '
p929
sS'JVHPRHIIESXF'
p930
g16
sS'VGWAGINIVQYC'
p931
S"I'm a fucking punmeister Looking for a drinking partner  someone to take me to Rotato for a jacket potato "
p932
sS'UZZEUMWDQBAJ'
p933
S"Environmental student that's a bit of a film nerd "
p934
sS'JQTMJNQAYYMN'
p935
S'Student Edinburgh '
p936
sS'TXCQPCFBHPYA'
p937
S'StudentScottish Short'
p938
sS'BOYBMDHGQRXX'
p939
S'Snapchat sharastevens '
p940
sS'KOZTAWZGQODP'
p941
S"I'm a fucking punmeister Looking for a drinking partner  someone to take me to Rotato for a jacket potato "
p942
sS'HVRIUQRWSIPW'
p943
g16
sS'FBSFWAAKKJEF'
p944
g16
sS'PQJKFMOOSNLH'
p945
S''
p946
sS'OOBHPUSCKQUV'
p947
g16
sS'CREHRAOJGYCG'
p948
S''
p949
sS'DCZOQFQCJCLU'
p950
S"I am awful with this about me stuff so i am going to keep it short and sweet I'm an Edinburgh girl Work in retail Adore meeting new people Have the bestest group of girlys Have a couple of tattoo's Enjoy trying new things Will pretty much chat to anyone and everyone that will listen Snapchat sammywatsonxox Anything else you want to know send me a message                             "
p951
sS'JUCEMWNISCDN'
p952
S' NCL Edinburgh Biology student bartender keen traveller dog lover '
p953
sS'KOMVVVSJOFVZ'
p954
S'Instagram lucygrace'
p955
sS'EXACGQLZMGVD'
p956
S'Are you a banana Because I find you appealing '
p957
sS'MGXTCIRNEBUX'
p958
S'Edinburgh'
p959
sS'BKJTSFIUXZLK'
p960
S' Kirkcaldy '
p961
sS'UMRGTWUNSHRF'
p962
S'Lived in Finland and New Zealand nowadays in Edinburgh for uni  Excited about life '
p963
sS'QNYDBZGXCSFC'
p964
S' nd year actuarial student at HW  '
p965
sS'MVOHLPFSROXF'
p966
S"LondonEdinburghSocial anthropology student Be nice Be fun Be friendly Don't be boring "
p967
sS'WZPMSTIIRTZA'
p968
g16
sS'NSDSNQRZOTFX'
p969
g16
sS'EYRWXZAVBWSP'
p970
S'Aussie traveller '
p971
sS'ODAVQYRDNVDG'
p972
S'Edinburgh '
p973
sS'LBJHOYSYZMFX'
p974
g16
sS'YIAIXAOJLRYU'
p975
S' Fife If we match send me a message Instagram kirstenhamilton'
p976
sS'ZHALBDQXJFTP'
p977
S''
p978
sS'OGNNKKMQTENL'
p979
S''
p980
sS'HFXZJSSYVRUP'
p981
S"UoE Swedish bakar utmrkt kladdkaka sick dance moves with and without tequila in my systemJe parle franais je jure and  other languagesIf we match don't be shy"
p982
sS'EYALFIEZFENE'
p983
S'EdinburghStranraer'
p984
sS'OBDEVVLQPFGL'
p985
S"Student skiier paddler Taylor Swift enthusiast ' of not taking life very seriously I like mountains and being outside "
p986
sS'MMEPJNRCHWSD'
p987
g16
sS'FVJCQCAGQXVU'
p988
g16
sS'UQSXJZAYMNHU'
p989
g16
sS'ASDDGZNZVFLZ'
p990
S'Snapchat shaunnilWant my number askFife '
p991
sS'IJWRJPHCBXQQ'
p992
S"I'm a fucking punmeister Looking for a drinking partner  someone to take me to Rotato for a jacket potato "
p993
sS'DFMHCISWRKQK'
p994
S'East SussexEdinburghMaths student'
p995
sS'AMRVISKLNNIU'
p996
S"IR student from Scotland with an excellent taste in cartoons I do the theatre thing sometimes and it's great but also I'm too lazy for it St Andrews"
p997
sS'CCUMGUJLJHQM'
p998
S"I'm a fucking punmeister Looking for a drinking partner  someone to take me to Rotato for a jacket potato "
p999
sS'RKTAITHBINKD'
p1000
S'Are you a banana Because I find you appealing '
p1001
sS'PPJCVPLYWMTG'
p1002
S'If you know your  times table get in touch'
p1003
sS'POOUTNXWFKAZ'
p1004
S"So I'm a bit of a traveler and excited to explore more of the world really into having a drink and getting my boogie on at the weekend Love animals  minus the spiders I honestly just want someone to cuddle up with and watch tv with "
p1005
sS'QWPFCFCOWKED'
p1006
S''
p1007
sS'OZWMPHVSRWCL'
p1008
S"They call me gillette coz am the best a man can get Also I'll cut you I have tina turners name and date of birth tattood on me just coz I can dinny like her swipe left n dae us all a favour Kirlcaldy  instagram heatherritchieo"
p1009
sS'ZAUSIRZYPPIC'
p1010
S'I like a good pair of balls'
p1011
sS'DZDDJQSCTPEB'
p1012
g16
sS'ATNKWCAOYWHE'
p1013
S"Kik  snapchat  caraghmccoleInstagram  caraghannemccole Tattooed and piercedI'm partial to guys with beards and tattoosIdeal guy would be a tattooed and bearded Captain America "
p1014
sS'GNWMSSOABXXQ'
p1015
S"Let's be real I just need new funny screenshots for my group chat"
p1016
sS'HVRXSVLRYYUR'
p1017
S''
p1018
sS'WWOLXRHDLQJA'
p1019
S''
p1020
sS'XCMYBMNNIMFY'
p1021
S"I'm actually quite a nice person Love fitness and Jaffa cakes Message first please "
p1022
sS'ENNQWMHDDHCU'
p1023
g16
sS'ESRLKMDBSBHX'
p1024
g16
sS'JMEWWKYUBVDK'
p1025
g16
sS'KBPKXVJBQGFS'
p1026
S''
p1027
sS'RPFGEFECNCEN'
p1028
g16
sS'KMMCWYQPCQDC'
p1029
S"HND Acting and performing studentI like guys in bands and I've got a thing for drummers"
p1030
sS'KTJTHGTPWUQK'
p1031
g16
sS'VJCVJZSMWRAX'
p1032
S'Northern Ireland Edinburgh Napier Skiing Hockey Travelling  '
p1033
sS'MKMAJDSFMEDS'
p1034
S"I'm a fucking punmeister Looking for a drinking partner  someone to take me to Rotato for a jacket potato "
p1035
sS'UDGHXRVQDJQW'
p1036
S''
p1037
sS'TPVXHFZCJMHD'
p1038
g16
sS'SJTLETRVXXVH'
p1039
g16
sS'XNYOKYPJAVWW'
p1040
S'EdinburghYorkArt Student '
p1041
sS'WUMUKHNFBCUJ'
p1042
g16
sS'TJPTRAIGLGQH'
p1043
g16
sS'HIYHZXYKIHYC'
p1044
S'EdinburghGlasgow Strathclyde Uni '
p1045
sS'AEVZJUXVITBW'
p1046
S'Whut'
p1047
sS'TZMYFKAGURBY'
p1048
S"Just a nice always smiling girl living in Edinburgh originally from Poland Looking for a chat a friend a remedy to boredomI like going out having fun singing enjoying life in general ' "
p1049
sS'AYVEHXOHKXHL'
p1050
g16
sS'WGZLFXRZNGOH'
p1051
S"Edinburgh Eng Lit student and waitress I read lots of books and try not to throw wine all over people with mixed success ' "
p1052
sS'BSXSEAHQRWTE'
p1053
S'Fashion student Snapchat  chloemillar'
p1054
sS'VCSVKJYQJZJI'
p1055
S'QMUEvent and business management '
p1056
sS'KAHCELOHSEHD'
p1057
g16
sS'JVGMVIIFGXXA'
p1058
S'Snapchat jenniferrTattoosmm ear stretcherLed ZeppelinMotrhead Anthrax Slayer'
p1059
sS'DQNOIRRSBNOX'
p1060
g16
sS'PBEIVFJBXRQK'
p1061
S'Olivia  New York born Looking to get to know Edinburgh through good company and good food '
p1062
sS'NLFUEWJTASCD'
p1063
S"I'm a fucking punmeister Looking for a drinking partner  someone to take me to Rotato for a jacket potato "
p1064
sS'URVJWWUPHOVW'
p1065
S'EdinburghGlasgow Strathclyde Uni '
p1066
sS'IHTZJLCHCNGX'
p1067
S' not  '
p1068
sS'FFAJGZLJIMRH'
p1069
S" years through the best adventure anyone could ever haveGot a map on my arm so I don't get lostAlso got my dog tattood on meMy car is just one big stickerSemi famous snowboarder with a famous dogProfessional adventure to mountains skateparks lakes bars quirky shops and anywhere with dogsAustralian taking shelter in ScotlandWhen I was younger I looked like Tina from Bobs Burgers"
p1070
sS'OGZBIXZPPHWA'
p1071
S"I'm  and from Scotland Snapchat JemmaaBrodiee "
p1072
sS'RGAJGVCNYTDD'
p1073
g16
sS'NNDGRIWSTJFV'
p1074
S"I'm a fucking punmeister Looking for a drinking partner  someone to take me to Rotato for a jacket potato "
p1075
sS'TOZWWPPJMHAF'
p1076
g16
sS'XCKBMTFQDSPW'
p1077
S"I'm a fucking punmeister Looking for a drinking partner  someone to take me to Rotato for a jacket potato "
p1078
sS'UTAYEXLADSMN'
p1079
S'Ayla  student scoutAnything else just ask'
p1080
sS'ASQNXNCFSISM'
p1081
S"I'm a fucking punmeister Looking for a drinking partner  someone to take me to Rotato for a jacket potato "
p1082
sS'NSGLVWQWSSQB'
p1083
g16
sS'EZOEJQECNOJW'
p1084
S'Edinburgh '
p1085
sS'BRDDXTGQCJWQ'
p1086
S''
p1087
sS'FEUEAEYMZEWD'
p1088
S"If we match talk otherwise there's no point Glenrothes Instagram hassinakarimSnapchat hassinax"
p1089
sS'NVLAXMLEIYBM'
p1090
S"Snapchat hannahwootten Insta HannwoottenEdinburgh Hairdresser Tattoos Have a little boy he's my world If we match message me "
p1091
sS'CLDFZCNJZBBD'
p1092
S''
p1093
sS'ESFDGDGUALJN'
p1094
S"I'm a fucking punmeister Looking for a drinking partner  someone to take me to Rotato for a jacket potato "
p1095
sS'YFEVRRKHYONL'
p1096
g16
sS'VOIUWUEIOYZJ'
p1097
g16
sS'MEFWJASTRKQL'
p1098
S"I'm a fucking punmeister Looking for a drinking partner  someone to take me to Rotato for a jacket potato "
p1099
sS'THFEQXBALZBQ'
p1100
S"Started fresh on tinder here Maybe this time round it won't be so disappointing rd year psychology student Born  raised in Glasgow Anything else yOu want to know then just ask meGive me your chat "
p1101
sS'PBXYSAVISOJK'
p1102
S'Snap chat lisamclarenx'
p1103
sS'ZMVXGTUKWMWV'
p1104
g16
sS'DRIHVWEDOQJW'
p1105
S'Live in Edinburgh Snapchat shannonrileyInstagram shannonriley'
p1106
sS'XVACMBYTWEBU'
p1107
S'Belfast  Edinburgh'
p1108
sS'SUQICBRYYDZA'
p1109
S'EdinburghSnapchat indialaingx'
p1110
sS'TBVAKFBHZQNH'
p1111
S''
p1112
sS'JOYLJILAJKHD'
p1113
S'Snap chat emssl '
p1114
sS'UHICXSATYEUS'
p1115
S'nd year Accounting student at Edinburgh UniFrom Fife'
p1116
sS'NXIWDENYKAOI'
p1117
S'SupportCare WorkerFifeInstagram kirstymcquade Twitter Mcquadex'
p1118
sS'UTLDGQZOKPIK'
p1119
S'studying art at college xox'
p1120
sS'GOGLKRPCMSJM'
p1121
S''
p1122
sS'CXCFPUNDWFEP'
p1123
g16
sS'WSITTYHEGVWC'
p1124
S' Edinburgh '
p1125
sS'AIILVYYIXTDN'
p1126
S"I'm a fucking punmeister Looking for a drinking partner  someone to take me to Rotato for a jacket potato "
p1127
sS'KTISNWGQRVWW'
p1128
S"I like ambition it's attractive "
p1129
sS'AQLUYWXDKWOD'
p1130
S''
p1131
sS'NJSKBMRUZURT'
p1132
S"I'm a fucking punmeister Looking for a drinking partner  someone to take me to Rotato for a jacket potato "
p1133
sS'SHSHVYPQQPVT'
p1134
S'Instagram chelseakildayxSnapchat chelseakilday '
p1135
sS'FMKJAVJHAELO'
p1136
S'Journalism student Edinburgh'
p1137
sS'FUGPFUXJIRDZ'
p1138
g16
sS'UMEOFTPEFQDR'
p1139
S''
p1140
sS'AUUNPDUPMCTI'
p1141
S"I'm a fucking punmeister Looking for a drinking partner  someone to take me to Rotato for a jacket potato "
p1142
sS'ECYEUGZZCYFG'
p1143
S"I'm a fucking punmeister Looking for a drinking partner  someone to take me to Rotato for a jacket potato "
p1144
sS'OJMFRGEWNMPJ'
p1145
S'Edinburgh Uni Medic Occasional blonde moments '
p1146
sS'CIBGJYODUSUL'
p1147
S'Australian fugitive on the run in Edinburgh graceless'
p1148
sS'JDKBCLAJPCOH'
p1149
S'jo perrin X'
p1150
sS'NNOMQODHHFTX'
p1151
S'Hi new to this '
p1152
sS'LQXNWXWOMQKX'
p1153
S'Ig sofiaellenadolfina snap sofiadolfina floorball'
p1154
sS'YXQELMXDMPOE'
p1155
S'Not enough characters here to tell you about myself '
p1156
sS'QPFZEDJEYXAZ'
p1157
S'Edinburgh uni Napier students need not apply '
p1158
sS'MQXIGEBWHTLP'
p1159
S'Social Sciences student Bi making my way through life enjoying it when I can '
p1160
sS'UJVYRYMYAVHA'
p1161
g16
sS'JTZVPOYBJSTH'
p1162
S"I'm a fucking punmeister Looking for a drinking partner  someone to take me to Rotato for a jacket potato "
p1163
sS'RMBAGULVTFVT'
p1164
S'Social Sciences student Bi making my way through life enjoying it when I can '
p1165
sS'ZYSWASTLJPRB'
p1166
S''
p1167
sS'SDSVZZWSBOTK'
p1168
S''
p1169
sS'JJDXHTFTVPMJ'
p1170
g16
sS'OXAMUHASOEGH'
p1171
S'Instagram mhari'
p1172
sS'UTBFOVLZRQTY'
p1173
g16
sS'MYDMIQHEQMWF'
p1174
S'Whut'
p1175
sS'PTDQSDKIXNVA'
p1176
S'Rebecca  Living in Edinburgh Early Education and Childcare student '
p1177
sS'TOBBESOWGTON'
p1178
S' Edinburgh'
p1179
sS'IZIHCEBVGIHP'
p1180
S"'Death is just life's next adventure'Food naps alcohol and rugby keep me happy snapchat  lauradickson"
p1181
sS'XYEDGXKDIXLU'
p1182
g16
sS'GINCLQSSQZSZ'
p1183
S'Stirling Uni  Mental Health NursingLivingston is home'
p1184
sS'MFSBJCOGVYHV'
p1185
S'Stirling Uni  Mental Health NursingLivingston is home'
p1186
sS'DQADNFJURCHL'
p1187
g16
sS'LDINYIMRDPPU'
p1188
g16
sS'KWKOLFHKHLHC'
p1189
S'Aspiring actormusician Lover of all things chicken Queen of mediocre puns '
p1190
sS'HFVHCJBYOBAT'
p1191
S'If you have a dog then you get an instant swipe right '
p1192
sS'AQYZVFFMBKEL'
p1193
g16
sS'NNXJWZSHGBTC'
p1194
S'  Scotland  blonde  swimming teacher  Pop up'
p1195
sS'DVHXFILVGLOJ'
p1196
S"Student skiier paddler Taylor Swift enthusiast ' of not taking life very seriously I like mountains and being outside "
p1197
sS'ISMLITAGLRQZ'
p1198
S'Caitlyn Strathclyde university childhood practiceManager of an out of school care setting Anything else just ask '
p1199
sS'YZJAHVIGUIKO'
p1200
g16
sS'ICOHIQTHJYFS'
p1201
S'I love footballgym i work as a hairdresser and accountant '
p1202
sS'BYTEZEWNWCQG'
p1203
S''
p1204
sS'XNAMBUZBNYKB'
p1205
S'Half Hong Kong half Scottish  ex firefighter and now studying accounting  just moved to Edinburgh '
p1206
sS'ERSNFTOWDNDM'
p1207
S"I'm a fucking punmeister Looking for a drinking partner  someone to take me to Rotato for a jacket potato "
p1208
sS'GLAPZGIUXKEL'
p1209
S'Hey there  Im currently studying pe teaching at uni Enjoy giving any sports a go Love my job working with horses and competing Love cooking a good steak Are there any men out there that does the whole flowers romance thing  xxxx'
p1210
sS'NDGQPFICHQWL'
p1211
S'Want to know anything just ask Sure no one reads this anyways'
p1212
sS'HMSAOPKJLXYN'
p1213
S"I am an easy going laid back person I love spending time with my friends and family enjoying watching a good game of football I like the idea of being adventurous just haven't got around to it I will bungee jump one day i am sure "
p1214
sS'UDSYVNBTIWFS'
p1215
S'LondonEdinburgh Part time barmaid full time female UoE ArabicFrench'
p1216
sS'VLTGVVBCHBSV'
p1217
S'UoE Economics '
p1218
sS'YPAJNVXNRQUH'
p1219
S'Basel BrusselsI vibe Insta eleanorroseshortland'
p1220
sS'TGFVVLKYPCSK'
p1221
g16
sS'ZEXYHFLFXNSE'
p1222
S''
p1223
sS'GQYJQYPDNPVQ'
p1224
S'HK in Edinburgh '
p1225
sS'XHDAGKLTKIOA'
p1226
g16
sS'KRETGWJIJVYO'
p1227
S''
p1228
sS'BIIJFVLNHWUB'
p1229
S"I'm a fucking punmeister Looking for a drinking partner  someone to take me to Rotato for a jacket potato "
p1230
sS'EOCIJCFUFVQD'
p1231
S''
p1232
sS'FTZYKNLQNQOE'
p1233
S'Just happy Instagram louhunter'
p1234
sS'JTWIGJAEPKJV'
p1235
g16
sS'BTFQRUGRIMFX'
p1236
S'Student at Edinburgh University ScottishGamer on PS'
p1237
sS'XBDMZIGKQERR'
p1238
S"If you don't like sarcasm don't bother "
p1239
sS'BHBYKKXTOTSJ'
p1240
S"I'm actually really cool "
p1241
sS'SHZNCPHXIMZV'
p1242
S'Studying architecture at Edinburgh university Love to travel Big fan of silliness Terribly English Should never be allowed to drink at lunch'
p1243
sS'JWRLUJMXAZGE'
p1244
S'A firm believer that hangovers should not be dealt with aloneGeordie girl '
p1245
sS'UNRVIVNNDKFA'
p1246
g16
sS'SPZCAQENZWLW'
p1247
g16
sS'ELGJULUZDTHG'
p1248
g16
sS'EIGVMJCXPYUN'
p1249
S'hi im from perth  I love all sports especially horse riding and skiing'
p1250
sS'KZHASVUAOBAX'
p1251
S'Toni  EdinburghGlasgow Music Student Community Arts Assistant '
p1252
sS'YWMPRLOXEHKF'
p1253
S''
p1254
sS'ABUNYDICXPVZ'
p1255
S''
p1256
sS'CNQMVWVUGZUS'
p1257
S"Actually   in  months but Facebooks being a cunt TV shows music musicals and the internet are basically my lifeI'm socially awkward so if you don't start the conversation we probably won't talk"
p1258
sS'CZQPTYWTCFVQ'
p1259
S'eighteen snapchat  chelsearodgers'
p1260
sS'RJEWZTWVWABA'
p1261
S'Snapchat TilleyChanel                        i love sitting on guys knees '
p1262
sS'WZTPPXMSKZBH'
p1263
g16
sS'WXJQUMGZOIBM'
p1264
S''
p1265
sS'DFLYWVRGOHQU'
p1266
S"what do you mean wine isn't one of my five a day I also read a lot and drink an unhealthy amount of tea "
p1267
sS'JGOPZBZQFCLZ'
p1268
S''
p1269
sS'VOZBLYUXANHT'
p1270
S'Medic at Edinburgh '
p1271
sS'ACDEIFSTJBRH'
p1272
S'Medic at Edinburgh '
p1273
sS'AGNKPLWUFLVE'
p1274
g16
sS'CFPMKCZQHFKN'
p1275
S''
p1276
sS'WSTGRGFAWKOS'
p1277
S''
p1278
sS'EJCRCDVCQXQJ'
p1279
g16
sS'JXOKPFOJSZRO'
p1280
S'Metal Vikings gigs festivals and cats are my things  studying business with French  German in Edinburgh'
p1281
sS'VTQRJMLZAXRE'
p1282
S'BelfastDundee  Law with German  RowerLifeguard '
p1283
sS'IPDQKCMTBKGZ'
p1284
S" Irish  and Living in Edinburgh accept the the things you can't changebe brave to change the things you canand be wise to know the difference"
p1285
sS'FHWTHZDOZOFB'
p1286
g16
sS'FZMFAHGKMBEZ'
p1287
S' nd year actuarial student at HW  '
p1288
sS'RRDYPRNFXVNB'
p1289
S''
p1290
sS'GSTIGRTLZAYD'
p1291
S'Business student at Edinburgh UniversityFrom Manchester'
p1292
sS'HZLWQMGKVDHM'
p1293
g16
sS'YBFVBWAJUSCM'
p1294
S'Make up artistry student VodkaMarvelNetflixSnapchat eemmaa'
p1295
sS'GQNEVSEPZEKJ'
p1296
S''
p1297
sS'MRLWSXOBGBQR'
p1298
S'Business Student at the University of Edinburgh'
p1299
sS'MBZBSIFKGNAF'
p1300
S'Hi there '
p1301
sS'SQLHZBDLPCAS'
p1302
S" from Bo'nessHaving  tattoos  counting "
p1303
sS'SRPXRPDFBTQB'
p1304
S'Toni  EdinburghGlasgow Music Student Community Arts Assistant '
p1305
sS'OGJSQVGCUZSW'
p1306
S"I just got Fallout  so I may not be replying often right now I will be backThis app makes me feel like Sauron I see youI like long walks on the beach Star Trek and casual sexIf you haven't seen Garth Marenghi's Darkplace I would be happy to introduce it to you"
p1307
sS'AMNUCDHCINDP'
p1308
S'Edinburgh chick'
p1309
sS'CIPOGITQRQHB'
p1310
g16
sS'ABTOPLNIKFIE'
p1311
S"Loves to paint act and sing can't be bothered to make money outta them If you can't handle tattoos you can't handle me Rather dislike beards love tall tall guys and any height of girl Dying of the flu at the moment so I can appreciate the type of Netflix and chill where you feed me soup "
p1312
sS'RNCZZDMDJFLL'
p1313
g16
sS'YOPGQTOHHFLS'
p1314
g16
sS'NJVPAYFVUQCE'
p1315
g16
sS'VYLQUYQIMQPV'
p1316
S"I have no idea how to talk on this thing so if you could chat first that'd be fab not just looking for a bit of fun so don't even bother asking The child in the photo is my nephew just to clear that up I drink and smoke excessively and will never pass up on a chance to get pissed  I study NC Applied Science at Edinburgh college Anything else you want to know just ask"
p1317
sS'RKNAUERBOCVJ'
p1318
g16
sS'YHSGUIGUHYIC'
p1319
g16
sS'SNMPZCBJIVWB'
p1320
S'Two words'
p1321
sS'TYZGFTZMXZWB'
p1322
S"I'm a fucking punmeister Looking for a drinking partner  someone to take me to Rotato for a jacket potato "
p1323
sS'AQWAFRXVIHQE'
p1324
S"I know it says  but I'm  "
p1325
sS'DZCMDOBIVXJI'
p1326
S'Love new adventure  road trips Love traveling If we match message me Facebook httpsmfacebookcomNicoleeeeee'
p1327
sS'XUIBLHXRZDXQ'
p1328
S'Forresedinburgh Criminology at Napier '
p1329
sS'BHQJLQQXUYLD'
p1330
S'Norwegian   Student '
p1331
sS'JGJXTJLRHFDD'
p1332
S'Living and studying in Edinburgh '
p1333
sS'ZXPGLILRVETN'
p1334
S'Snapchat  ellebelle '
p1335
sS'SRAVZLBZMCXG'
p1336
S"EdinburghScottish ' redhead Not looking for a serious relationship Likes tall men uniforms beautiful women music dancing outdoors going out staying in watching Netflix being comfy getting dressed up laughing being spontaneous playing practical jokes tattoos  more I also have a very high sex drive bit of a wild child love house parties You only live once and I going to live it to the full so I'd love to find a few sexy people to join me and be my partners in crime "
p1337
sS'JBKJLZNCYWSF'
p1338
g16
sS'LEFNHGJPNAYC'
p1339
S'Undefeated Lord of the Rings trivia championActresswhisky enthusiast'
p1340
sS'AMQAMYGQFKAB'
p1341
g16
sS'JMRKPUGNWZWA'
p1342
S"I'm a fucking punmeister Looking for a drinking partner  someone to take me to Rotato for a jacket potato "
p1343
sS'ICMBSIIDHVQP'
p1344
S''
p1345
sS'MPGUPJCXJWKO'
p1346
g16
sS'MUBSSPSAFWXX'
p1347
S'Love sports love travels'
p1348
sS'VDDNVSKKPWQG'
p1349
S"I'm a fucking punmeister Looking for a drinking partner  someone to take me to Rotato for a jacket potato "
p1350
sS'ULLXVFYGTCEM'
p1351
S'Lacking balls and panache since '
p1352
sS'USHSEBOODVXK'
p1353
S"Travel obsessed pierced and inked After working in Romania Madagascar and Nepal I'm spending some time at home in Edinburgh to focus on my dance career and work out what the hell I'm doing with my life If you've heard of The LaFontaines we can probably be friends"
p1354
sS'QMRDQGMUTBSJ'
p1355
S"Okay first things first to stop all confusionawkwardness i am the brunette in the pictures Anyways i live in Fife  Big rugby fan Massive movie geek was an inconsolable mess at the end of The Hobbit  Normal is boring  I'm bilingual English and sarcasm And I make a mean cup of tea Snapchat holzzrobertson"
p1356
sS'LJEQEUGVGRBI'
p1357
g16
sS'IMSQNUGQCFBV'
p1358
S'Not enough characters here to tell you about myself '
p1359
sS'PEKOVQIULHGB'
p1360
S"Snuffles was my slave name you can call me snowball SingerShitty Songwriter Cat enthusiast MovieTV show lover Video game nerd AvA BMTH Don Bronco  FightstarCharlie Simpson is my spirit animal I probably won't message you first just sayin'"
p1361
sS'URSGBJRZCOAW'
p1362
S'Edinburgh Uni  Cambridge '
p1363
sS'TQWIIYZTDPJD'
p1364
S'english lit studenti like people places and thingsthe kind of girl you could take home to meet your parents until your dad inevitably leaves your mum to be with me instead '
p1365
sS'QUWXMBQFZPOW'
p1366
S'snap chat ashwaaay'
p1367
sS'KIUGODRSBJKJ'
p1368
g16
sS'AVDKEVDJLKVN'
p1369
S'Edinburgh Instagram katiehmferguson '
p1370
sS'QJKTVZLYYONT'
p1371
g16
sS'BEHBIFFDWIQU'
p1372
g16
sS'XAXBEKMXSHPO'
p1373
S''
p1374
sS'DVJQRZQTYBLO'
p1375
S'RGU graduate new to Edinburgh '
p1376
sS'MIGIEZVDDPJX'
p1377
g16
sS'TJKNSEXAYYLZ'
p1378
g16
sS'BPWTQEJMBOOE'
p1379
g16
sS'RIJTEBXERCNV'
p1380
g16
sS'LCHEJKZCZRVQ'
p1381
S"I'm a fucking punmeister Looking for a drinking partner  someone to take me to Rotato for a jacket potato "
p1382
sS'CZXSOEEUSHIO'
p1383
S' '
p1384
sS'VZIDXUJYTJGW'
p1385
S"I'm a trouble And I love weird people And Opium Polish Crazy But lovely"
p1386
sS'NWPRVRHMUJTU'
p1387
g16
sS'JCLCDXRLNPYZ'
p1388
S' '
p1389
sS'IWWULFJAPHCE'
p1390
g16
sS'EPOENLQWHRTX'
p1391
S"I am  and Stydying Psychology I'm not interested in half the things it says I am I can't remember liking them on Facebook but what's done is done "
p1392
sS'ZPKPBHDZTXMX'
p1393
S'Edinburgh physio student Instagram laurarobertsonx Snapchat laurarobertsonx '
p1394
sS'HSZMECHGGZLN'
p1395
g16
sS'GGNYYSZTNJHY'
p1396
S'st year Psychology student at GUBed is love Bed is lifeAlso a fan of dancing and most sportsFeel free to message me '
p1397
sS'HYDYTWYMRZRT'
p1398
g16
sS'DJUVYFPPPLAK'
p1399
S'edinburghfootballlaw student '
p1400
sS'ZKLLWRYXJVJJ'
p1401
g16
sS'GPVMNEAPLNWR'
p1402
S'some people just put an Instant Smile on your face '
p1403
sS'RVATGZQIALIN'
p1404
g16
sS'WUPQBNNMKPTB'
p1405
S"I'm a fucking punmeister Looking for a drinking partner  someone to take me to Rotato for a jacket potato "
p1406
sS'AWUMQWXFABRM'
p1407
S''
p1408
sS'PCIPPIFWCQGZ'
p1409
S'  Voluptuous fat  lazy recovering netflix junkie with an offensive sense of humour I like people I can laugh with my very existence is a joke I like gay barsDont tend to message first im shy like that PSnapchat bitchitsyasmine'
p1410
sS'RQHUAUURBFLE'
p1411
g16
sS'LMPAAXLEYFDU'
p1412
g16
sS'PVTVCTBAXSEQ'
p1413
S'all graphic designy and vegany'
p1414
sS'UOIHCHMJQRNT'
p1415
S'Snapchat robocxo '
p1416
sS'PPXGXAFECFWX'
p1417
S"I'm a fucking punmeister Looking for a drinking partner  someone to take me to Rotato for a jacket potato "
p1418
sS'LGOWBJBXSWBL'
p1419
S"I'm a fucking punmeister Looking for a drinking partner  someone to take me to Rotato for a jacket potato "
p1420
sS'AJQHRNNYOJUA'
p1421
g16
sS'ESZLIENWOPZC'
p1422
S'edinburghfootballlaw student '
p1423
sS'YJLZEINUKESE'
p1424
g16
sS'DRZOWQIZQWDW'
p1425
S'Fine Art MA  ECA Brummie born and bred My neighbors think my accent is hilarious Instagram mollyhk'
p1426
sS'OOKLLNJNUEDN'
p1427
g16
sS'IQASGNYGOKLI'
p1428
S'Live on a farm in the middle of nowhere Fitness and game of thrones enthusiast with a mild peanut butter addiction Enjoy skiing baking weights training and attending young farmers shindigs If you dont appreciate a good game of monopoly we cant be friends  instagram emilynimmo facebook Emily Nimmo '
p1429
sS'LWWBIAXCGKAT'
p1430
S"I'm a fucking punmeister Looking for a drinking partner  someone to take me to Rotato for a jacket potato "
p1431
sS'ZPWOVWLWGPPT'
p1432
S"Not much to sayquite a busy job and always kept busy playing in a brass band I'm "
p1433
sS'KQNAKLDTEZQU'
p1434
S'Snapchat  allyblack '
p1435
sS'PLFINJAYCUSJ'
p1436
g16
sS'MWDLQCTBWXEW'
p1437
S'Scotland Brazil'
p1438
sS'DHLIFXNBXOKL'
p1439
g16
sS'HTUKFZDHVEUV'
p1440
S''
p1441
sS'TJRMBTYUCEQB'
p1442
S'Business student living it up in the big city '
p1443
sS'TKIOWQMZKJGD'
p1444
g16
sS'FWALZABYXEEK'
p1445
g16
sS'ZIMAPMUVQPZS'
p1446
S'SmallFunActiveSkateboard snowboard climb drink party live on the edge A little'
p1447
sS'DQRWLHPJPCGG'
p1448
S'Civil Engineering student'
p1449
sS'GEUCHOXLOCGP'
p1450
S'I need a writer friend apply within'
p1451
sS'QMJGFXYHFXIN'
p1452
S"I'm the type of girl who gets a tattoo and finds out it's a Jonas Brothers song three minutes laterWork at Boots I want to go to places I'd never dream of going to "
p1453
sS'RRRCUWYGBIPZ'
p1454
S"Edinburgh Uni student If you don't like me at my Hive you don't deserve me at my George Street "
p1455
sS'YUIYSEGBECBP'
p1456
S'London  Edinburgh'
p1457
sS'RIOTBJSQVPIE'
p1458
S"' English Lit student at UoE"
p1459
sS'CXKEQKEYOZON'
p1460
g16
sS'BSLCRFJDDCSN'
p1461
g16
sS'WCCBJBGXKCXV'
p1462
g16
sS'NILOZLPWKSJW'
p1463
g16
sS'WAZYZTFMQOUL'
p1464
S'Dundee gal studying Costume Design in Edinburgh Addicted to custard creams and I make a cracking cup of tea'
p1465
sS'KVRMQGABSUOV'
p1466
S'Art student at ECA Fancy dress is the way forward '
p1467
sS'HZRXPIBRVLUI'
p1468
S''
p1469
sS'ASBIMVZPERSR'
p1470
g16
sS'HILRLHCXDNWF'
p1471
S''
p1472
sS'AHZYBTEDGFHT'
p1473
S'Australian fugitive on the run in Edinburgh graceless'
p1474
sS'TDJIKHBPKKPS'
p1475
g16
sS'XADJFEOFODOK'
p1476
S'In my th year  uws trying to get my honours in social science Hoping to go into teaching modern studies My pups are my world  '
p1477
sS'JNTEMMOYZJMK'
p1478
S'From Falkirk and currently at Cumbernauld college studying Radio Broadcasting'
p1479
sS'PPLJGKKPLPHQ'
p1480
S'all round good cuntsnapchat  ruthmk    '
p1481
sS'ZPIDJCIZAOVG'
p1482
S'Irish studying in QMU EdinburghHi or hey will guarantee reluctance to reply Instagram  ciaramurray'
p1483
sS'RGEUDNGEWDMT'
p1484
S'Art student at ECA Fancy dress is the way forward '
p1485
sS'UZXOQUWEASYH'
p1486
g16
sS'UJKWOPGZOYVW'
p1487
S'Studying at Edinburgh for the semester'
p1488
sS'YEYKIANGXIUH'
p1489
g16
sS'JNCRXJNRBOIH'
p1490
S'Edinburgh '
p1491
sS'GRSBXUGJSFIA'
p1492
S''
p1493
sS'KCEFOBQPDDNF'
p1494
S''
p1495
sS'ZPHICPHARSMJ'
p1496
g16
sS'FAABMJRJLQEU'
p1497
S'Studying Primary Teaching at Edinburgh uni '
p1498
sS'NEWYRNBYKSFA'
p1499
g16
sS'PHLEIBYKETOD'
p1500
g16
sS'TBRSCEVUUVQE'
p1501
S"Half Turkish festival and events student  bartender in Edinburgh steak connoisseur and gaming addict  aim to organise E one day  Little lass in the pool is my cousin ain't she a sweetie  oh also guys that have 'netflix' in their bios can u not "
p1502
sS'NYXASBEYFCCU'
p1503
g16
sS'QZCKGQGMVDWM'
p1504
S' Illustration student Foodie Guernsey  Singapore Living in Edinburgh  '
p1505
sS'KVLPKJGDOLWC'
p1506
g16
sS'XVKEBJYTRCIP'
p1507
S'Make up artistry student VodkaMarvelNetflixSnapchat eemmaa'
p1508
sS'RWMVGZSLPHTN'
p1509
S''
p1510
sS'QATXWFGVPGKE'
p1511
S''
p1512
sS'DBCMKHQWNOQZ'
p1513
S''
p1514
sS'TGEEEXKSEUDF'
p1515
g16
sS'GWQKAPTUPQJW'
p1516
S''
p1517
sS'XXXAVJYUXZNW'
p1518
g16
sS'QZSATJUEPQTE'
p1519
g16
sS'LBZOZJQLOSHA'
p1520
S'LOVE LIFELife isnt about waiting for the storm to pass its about learning to dance in the rain'
p1521
sS'RPGPJNAKVJZW'
p1522
g16
sS'ZZKHFGSDVKYE'
p1523
S'Just looking for peeps to chill and watch movies with '
p1524
sS'OTWOJVQILZYT'
p1525
S"I'm a fucking punmeister Looking for a drinking partner  someone to take me to Rotato for a jacket potato "
p1526
sS'PGQWROLCIKHH'
p1527
S'I like long romantic walks to the bar'
p1528
sS'MBLUPIIQRZHL'
p1529
S'Banter '
p1530
sS'KTRLIJSVLGYA'
p1531
S' fife '
p1532
sS'MFDZKRSKSRYD'
p1533
g16
sS'PJAAMENGIXQK'
p1534
S"Bulgarian working in Manchester  'Life isn't about waiting for the storm to pass it is about learning how to dance in the rain'"
p1535
sS'XWHOZFPBLMJL'
p1536
S'Snapchat slmull Beauty therapist at the retreat health and beauty'
p1537
sS'YSTCYWFLENNM'
p1538
S'Staff nurse Voice of the Corran FerryI like caramel lattes and Paolo Nutini '
p1539
sS'ODOEYLAEMMCE'
p1540
S"Can be found drinking wine eating cake and pretending I'm a princess  "
p1541
sS'DDYCDTBHBTVG'
p1542
S'Linguistics and Literature student                                                                 I speak Spanish                                                                                       Pizza and beer enthusiast                                                                        Bon Iver fangirl                                                                                    Cuddle slut  Just say hi '
p1543
sS'OYYPODLKFTBK'
p1544
S'ft  and hate rude people '
p1545
sS'OSCLVSTURTZY'
p1546
S"Edinburgh Can't ski Didn't go to uni Don't have snapchat  "
p1547
sS'HWOSBNBZESJD'
p1548
S"I love adventures and people who can make me laugh I'm always up for coffeewhisky with new people Looking for friends and drinkingexplorer buddies "
p1549
sS'SMHDRLIIDNTV'
p1550
S''
p1551
sS'OIRBMAQZULSA'
p1552
S''
p1553
sS'TRYHBHADYCER'
p1554
S''
p1555
sS'XBXQHQATYSCM'
p1556
S'BarcelonaEdinburghNot a onenight stand girl materialInterests '
p1557
sS'RUQTOGHRHFAN'
p1558
g16
sS'YAJWJCDZVMLS'
p1559
g16
sS'CJZNDJBDRZVE'
p1560
S"I'm a fucking punmeister Looking for a drinking partner  someone to take me to Rotato for a jacket potato "
p1561
sS'UMRGAPTKSWUF'
p1562
S'Postgrad lover of chocolate and film addict with bad taste in pop music Add interesting quote'
p1563
sS'TFIROJDUQZMK'
p1564
S'From EdinburghJust give me a message to find out moreIgnore my interests'
p1565
sS'BFVMDCTYUESB'
p1566
S"My mum thinks I'm cool"
p1567
sS'FUBZRGZGIGXV'
p1568
S'LondonEdinburgh Studying Arabic and Persian '
p1569
sS'RWNLHTFZPRSU'
p1570
S'Starwars xbox my puppyyup'
p1571
sS'WWISVZEIVKWX'
p1572
S''
p1573
sS'CYZYVYHMCTON'
p1574
S"I AM NOT A PSYCHO'I'm  and Looking for someone who wants to drink some beers and will let me use their bath"
p1575
sS'XWFDJVODUPWN'
p1576
S'If you dinny like documentaries your no for me Soz'
p1577
sS'MCBVNRIJDARQ'
p1578
g16
sS'POIERDMOFKDV'
p1579
S"If you think you've ever made a bad decision then just remember I ran the Tough Mudder hungover"
p1580
sS'FNYAYHFAEJHK'
p1581
S'Instagram  ejfieldxDo you ever drive on the motorway and see someone fit and wish you could give them your number somehow'
p1582
sS'OJDTADBQXCQY'
p1583
S'Edinburgh Uni  Cambridge '
p1584
sS'AIFYKTIOOMVK'
p1585
S"I'm a fucking punmeister Looking for a drinking partner  someone to take me to Rotato for a jacket potato "
p1586
sS'XUFXCOIRRNQU'
p1587
g16
sS'OCUTIUORAAQV'
p1588
S'Ambitious and outgoing law student from Denmark studying at the University of Edinburgh for one semester Love singing dancing movies food and tea'
p1589
sS'CQXTOWODIQCT'
p1590
g16
sS'YSIGDPQGYCAO'
p1591
g16
sS'JMXZQTTJISXM'
p1592
S'History of Art Edinburgh '
p1593
sS'KYZGUYKWGRQC'
p1594
g16
sS'LTGERFGBGEXE'
p1595
S"Edinburgh Uni student If you don't like me at my Hive you don't deserve me at my George Street "
p1596
sS'PDZNFKEAZTYA'
p1597
S'EdinburghTattoosSnapchat hollihunterx'
p1598
sS'FWNEFFEIZQMX'
p1599
g16
sS'BQJIMBRJLGEX'
p1600
S"I'm a fucking punmeister Looking for a drinking partner  someone to take me to Rotato for a jacket potato "
p1601
sS'RGIOPDKNRLZI'
p1602
S"I'm  Studying nursing at Edinburgh  Want to know more ask "
p1603
sS'CUWFQFYTRSFR'
p1604
g16
sS'SWQARLCHIVCM'
p1605
S'th year zoology student who loves giraffes and to travelLoves dancing cocktails family nights out and nights inI love a guy who can make me laugh If you want to know more message me '
p1606
sS'KSRXIHETLUEK'
p1607
S'EdinburghSnapchat indialaingx'
p1608
sS'UITSEREHKFXD'
p1609
g16
sS'HBFDNKTRZALD'
p1610
S'Snapchat chanteelleex '
p1611
sS'FGCBEEJRJPSL'
p1612
S"I'm a fucking punmeister Looking for a drinking partner  someone to take me to Rotato for a jacket potato "
p1613
sS'GGRUYLXGCXKZ'
p1614
S'Business student living it up in the big city '
p1615
sS'QZXWPSNFBERU'
p1616
S"I'm a fucking punmeister Looking for a drinking partner  someone to take me to Rotato for a jacket potato "
p1617
sS'HLVZFVMHPBKJ'
p1618
S"I'm  Studying nursing at Edinburgh  Want to know more ask "
p1619
sS'VSNRVKWZNITV'
p1620
S"UoE Swedish bakar utmrkt kladdkaka sick dance moves with and without tequila in my systemJe parle franais je jure and  other languagesIf we match don't be shy"
p1621
sS'ZYYTDDFBFQTX'
p1622
S'EdinburghLondon'
p1623
sS'VZDPIZCTNPXB'
p1624
S"I'm a fucking punmeister Looking for a drinking partner  someone to take me to Rotato for a jacket potato "
p1625
sS'OGIBMYQAHIWU'
p1626
g16
sS'MUIZGNZXYDTD'
p1627
S'Student nurse in Edinburgh '
p1628
sS'VQGHKESRNLIT'
p1629
S'Snapchat jenniferrTattoosmm ear stretcherLed ZeppelinMotrhead Anthrax Slayer'
p1630
sS'WLEZYSBEWSAA'
p1631
S''
p1632
sS'EWFPEBDPLVQC'
p1633
S"I'm a fucking punmeister Looking for a drinking partner  someone to take me to Rotato for a jacket potato "
p1634
sS'LJNITQQFWXCU'
p1635
g16
sS'FUXEGMKDNCGN'
p1636
g16
sS'NQSBHGAUWBAS'
p1637
S'Snapchat  Shirleyo'
p1638
sS'XVRNCNOSXNEF'
p1639
g16
sS'UBPZQPGPAKLX'
p1640
S''
p1641
sS'CUQRMWQVRFKR'
p1642
S"I'm a fucking punmeister Looking for a drinking partner  someone to take me to Rotato for a jacket potato "
p1643
sS'ECKCXDMKOVQI'
p1644
S"Just a nice always smiling girl living in Edinburgh originally from Poland Looking for a chat a friend a remedy to boredomI like going out having fun singing enjoying life in general ' "
p1645
sS'SCGNDDEEMJSO'
p1646
S''
p1647
sS'HQZWRASTTVEP'
p1648
S''
p1649
sS'EFEHNTAMPXDZ'
p1650
S'Instagram chloconnollySnap chat chloecon'
p1651
sS'ESIRXROHCQIK'
p1652
S"I'm a fucking punmeister Looking for a drinking partner  someone to take me to Rotato for a jacket potato "
p1653
sS'LWAYHXYTXQOH'
p1654
S'SupportCare WorkerFifeInstagram kirstymcquade Twitter Mcquadex'
p1655
sS'HDSPIUCNMKVX'
p1656
S"I'm a fucking punmeister Looking for a drinking partner  someone to take me to Rotato for a jacket potato "
p1657
sS'OOVZOUKICBCL'
p1658
S'PhD studentVeganFeministPansexualSapiosexual'
p1659
sS'ZXQZPAWXYMJV'
p1660
g16
sS'HUPRVMROJJOB'
p1661
S'Gin dogs and good food'
p1662
sS'AHTFINVNWFJX'
p1663
S"I'm from fife In Love with family guy love playing piano  but it says  ft curvy pop up"
p1664
sS'LCWQPZXPKJGY'
p1665
S'english lit studenti like people places and thingsthe kind of girl you could take home to meet your parents until your dad inevitably leaves your mum to be with me instead '
p1666
sS'OCRNLYTZFHWR'
p1667
S'Copywriter for a digital marketing agencyLove games photography and reading in a twist that no one saw coming'
p1668
sS'MYVALEHFPXFI'
p1669
S'Av had  vodka cokes and am mwi'
p1670
sS'YJUNMDNNVVSI'
p1671
S"If you think you've ever made a bad decision then just remember I ran the Tough Mudder hungover"
p1672
sS'JFYVMAWOCOSY'
p1673
S''
p1674
sS'FCTCAACLQOHY'
p1675
g16
sS'WFLQAVIPVIEV'
p1676
S'EdinburghLondon'
p1677
sS'DEKTJMBBSAWB'
p1678
S'Kirsty Gold                                                           Scottish                                                                                                           snapchat  kirstypamela                                                                                                            My car is my baby                                              Tattooed   At college studying Professional Cookery                             '
p1679
sS'FZVKIDTUYNOX'
p1680
S' Edinburgh '
p1681
sS'EWCNREYAKWSC'
p1682
S"EdinburghLondon Let's play carpenters first we get hammered then I nail you"
p1683
sS'AQUENHLHPQTS'
p1684
S'Names Emily year abroad in Scotland from straight out of America  drink and smoke too much but still functional  hit me up if you are chill and like to have a good time   '
p1685
sS'SXAZJVLUTKIH'
p1686
S'Hey there  x'
p1687
sS'VZWROUVCMWRJ'
p1688
S'Canadian  just moved to EdinburghI just want someone who makes me laugh I make art snowboard and can do circus tricks'
p1689
sS'BNTXEPMFDZBJ'
p1690
g16
sS'KBLIDNJOVGMQ'
p1691
S''
p1692
sS'FVIYNDQOXUWM'
p1693
g16
sS'YUUTZOBANORL'
p1694
g16
sS'UWLDNRXSUXAU'
p1695
S''
p1696
sS'QQGDSLCSIEAL'
p1697
S'Edinburgh student I like cheese and tequila Sometimes together '
p1698
sS'WTJBMMFAPRKI'
p1699
S"I'm a fucking punmeister Looking for a drinking partner  someone to take me to Rotato for a jacket potato "
p1700
sS'UIGGISXLNWLY'
p1701
S"I never send x's nothing personalTry impress meHigh expectationsEither boogie hard or go home "
p1702
sS'JRYBYEPUHVNM'
p1703
S'Living in Edinburgh and living life to the full'
p1704
sS'OPWINBODTTCX'
p1705
S'GlasgowEdinburghStudying Civil Engineering at HeriotWatt '
p1706
sS'SQLYWSQVDKZE'
p1707
S'Deep spiritual philosophical conversations are my thing go with the flow seriousness definitely is not my thing lol '
p1708
sS'RXTXLDRSYJMS'
p1709
g16
sS'VKALUKDKYJHQ'
p1710
S''
p1711
sS'KHIQXTSPFHQT'
p1712
S"I'm a fucking punmeister Looking for a drinking partner  someone to take me to Rotato for a jacket potato "
p1713
sS'DZXZQLEBOEFN'
p1714
g16
sS'AJQODVINECGL'
p1715
g16
sS'KQVCKFSEFXIW'
p1716
S'Costume student at queen Margaret uni in Edinburgh Witty oneliner required for bio please leave suggestions in message form '
p1717
sS'DEDFREFBQCKD'
p1718
S'Student Edinburgh'
p1719
sS'MZAOSZPJGMTV'
p1720
S''
p1721
sS'KKKGLXRCXCDV'
p1722
g16
sS'RMQWHOAXYMGW'
p1723
S'ECA'
p1724
sS'ROCWSMTMBVLJ'
p1725
S'if i had to choose between believing in aliens and believing in love i would choose the aliens except for space i also spend a lot of time thinking about dinosaursalso im swedish'
p1726
sS'EVGSQFGPJJOS'
p1727
S"I'm new in Edinburgh and just want to meet new people "
p1728
sS'VMKYKSRLNDIU'
p1729
S' runner '
p1730
sS'AXBYCOUDJQEE'
p1731
g16
sS'ZDUURJCUUDKF'
p1732
S'Second year at Edinburgh university '
p1733
sS'XOVKBHOWPQIZ'
p1734
S"I know it says  but I'm  "
p1735
sS'WDJGYXWQSQWS'
p1736
S"I'm a kiwi who has come to work and travel in the UK  Hoping to make my way through europe   food wine traveljapan"
p1737
sS'KNPGXWCTMCMO'
p1738
g16
sS'QZRVBUBLPMCQ'
p1739
S"I love adventures and people who can make me laugh I'm always up for coffeewhisky with new people Looking for friends and drinkingexplorer buddies "
p1740
sS'POUTBCTYROVR'
p1741
S"Dont expect me to jump into your bed cause you've swiped right im a lady not a whore "
p1742
sS'JUQITCRUNURJ'
p1743
S'th year Zoologist at Edinburgh Uni A man who dares to waste one hour of time has not discovered the value of life'
p1744
sS'FGAVUEZWGPKO'
p1745
g16
sS'GHBQJAZOGSKB'
p1746
S"I'm a fucking punmeister Looking for a drinking partner  someone to take me to Rotato for a jacket potato "
p1747
sS'WNASVDUUWVHN'
p1748
S'Ig sofiaellenadolfina snap sofiadolfina floorball'
p1749
sS'KVBBJVQZIEHR'
p1750
S"I'm a fucking punmeister Looking for a drinking partner  someone to take me to Rotato for a jacket potato "
p1751
sS'AASNGQEFMFSY'
p1752
S"I'm a fucking punmeister Looking for a drinking partner  someone to take me to Rotato for a jacket potato "
p1753
sS'EFSSDUEFWFXH'
p1754
S' Edinburgh '
p1755
sS'MAJICCBWHYCE'
p1756
S'Edinburgh  Psychology StudentBartender Travelling '
p1757
sS'SYGFFTXWQECN'
p1758
S'Science graduate currently living and working in Edinburgh  '
p1759
sS'KOCMXQNQRMGB'
p1760
S"DogspeopleI'm the blonde less attractive one "
p1761
sS'YAEQFYDJEQZT'
p1762
g16
sS'HVFCESKAMVOM'
p1763
S' Half Italian Edinburgh'
p1764
sS'MCSXWMCFWMCF'
p1765
S''
p1766
sS'REQUZWWUMGQF'
p1767
S"I'm a fucking punmeister Looking for a drinking partner  someone to take me to Rotato for a jacket potato "
p1768
sS'VWQECXLIRNUK'
p1769
S"PersianGymnast I'm in the tab"
p1770
sS'MXKZFKGCMCNW'
p1771
S'Instagram kirstinsands'
p1772
sS'FIXYKUTHFIBU'
p1773
S'Am kidding '
p1774
sS'POOFDLMBYPGI'
p1775
S''
p1776
sS'BLMWWVIXSDQN'
p1777
S"LondonEdinburghSocial anthropology student Be nice Be fun Be friendly Don't be boring "
p1778
sS'DWQPCUSOVOPD'
p1779
S"I'm a fucking punmeister Looking for a drinking partner  someone to take me to Rotato for a jacket potato "
p1780
sS'EWYHWUPNXQYN'
p1781
g16
sS'SBLFWUDTZLRL'
p1782
S'You are now about to witness the power of street knowledge '
p1783
sS'ZLWVUAOVBBZP'
p1784
S"I'm really fun honest I like holidays elephants crisps and wine "
p1785
sS'CLDQSOWOPLMV'
p1786
S"I'm a fucking punmeister Looking for a drinking partner  someone to take me to Rotato for a jacket potato "
p1787
sS'WGBPWTQODERD'
p1788
S'probs taller than your fridge musically enthused DAMN THE MAN SAVE THE EMPIRE'
p1789
sS'VWZYZBBEGAUQ'
p1790
g16
sS'IEZHPABUEFCU'
p1791
S'apprentice mechanical fitter                     dunfermline'
p1792
sS'WVIIWRRPJZFB'
p1793
S'A simple hello could lead to a million things'
p1794
sS'IWTFPQXEYEAT'
p1795
S"' string bean studying at Edinburgh College of ArtWill usually be found dancing around to music covered in glitter "
p1796
sS'GICMCTXDJFQZ'
p1797
S"' string bean studying at Edinburgh College of ArtWill usually be found dancing around to music covered in glitter "
p1798
sS'VRDQNFAWDYBE'
p1799
S'Nikki Dennyfalkirk Love my daughter SingleSnapchat nikkkid '
p1800
sS'YSYVBZYTFLXM'
p1801
S''
p1802
sS'UQJJWWLGEHTB'
p1803
S'Live in Edinburgh studying drama                                     Snapchat  leahmac'
p1804
sS'HBVVGPKIIMPM'
p1805
S''
p1806
sS'YTZDYWEAUSFY'
p1807
S"I'm a fucking punmeister Looking for a drinking partner  someone to take me to Rotato for a jacket potato "
p1808
sS'MYUMRJYZIYGC'
p1809
S"I'm a fucking punmeister Looking for a drinking partner  someone to take me to Rotato for a jacket potato "
p1810
sS'WZPFMBJRRVBS'
p1811
S' Scottish Snapchat AmandaGrayx'
p1812
sS'PUIHTLNOHKCT'
p1813
g16
sS'FLOIAXUOOCFM'
p1814
S'what is haaaappeninFrom Northern Ireland  living in Edinburgh'
p1815
sS'OUTBZDUGFCCZ'
p1816
g16
sS'RYXOXEKIPMAS'
p1817
S'Leeds  EdinburghBiological sciences studentMeat free I like travelling n being in the sea '
p1818
sS'HVSVKVSPBPNA'
p1819
S'BelfastDundee  Law with German  RowerLifeguard '
p1820
sS'UGWKEULWXVXU'
p1821
S'Snapchat xAshleySmithx                               Excitement  adventure '
p1822
sS'TQSRWWTBGNFH'
p1823
S'Yvonne tes bonneUSA to UK '
p1824
sS'VNVUFVEFLOFM'
p1825
S'Edinburgh uniBusiness studentPart time receptionist Love sports and trying new things '
p1826
sS'BPKILUFWMSOJ'
p1827
g16
sS'HUVIDOCFKPZE'
p1828
S"I'm a fucking punmeister Looking for a drinking partner  someone to take me to Rotato for a jacket potato "
p1829
sS'RPKRWZGJOIZN'
p1830
S'From BarbadosStudying brewing  distilling at HeriotWatt university '
p1831
sS'CULKSYACLBDE'
p1832
g16
sS'JOMMUIRTTBRG'
p1833
S'Snap chat lisamclarenx'
p1834
sS'DFTFCKBWOGDY'
p1835
S"I'm interested in girls and boys as I'm bi "
p1836
sS'PWLHIHRXMBIX'
p1837
S'Irish studying in QMU EdinburghHi or hey will guarantee reluctance to reply Instagram  ciaramurray'
p1838
sS'NXSXSKHQQITF'
p1839
S' NCL Edinburgh Biology student bartender keen traveller dog lover '
p1840
sS'JOIIHGJYSBXI'
p1841
S'Hayley Marie Campbell Snapchathayleymarie '
p1842
sS'UQLWTEBNTZZJ'
p1843
g16
sS'VOVAXRXJVFPZ'
p1844
S"Hey I'm Lauren nice to meet ya"
p1845
sS'RHAVUCLTHXNR'
p1846
S'Snap chat nicolapicola'
p1847
sS'UJYOZPDJSDJY'
p1848
g16
sS'KZBQCQXWXMRG'
p1849
g16
sS'HQPTOVUQJKNY'
p1850
g16
sS'RHPPIICRGMQD'
p1851
S"Law student at Northumbria UniI do not have snapchat so there's no point in askingIf you're gonna be a dick don't swipe right pretty please I'm not the type of girl to get offended if you don't add x at the end of every messageI will not message you first you're the guyRunning swimming and skiingI love to travelCats are cute "
p1852
sS'VQUFEZAISVAJ'
p1853
S' Edinburgh Engineering Northern Irish Pop punk Action films Marvel Can be funny sometimes Definitely interested if you have a catWant to learn to play drums help a gal out '
p1854
sS'JQXCVEHJLOZC'
p1855
S"I'm a fucking punmeister Looking for a drinking partner  someone to take me to Rotato for a jacket potato "
p1856
sS'LVBAAGBLFQXT'
p1857
g16
sS'WBJXLMKCAVUY'
p1858
S"Love the life you live  from Edinburgh Love tattoos and piercings Anything you want to know just ask Snapchat meganmclayDon't be afraid to message me first "
p1859
sS'GTQAWFYXHPBI'
p1860
S'Say something interestingSnapchat  char'
p1861
sS'OTQNJJOAFFQH'
p1862
g16
sS'YDRXBURCSALG'
p1863
S' interested in human rights law and studying at UoE '
p1864
sS'FXOPJVWDKSCI'
p1865
S''
p1866
sS'BFWHWBLCXUTI'
p1867
g16
sS'OYKVLEWONION'
p1868
g16
sS'NKLSXZHJQEQN'
p1869
S'BCUWelsh '
p1870
sS'ARTBZOPAJFEA'
p1871
S"Drama and Performance student at QMU I dream of having a pug one day Its the main goal in my life really The way to my heart is food literally any food and i'll be happy Twitter  Instagram sarahlbrownx"
p1872
sS'VFWUQRJNZMNR'
p1873
S' I love cooking reggae and rock climbing but most of all I just really love pie'
p1874
sS'IAVYGLDMWETO'
p1875
S' I love cooking reggae and rock climbing but most of all I just really love pie'
p1876
sS'BMVEQFWRIWJI'
p1877
S'Half MalaysianHalf Scottish '
p1878
sS'PZYCZEWDTICE'
p1879
S'Norwegian   Student '
p1880
sS'FTGHRSIWCCAR'
p1881
g16
sS'BBHSRNUXCKCX'
p1882
S'I like long romantic walks to the bar'
p1883
sS'RVCDKBTTWDRP'
p1884
S'Snapchat  libsnedxInstagram  libsnedTwitter  libsned'
p1885
sS'GSUDEIXZPIHR'
p1886
S'Snapchat sharastevens '
p1887
sS'MPGVQPVTALRH'
p1888
g16
sS'IYCJAZLNMBFE'
p1889
g16
sS'WMOMRAAPCEND'
p1890
S"Hi i'm Elley  studying costume design at ECA "
p1891
sS'OGUPQINUQLZF'
p1892
S'I enjoy a nicely packed bowl placed on top of a bong Plainfield IL USA Let me be your American sweetheart Edinburgh for the next  weeks Lots to see drink smoke and explore here '
p1893
sS'MCPXKMYUGJIB'
p1894
g16
sS'OEWEFNKQIOJW'
p1895
S'Edinburgh chick'
p1896
sS'FJKSNGZPNITY'
p1897
S'Currently studenting in edinburgh '
p1898
sS'JWWWAGEOTVML'
p1899
g16
sS'FZLEKSYDBODE'
p1900
S'Snapchat  caznelly'
p1901
sS'XNWKSXLYBWDP'
p1902
S"I like to work out music and comedy I'm also a PhD student in architectural history Good cook like beer and hate girly drinks No hookups "
p1903
sS'SLILPMKDYMQW'
p1904
S''
p1905
sS'WXOAEZYAHGHJ'
p1906
S'If your looking for a girly girl thats really into cheeky sunbeds and cheeky nandos or pretty much cheeky anything then you should swipe left Want to ask anything else swipe right and hope for the best  snapchat  mulladyalso im  not '
p1907
sS'SOTUQIAXWWPN'
p1908
S"PersianGymnast I'm in the tab"
p1909
sS'KAMYBOEVDIVQ'
p1910
S'Northern Ireland Edinburgh Napier Skiing Hockey Travelling  '
p1911
sS'UBCZPJKFGWZI'
p1912
g16
sS'JQGWFCNYADRA'
p1913
S''
p1914
sS'RMGGOTLHNUWO'
p1915
g16
sS'EBXITBUBUTPE'
p1916
S'From northern England Sunderland Student in Edinburgh'
p1917
sS'PNGPNKIPDWPV'
p1918
S'Edinburgh'
p1919
sS'DROCUMMJGXWA'
p1920
S'Snapchattaelorsmith  '
p1921
sS'CZQVFAGPJZYU'
p1922
S'Sport and exercise student Stirling uni '
p1923
sS'TAUIWSPNVGHG'
p1924
S"I'm a fucking punmeister Looking for a drinking partner  someone to take me to Rotato for a jacket potato "
p1925
sS'FUORFXZOPHJJ'
p1926
S''
p1927
sS'NRLVVOTDPOVX'
p1928
g16
sS'WLYADGKHVQMP'
p1929
g16
sS'GACLGZUNTCWK'
p1930
g16
sS'WVIQSDKPDTFU'
p1931
S'French student  Internship in Edinburgh for  months'
p1932
sS'XRQTUCAOONZD'
p1933
S"Socialist and feminist Love the arts mostly music Oh should mention that I'm looking for friends so no funny bussiness "
p1934
sS'YNDXDJAPEEHL'
p1935
S''
p1936
sS'UBIQAUEDDGOA'
p1937
S''
p1938
sS'QXIOJQRODJKH'
p1939
S'UoESailing singing drinking socialising etc '
p1940
sS'ZQJJXFYGAVRL'
p1941
g16
sS'CUPJUCKUXZTK'
p1942
S"Just want to travel Don't message first but will reply xYes I do have snapchat so just ask "
p1943
sS'VJXADKCVCEJK'
p1944
S'From Edinburgh Instagram megaandrydenn '
p1945
sS'AYPXXHFWKPOU'
p1946
S'Twitter nikitaw Snapchat nikxoInstagram nikitawiseman'
p1947
sS'ZVRKEEXTZPRE'
p1948
S'English language student at Edinburgh Uni Like music and books and cooking and getting drunk'
p1949
sS'LGDQUNEKPRIM'
p1950
S'EdinburghMy hobbies include Netflix  Chill minesweeping drinks in George Street nightclubs and taking romantic walks with you to the cash machine'
p1951
sS'OJIHTSDYTQXD'
p1952
S"I'm a fucking punmeister Looking for a drinking partner  someone to take me to Rotato for a jacket potato "
p1953
sS'NXBLVINXTYBF'
p1954
g16
sS'RSNCRTIVDAYB'
p1955
S'History student at Edinburgh University  '
p1956
sS'EFLIKEGJKXQS'
p1957
S'From Edinburgh  Snapchat ashleighx'
p1958
sS'HUAOIMAKZSBH'
p1959
S''
p1960
sS'PUHSIMCURDZB'
p1961
g16
sS'DMEJGFZYQHIB'
p1962
S' '
p1963
sS'WWQORHNDXVYL'
p1964
S'Edinburgh Midwifery student '
p1965
sS'ZMFSROIPZNWD'
p1966
S'Final year student from nireland '
p1967
sS'EKWAERLRYWEN'
p1968
g16
sS'TVVKVYINOZBZ'
p1969
g16
sS'WAIEHYKEDVAC'
p1970
g16
sS'BEZBNJPELPRN'
p1971
S'here to laugh at peanut headsI uninstall this often so soz'
p1972
sS'QRXEKOFCEPON'
p1973
S'Studying at UCL for a bit'
p1974
sS'XVYFFKISWKWU'
p1975
S''
p1976
sS'MCACWWTJMALC'
p1977
g16
sS'CXVMMBWAKHPK'
p1978
S'Art student in Edinburgh'
p1979
sS'QFZWIYCNADSL'
p1980
S''
p1981
sS'UFHISUHSAEBI'
p1982
g16
sS'MNGRUAWFDSZM'
p1983
S''
p1984
sS'THOFTPJDJDIE'
p1985
g16
sS'UCQRAVFCYIBO'
p1986
S"I'm in love with David Attenborough "
p1987
sS'KMQCZIHJKHMZ'
p1988
g16
sS'ITGNIVAQPQSS'
p1989
g16
sS'VZNZLEZJWHUT'
p1990
S'Taylor ParisCool Cool cool cool insta  taylorparis'
p1991
sS'TTJSZPZERXIX'
p1992
S"I'm a fucking punmeister Looking for a drinking partner  someone to take me to Rotato for a jacket potato "
p1993
sS'VCYNVTHXFVVV'
p1994
S''
p1995
sS'JOOAANFYHWHA'
p1996
S"I'm in love with David Attenborough "
p1997
sS'WJDVPWKBBQAX'
p1998
S'ft HR Coordinator studying my degree parttime while working fulltimelove prosecco far too much aw and if your a guy who pouts in photos bolt xxxx'
p1999
sS'SEBGNIJVPWOU'
p2000
S'psychology student at edinburgh uni bios are shit so just come chat to me ae '
p2001
sS'YQPUGNKMGAWI'
p2002
S'I study psychology at the University of Edinburgh and I like skiing and hiking Also enjoy reading pretty much anything scifi and too many tv series'
p2003
sS'FZTFQKSPRHCL'
p2004
S'I am a vet nurse staying in Edinburgh Animals are better than people '
p2005
sS'WAWAVANSLUSC'
p2006
S''
p2007
sS'OJTWSNBLJJSW'
p2008
S'HK in Edinburgh '
p2009
sS'GWECCFQFRIXH'
p2010
g16
sS'TOCZYYIZIWBD'
p2011
S"I'm counting on your standards being lower than mineStudying Marketing at uni in Edinburgh but still no idea what I want to do in life Instagram  caitlinmjordanTwitter  muppetkay "
p2012
sS'DLQOVGRKUOPX'
p2013
g16
sS'DNEFYTWEEPSR'
p2014
S"I'm a fucking punmeister Looking for a drinking partner  someone to take me to Rotato for a jacket potato "
p2015
sS'MVLZXDAJYEXZ'
p2016
S"your bloody mary's lacking in tabasco "
p2017
sS'EHPPRRNEUXCM'
p2018
S'Snapchat  rach '
p2019
sS'RWOZDYIUQAAS'
p2020
S"I'm a fucking punmeister Looking for a drinking partner  someone to take me to Rotato for a jacket potato "
p2021
sS'UXKCSDYTIYAV'
p2022
S'Basel BrusselsI vibe Insta eleanorroseshortland'
p2023
sS'TIQEIIUPVNHX'
p2024
g16
sS'VEACMEQTOHKO'
p2025
S"I'm a fucking punmeister Looking for a drinking partner  someone to take me to Rotato for a jacket potato "
p2026
sS'SEEZBEYMGZYT'
p2027
g16
sS'ZHGCFIEKURZA'
p2028
S'Edinburgh The less you reveal the more people wonder Insta gbrutherford'
p2029
sS'LKTRCCVRXITA'
p2030
S"Stirling Uni  If you are reading this I am metaphorically smiling at you  Go smile at someone else now  it will make their day  I love Marvel films Let's build a pillow fort "
p2031
sS'PDIEMFZQRUGZ'
p2032
g16
sS'SYOTCVEVSROI'
p2033
S'BCUWelsh '
p2034
sS'KUEAHHIFWXAD'
p2035
S'I cry at John Lewis adverts '
p2036
sS'QZUDYAYUXXLT'
p2037
S''
p2038
sS'HWCXNOWCVVHU'
p2039
S'snapchat kirstenwindever'
p2040
sS'POYDJEEPIIVH'
p2041
S"philosophy student at UoE avid jazz n folk loverif you don't like cats or cakes swipe left now "
p2042
sS'CQKLENZWBIXG'
p2043
g16
sS'RSZRMJLXAATI'
p2044
S"Tinder c'est mon dada "
p2045
sS'ZTNVFVMAMZXU'
p2046
S"It's unfair that breakfast in bed is romantic but dinner in bed is a cry for help"
p2047
sS'XIQQVTIUIPHM'
p2048
S"DerryEdinburgh Love having a bitta craic can be pretty sarcastic at times I reckon I'm pretty friendly though modest too so feel free to send me a wee message "
p2049
sS'MTVEJQPLIJFA'
p2050
S"Canadian gal who moved from the family igloo to haggis land I like binge watching breaking bad in bed being nocturnal camping the ocean rainy days hot drinks indie music and naps Let's get together throw a Catalina wine mixer and do activities Also I can name all  original Pokemon If that doesn't impress you I don't know what will Ps If you have a beard I will love u eva I'm so alone"
p2051
sS'SYPAXBJZWPJH'
p2052
S'A ridiculously sarcastic midget that loves beards '
p2053
sS'MDDFYGSJBUQY'
p2054
S"' English Lit student at UoE"
p2055
sS'WKLPJMSOZELL'
p2056
g16
sS'NVFAFHKZQBPN'
p2057
S'Instagram  laaaurensmith'
p2058
sS'XHOERGINMKRI'
p2059
g16
sS'KHJSZIRLHVFI'
p2060
g16
sS'PAZCMEAISGYN'
p2061
g16
sS'TETAYRIPRFTK'
p2062
S"Just moved back to Edinburgh after being in Florida for  years Please don't swipe right unless you actually want a conversation I like honest dominant men who are protective Nice feet and hairy chests too "
p2063
sS'EFBRSMOPFJUQ'
p2064
S'Just Gin and bear it  DStudentEvents management  Not afraid to say hi first Genuinely nice '
p2065
sS'RPCJKABCWGQT'
p2066
S'NewcastleEdinburgh '
p2067
sS'FHYEJDQKSLHL'
p2068
S'Forresedinburgh Criminology at Napier '
p2069
sS'DUEUIRXWSFEY'
p2070
S"I'm a fucking punmeister Looking for a drinking partner  someone to take me to Rotato for a jacket potato "
p2071
sS'YQIRNLBVNSSK'
p2072
S'Half MalaysianHalf Scottish '
p2073
sS'MGAKXWIYNMNC'
p2074
S"Just want to travel Don't message first but will reply xYes I do have snapchat so just ask "
p2075
sS'RLMEJCEKGZDH'
p2076
S'Love Toy Story and a good pair of socks '
p2077
sS'AHHKIWVZPTEL'
p2078
g16
sS'IELTDMEWAHEV'
p2079
g16
sS'UCGWXRVFOVZO'
p2080
S"I'm a fucking punmeister Looking for a drinking partner  someone to take me to Rotato for a jacket potato "
p2081
sS'ADXEIYSKAMOA'
p2082
S"Doing a Masters degree at St Andrews but if I had my way I'd probably still be chasing cows round the Australian outback From Devon a country girl at heart  "
p2083
sS'JGHNQWDUXDJO'
p2084
g16
sS'BRVASRUNLYZK'
p2085
S"I'm a daydreamer and a nightthinker aka I go to bed at about am most nightsnd year theatre and film student  big tea lover and Christmas obsessedI'm not the kinda girl you will meet in a club I like hanging out in my flat or going out to a pub with my friends Slytherin and proud  I write scripts in my free time and I spend a lot of time with my friends who are all massive geeksnerds what ever you call them who I mum  but they keep me laughing which I love  "
p2086
sS'DHIKHSWTAPJI'
p2087
S"I'm a fucking punmeister Looking for a drinking partner  someone to take me to Rotato for a jacket potato "
p2088
sS'RMCBOPHPCQGX'
p2089
S''
p2090
sS'JBJBHFKXTIFZ'
p2091
S"I'm a fucking punmeister Looking for a drinking partner  someone to take me to Rotato for a jacket potato "
p2092
sS'RJBRORLNSJWE'
p2093
S"HND Acting and performing studentI like guys in bands and I've got a thing for drummers"
p2094
sS'MOBNEWNOOJYQ'
p2095
S'A simple hello could lead to a million things'
p2096
sS'UORYNHVWDAYL'
p2097
S'  Irish   Radiography student at QMU '
p2098
sS'FCUJBNMALNVH'
p2099
S"I'm a fucking punmeister Looking for a drinking partner  someone to take me to Rotato for a jacket potato "
p2100
sS'QGGCBWHPDNEL'
p2101
S'Events Management  QMUSnapchat  alyssahall'
p2102
sS'IZADRLANHZTA'
p2103
S"I'm really fun honest I like holidays elephants crisps and wine "
p2104
sS'ICXLGVNZJQDL'
p2105
g16
sS'TFEBVKEAZEGS'
p2106
S' Full time carer from Glenrothes '
p2107
sS'WKRWIWTIBLYA'
p2108
g16
sS'WRXCVWPKGDSH'
p2109
S''
p2110
sS'PUVELXFLFENV'
p2111
S'Accounting student at Herriot Watt '
p2112
sS'BNCBDRQPVGVD'
p2113
S'I love footballgym i work as a hairdresser and accountant '
p2114
sS'SYAEINQDTQZT'
p2115
S'From EdinburghJust give me a message to find out moreIgnore my interests'
p2116
sS'XNHTRINKFFNM'
p2117
S'Live in Edinburgh and work for the farm assurance office Go to young farmers and have had ponies since I was a toddler'
p2118
sS'DQFNXJLFJOGU'
p2119
g16
sS'ZRYOBAEPFYKQ'
p2120
S"I literally love talking to people So anyone up for a chat please feel free to drop a message Can always hold a good conversation I'm the one in the middle Snapchat  dannlouu"
p2121
sS'UZPLTJVDCFME'
p2122
S"I don't do Netflix and chill "
p2123
sS'UAGNEROCRGXV'
p2124
S"I'm a fucking punmeister Looking for a drinking partner  someone to take me to Rotato for a jacket potato "
p2125
sS'XTRJSFIOYZPO'
p2126
S''
p2127
sS'ARWXDWBVAJVI'
p2128
S''
p2129
sS'FMXIZUGGMTZH'
p2130
g16
sS'OYABCBPRFVQF'
p2131
S'Spent my summer living in Spain'
p2132
sS'LRNKVVFIUHGC'
p2133
S''
p2134
sS'WYUQVJETUYAE'
p2135
S"I'm interested in girls and boys as I'm bi "
p2136
sS'WIDGEUJESJIA'
p2137
S''
p2138
sS'WYDEGOQAHKGA'
p2139
g16
sS'DHNKHEIQLKNL'
p2140
S' not West Lothian Snapchat colekeenanxoInstagram nicolekeenanx'
p2141
sS'UULKZSTWITPZ'
p2142
S''
p2143
sS'MIGFEUACTFHQ'
p2144
S"I'm  not Green eyesftFifeSnapchatweegill "
p2145
sS'TWAPHBMDTMJY'
p2146
S"Stirling Uni  If you are reading this I am metaphorically smiling at you  Go smile at someone else now  it will make their day  I love Marvel films Let's build a pillow fort "
p2147
sS'RJKPNBIOBWLJ'
p2148
g16
sS'VOWTSBJPJGOA'
p2149
S'If you like water you already like  of me EdinburghSnapchat hazbazx '
p2150
sS'OHZBSZPJBHLD'
p2151
S'Edinburgh Instagram katiehmferguson '
p2152
sS'JNSNNFBEWIXL'
p2153
g16
sS'JIGZSAEBYMPX'
p2154
S' Half Italian Edinburgh'
p2155
sS'MPEHLLXVOOLA'
p2156
S'UoE Economics '
p2157
sS'USDVIZZXZNQN'
p2158
g16
sS'WEAQCETWCFQQ'
p2159
S"I'm a fucking punmeister Looking for a drinking partner  someone to take me to Rotato for a jacket potato "
p2160
sS'PZKSFAXCCJYB'
p2161
S"I'm studying chemical engineering at Edinburgh I like to communicate using sounds rather than words sometimes"
p2162
sS'WKQZMKZNMQCA'
p2163
S'Social work student at Glasgow Caledonian uni '
p2164
sS'DVZJNAEMALYW'
p2165
S'Love new adventure  road trips Love traveling If we match message me Facebook httpsmfacebookcomNicoleeeeee'
p2166
sS'PFMZJESNMOTB'
p2167
S'Living and studying in Edinburgh '
p2168
sS'VNAPMRCWUJKP'
p2169
S"I'm a fucking punmeister Looking for a drinking partner  someone to take me to Rotato for a jacket potato "
p2170
sS'ILWOTFCWCJZN'
p2171
S'German Lives in Singapore moving to Edinburgh Hit me up '
p2172
sS'LUZUSEAKHSPU'
p2173
S" year old student nurseLife ambitions are to cuddle a baby panda and visit the moonSleeping is my favourite hobbyA good cup of tea solves everything Just going to put it out there I'm not a movie geek too much sports scares me and I have no great desire to travel Men shouldn't wear bobbles in their hair I'm  addicted to tinder there ah said it "
p2174
sS'LRGWTWAMKYPV'
p2175
S' '
p2176
sS'VZNMHFCLXSUN'
p2177
g16
sS'WIHEYXQMZLNV'
p2178
g16
sS'ZTXQYAULXNMU'
p2179
S'Gym  Dance  Cook  Bake  Love  Travel  Be crazy  Be happyPeople should smile more Personal Trainer Student'
p2180
sS'HXFKUKVDYCHI'
p2181
g16
sS'UFSQFURHOZPR'
p2182
S'hopefully be a student by January year old son '
p2183
sS'IWBOHYHCWABS'
p2184
S''
p2185
sS'GKSDEPUKHPPN'
p2186
S" from Bo'nessHaving  tattoos  counting "
p2187
sS'ALWYTHKHZCTY'
p2188
g16
sS'OAXOMMANXDNB'
p2189
S'Just looking for peeps to chill and watch movies with '
p2190
sS'MXIDWJNBTRGU'
p2191
S"I'm a fucking punmeister Looking for a drinking partner  someone to take me to Rotato for a jacket potato "
p2192
sS'WVHDAVCSIXQB'
p2193
g16
sS'BWCBOKSUPSOI'
p2194
S'Welsh girl usually based in Edinburgh work in marketing gym promotions constantly travelling Work between US and UK'
p2195
sS'XOXIIPGQUXYJ'
p2196
S'From the Scottish hills working in costume for film and tv'
p2197
sS'ZAPYXQANNHXM'
p2198
g16
sS'RQKDFFEWSNAL'
p2199
g16
sS'DVYZOTYBEHBD'
p2200
S''
p2201
sS'CERVYVIIKJVC'
p2202
g16
sS'EBIXCCBPLMRD'
p2203
g16
sS'LJYZENCQUNCD'
p2204
S'If you like water you already like  of me EdinburghSnapchat hazbazx '
p2205
sS'WWSAXWGJZDMX'
p2206
S'st year University of Edinburgh  London gal'
p2207
sS'IWUPCPXEJZNX'
p2208
S"I'm the blonde with glasses in the photo and in the other that's about the only time I look that cute when I'm sleeping lol"
p2209
sS'ZHVWFAXLFPGX'
p2210
S'Apprentice Electrician'
p2211
sS'KCITTLMNWDAO'
p2212
S'Student  Cheerleader  My favourite things are Ice Hockey and Event Planning Twitter  JenIsabellaxx'
p2213
sS'NAWSIXAGSPWU'
p2214
S'Snapchat jadeboydxo'
p2215
sS'RVKIFYLOHARQ'
p2216
S'edinburgh uni student tottenham hotspur fan dog personi like good grammar and cheesey chatup lines'
p2217
sS'BKQQUFUIMZJO'
p2218
S"I'm a fucking punmeister Looking for a drinking partner  someone to take me to Rotato for a jacket potato "
p2219
sS'DIAGMOIRSQNO'
p2220
g16
sS'JBOYUNQHMMMG'
p2221
g16
sS'MIBKMECKDLIT'
p2222
S"Ideally looking for someone to make new memories with  chat friendship or maybe even moreSomething about meLoves outdoors exploring to read having a giggle snuggles history Not really sure what to make of Tinder Please say more than hi how are you As hello and I'm doing fine"
p2223
sS'BPZJGMIMZKZP'
p2224
S'Got a baby girl '
p2225
sS'CTZHUCHFJDHB'
p2226
S''
p2227
sS'WEUNIPZSFMGJ'
p2228
S'ft  and hate rude people '
p2229
sS'RYZKJGPUDWOQ'
p2230
S"Just seeing what happens Straight forward girl to get along with Trying to find the balance between talking first and the guy thinking nice the girl chats first or a guy that thinks oh she's too eager "
p2231
sS'LFWEBALHWOZH'
p2232
S"I'm a fucking punmeister Looking for a drinking partner  someone to take me to Rotato for a jacket potato "
p2233
sS'JKCMXGLGVACQ'
p2234
g16
sS'LJCAMKQRDVJC'
p2235
g16
sS'JYFZIHXCMAGI'
p2236
S''
p2237
sS'ODEQIJQEVVXV'
p2238
S'Indian classical dancer who gets Marx'
p2239
sS'YRYJDIODFRMC'
p2240
S'E D I N B U R G HSnapchat jessmcgovernx'
p2241
sS'UVFIEAVRSAUM'
p2242
S'From EdinburghTechnical Theatre student in GlasgowEasy going and cheery but apparently  can be to honest for my own good sometimes'
p2243
sS'NJPDPMTAWCQB'
p2244
S'LivingstonEdinburghCurrently studying at Edinburgh College then hopefully off to Aberdeen Music television photography art travelling football  rugby sleeping writing  hope to one day live in Oz or the USA Add me on Snapchat if you want  krisberridgexo'
p2245
sS'MBZEPKXQFNTF'
p2246
S"Katie  Born and bread in North Yorkshire  I'm studying Anthropology at The University of Edinburgh I love music more than anything I drink a lot of tequila I am also a vegetarian  "
p2247
sS'KUVOPDENMKPW'
p2248
S'LOVE LIFELife isnt about waiting for the storm to pass its about learning to dance in the rain'
p2249
sS'KJTGOKNXWHTS'
p2250
S'German studying in the Netherlands on exchange in the UK'
p2251
sS'AYJNUTTDZDSG'
p2252
g16
sS'YRKSLJJKDJTI'
p2253
g16
sS'VVZGFINARMXG'
p2254
S'Edinburgh Uni  PE'
p2255
sS'AHRJESQNLPWF'
p2256
S'Instagram  eloiseevans '
p2257
sS'TVCJBKRELGAT'
p2258
S'Working full time No kids and I drive so no need for a chauffeur also the braces are gone now '
p2259
sS'FEPTNBTJADSP'
p2260
S"First year Nursing student at Edinburgh Uni I can't make you better if you get ill but I will do a stellar job of washing my hands"
p2261
sS'XQTHGDROJIPE'
p2262
S''
p2263
sS'ERISTXBVKQTF'
p2264
g16
sS'ILYCHIAEEMCB'
p2265
g16
sS'YJUNBZUVKCST'
p2266
g16
sS'IDTOBQGXQNVG'
p2267
S'  Voluptuous fat  lazy recovering netflix junkie with an offensive sense of humour I like people I can laugh with my very existence is a joke I like gay barsDont tend to message first im shy like that PSnapchat bitchitsyasmine'
p2268
sS'MXSRCBGHULNG'
p2269
g16
sS'GEGCMTOFRFWD'
p2270
S"I'm a fucking punmeister Looking for a drinking partner  someone to take me to Rotato for a jacket potato "
p2271
sS'NOKDWHRPNTEU'
p2272
S"There are four important things that you need to know about me I enjoy binge watching series or ridiculous documentaries until I bleed from the eyes and ruining my life in general I regularly wash my hair with shower gel by accident and lastly I could probably fire through a pizza or majority of food items for that matter in  seconds flat Hope you're impressedGrandSnapchat leonnabrownGo on brighten my life up a bit "
p2273
sS'DSTSSNPEWPNF'
p2274
S'studying art at college xox'
p2275
sS'HTBLSDRCMBUH'
p2276
S'Currently studenting in edinburgh '
p2277
sS'GMSANORAVJGD'
p2278
S'Illustration student at Edinburg uni'
p2279
sS'LWJMMMIPOCMA'
p2280
S'Music books traveling shitty s films '
p2281
sS'TSZBSNTUAXQI'
p2282
S'Edinburgh Uni  PE'
p2283
sS'XZKSFFLHIAFJ'
p2284
S'LondonEdinburgh Part time barmaid full time female UoE ArabicFrench'
p2285
sS'XIJPDPOGDEVM'
p2286
g16
sS'SWYKADSPWIKE'
p2287
S'French Just looking for a funny or interesting chat Maybe more according to the chat'
p2288
sS'TPJYWYLZNWQN'
p2289
S'Fife boxerfitness fanatic Instagram justinewaterston'
p2290
sS'XHNCIAUBLZBF'
p2291
S''
p2292
sS'KLCOSMKIBFYP'
p2293
g16
sS'ANVRRWVNTMRZ'
p2294
S"If I had a pound for every time someone asked me if my hair was naturally ginger I'd have nothing No one talks to me "
p2295
sS'QUDGAATJWZNC'
p2296
g16
sS'VBWPICUMCEZI'
p2297
S"I'm a fucking punmeister Looking for a drinking partner  someone to take me to Rotato for a jacket potato "
p2298
sS'LCDPVVIPSZAA'
p2299
S''
p2300
sS'VSNARKBCSTAJ'
p2301
S'Edinburgh student I like cheese and tequila Sometimes together '
p2302
sS'RQVJKCSZFYII'
p2303
S''
p2304
sS'SUMDIOUQGJQH'
p2305
S"I'm a fucking punmeister Looking for a drinking partner  someone to take me to Rotato for a jacket potato "
p2306
sS'WFHNYVPXIKXZ'
p2307
S'tattoos  piercingscatsTaylor Swift is God'
p2308
sS'MCKPVFIFDDON'
p2309
S"They call me gillette coz am the best a man can get Also I'll cut you I have tina turners name and date of birth tattood on me just coz I can dinny like her swipe left n dae us all a favour Kirlcaldy  instagram heatherritchieo"
p2310
sS'YZNZXBEUVFUM'
p2311
S'Snapchat  wilsonAmiee Instagramamieewilson'
p2312
sS'WJRXKKFWEGVD'
p2313
S'Nurse graduate RAF applicant Gym running kayaking Gin gin and more gin '
p2314
sS'IHESIHOAFGGF'
p2315
S'Events management student music lover and Disney enthusiast Living in the moment '
p2316
sS'IJYPNJECMJET'
p2317
S"I'm a fucking punmeister Looking for a drinking partner  someone to take me to Rotato for a jacket potato "
p2318
sS'CRMGPDNYEGDB'
p2319
S''
p2320
sS'THOAYGSOZDGI'
p2321
S'Twitter amymcfInstagram amymcfarlane'
p2322
sS'XFYVNGULFVTC'
p2323
S'emmy milneadd my instagram  emsmilne x x'
p2324
sS'TOHDWPVZKTOI'
p2325
g16
sS'JBETIJQHGSZD'
p2326
S'Date scenario take you out to laser tag proceed to be amazing win Celebratory drinks and bragging ruin all chances of second date Work hard sleep hard '
p2327
sS'WYBMCHHJDSSW'
p2328
S' '
p2329
sS'JYNYIBXOSUTI'
p2330
S'Snapchat stephrobertsoon '
p2331
sS'OOZEMQJUFILV'
p2332
g16
sS'ERUTGGSEIJBA'
p2333
S'German Lives in Singapore moving to Edinburgh Hit me up '
p2334
sS'YERKVEFXJCCB'
p2335
S'probs taller than your fridge musically enthused DAMN THE MAN SAVE THE EMPIRE'
p2336
sS'AZUHPSNUHTAS'
p2337
S' University of Edinburgh for the year getting my MSc '
p2338
sS'XTEASPEOEORA'
p2339
S"Music  Mixtapes  Vibing  National Geographic  Landscapes  Tea  Morning Flavoured Lattes  Muffins  Netflix  Cinema  Yoga  ' "
p2340
sS'XHJSOGKYJVEZ'
p2341
S'photography student from fifequeen of shite chat up lines lover of gin and cheap wine need a man to get extremely drunk with me all the time '
p2342
sS'BORTXROGGMFL'
p2343
S"I'm like a lightbulb I light up the room when you turn me on and if you stand on me you'll end up in hospital"
p2344
sS'TBJKMUDXXHFW'
p2345
S'Illustration student at Edinburg uni'
p2346
sS'IIUDPJGVFVMB'
p2347
S'From italy Love photography Traveler '
p2348
sS'DEGXKNNJYRXP'
p2349
S"I literally love talking to people So anyone up for a chat please feel free to drop a message Can always hold a good conversation I'm the one in the middle Snapchat  dannlouu"
p2350
sS'FVIHHTBSZQVH'
p2351
g16
sS'RDWRYEMBUIQU'
p2352
g16
sS'TBHXILINUXMR'
p2353
g16
sS'SANWPZHTMLVZ'
p2354
S'Indian classical dancer who gets Marx'
p2355
sS'KKJUMMRJGOZZ'
p2356
g16
sS'SJJMNSVWJLGZ'
p2357
S"I'm a fucking punmeister Looking for a drinking partner  someone to take me to Rotato for a jacket potato "
p2358
sS'HXJGYFIUDNUI'
p2359
S''
p2360
sS'IGIUHNYSLXKI'
p2361
S"I'm  not Green eyesftFifeSnapchatweegill "
p2362
sS'XULQRSCMLPOT'
p2363
g16
sS'IREJVSGBSUYL'
p2364
S'Radiography student Edinburgh '
p2365
sS'LTXIKOXQWQVR'
p2366
S' Lifeguard'
p2367
sS'FJVXGHYWBMNX'
p2368
g16
sS'JALFFHFIORBF'
p2369
g16
sS'DPUOJFPETYCU'
p2370
S'PhD studentVeganFeministPansexualSapiosexual'
p2371
sS'PGBGGOTIRRGD'
p2372
S'ftinsta roachyx'
p2373
sS'YHDCLVPTEAMY'
p2374
S"I'm a fucking punmeister Looking for a drinking partner  someone to take me to Rotato for a jacket potato "
p2375
sS'ZJPSLAIBHOOM'
p2376
g16
sS'GPOCBPRKTZHC'
p2377
S'GlasgowEdinburghStudying Civil Engineering at HeriotWatt '
p2378
sS'MHFYIVWRNIOE'
p2379
S' Kirkcaldy '
p2380
sS'WTGVLBMJHVKI'
p2381
S'From Edinburgh Dundee Uni'
p2382
sS'ZVMOPGKIEEKG'
p2383
S'Media  Communications studentExcellent banterVery short EdinburghIgnore all the Facebook likes I was  '
p2384
sS'EMTPAQZRGWOO'
p2385
S"I'm a fucking punmeister Looking for a drinking partner  someone to take me to Rotato for a jacket potato "
p2386
sS'DOMNVXBKXAIY'
p2387
g16
sS'IKULVWEHMHZZ'
p2388
S"I am DTF  Darn Tootin' Fun"
p2389
sS'NBVGNSXGNOVK'
p2390
g16
sS'TXQDRDDXJLYU'
p2391
S''
p2392
sS'ANLQGJPBPVUK'
p2393
S"I'm a fucking punmeister Looking for a drinking partner  someone to take me to Rotato for a jacket potato "
p2394
sS'BZKAZVSMRAZX'
p2395
S"I'm actually really cool "
p2396
sS'IEJQONSAVOYN'
p2397
S''
p2398
sS'FVESKFVEIGZP'
p2399
S'Edinburgh The less you reveal the more people wonder Insta gbrutherford'
p2400
sS'TONYPTBYNRIW'
p2401
S'Medic at Edinburgh Uni '
p2402
sS'UWSUOTQBQMBZ'
p2403
S''
p2404
sS'IXXKVOSFBSAP'
p2405
S'From italy Love photography Traveler '
p2406
sS'OWSDWYIVGHHG'
p2407
S'Studying in Edinburgh Belgian lived in Dubai Simply love traveling '
p2408
sS'EZFTFBYSPFLP'
p2409
S'ftinsta roachyx'
p2410
sS'NWUBQYEZGUIA'
p2411
S'Edinburgh '
p2412
sS'SEKXZCLQZPMP'
p2413
S"DogspeopleI'm the blonde less attractive one "
p2414
sS'PPTBEWZJPCAR'
p2415
S'NewcastleEdinburgh '
p2416
sS'FYSYKODVFJEU'
p2417
g16
sS'INRMCULDBKYG'
p2418
S'Edinburgh'
p2419
sS'CNUXDRZEUOFA'
p2420
S'Study in edinburgh Play korfball love to dance'
p2421
sS'CLXCQHVRLNOD'
p2422
S"I'm a fucking punmeister Looking for a drinking partner  someone to take me to Rotato for a jacket potato "
p2423
sS'JXHUMHBOKHAN'
p2424
S" Irish  and Living in Edinburgh accept the the things you can't changebe brave to change the things you canand be wise to know the difference"
p2425
sS'CBSJFEMWRSOM'
p2426
S'Business Student at the University of Edinburgh'
p2427
sS'RBQEOVMKLBXN'
p2428
S''
p2429
sS'GMTOGZRPQASL'
p2430
S'Edinburgh and AberdeenStudying a useless degree and I love it Apparently I look like the crescent moon emojiWe should hang out '
p2431
sS'WMARVVMLJWVP'
p2432
S'mum to a beautiful  year oldLove a Night out with the gals '
p2433
sS'QUDMBOISIBJT'
p2434
g16
sS'MMYALYSNBDDY'
p2435
g16
sS'PQASHGIJYVIG'
p2436
S'Edinburgh'
p2437
sS'YRLAQZGSRTXS'
p2438
S"Acting student edinburgh if you don't like messy eaters then i'm not your gal "
p2439
sS'SRQTZWNPSZXF'
p2440
S'Twitter nikitaw Snapchat nikxoInstagram nikitawiseman'
p2441
sS'VOICJJSHIKWU'
p2442
S'I am a tea addict who dabbles in property '
p2443
sS'EKXNXBMZYFWW'
p2444
S'I work with dance Art cats feminism travels nature and all that stuff Home parties are usually better a night out BAM'
p2445
sS'YTCBWFBKKNPS'
p2446
S'Sport Science StudentEdinburgh'
p2447
sS'CWVVGIKEWJJX'
p2448
S' nd y UoE Will go on a date with a guy who knows how to work in CAD'
p2449
sS'PGPWHCDMXRFO'
p2450
g16
sS'ABZQQJHBNYLO'
p2451
S'A ridiculously sarcastic midget that loves beards '
p2452
sS'SVUMDSUGIPBA'
p2453
S'History student at Edinburgh University  '
p2454
sS'UFSXXTNXFXCX'
p2455
S"Dont expect me to jump into your bed cause you've swiped right im a lady not a whore "
p2456
sS'FDSMFSGLIDOD'
p2457
S'University of Edinburgh Primary EdIgabbieduncan'
p2458
sS'JNQGDMGITAKW'
p2459
S' Fife If we match send me a message Instagram kirstenhamilton'
p2460
sS'EUYEXJQWJPNU'
p2461
S''
p2462
sS'TFNYWFKXROMV'
p2463
S'Adult Nursing at Napier Yorkshire Gal'
p2464
sS'XENUNPFLHENA'
p2465
S"what do you mean wine isn't one of my five a day I also read a lot and drink an unhealthy amount of tea "
p2466
sS'TZLOYNCMUDYX'
p2467
g16
sS'QTLDXJODHKSA'
p2468
S''
p2469
sS'DHEHWEIIGING'
p2470
g16
sS'WBCKPFQXQRGZ'
p2471
S''
p2472
sS'DHYDQITDPLEQ'
p2473
S"Trying out being an adult at the moment I've not killed anyone yet so I think it's going well I'm a nerd at heart spending my time watching movies and playing video games so trying to put off responsibility as long as I can I wish I could craft one of those epic 'about you' sections but I guess mediocrity will have to do "
p2474
sS'UGUGGVVUPHTV'
p2475
S'Plan on travelling the world and loving lifeThe position of handsome companion is open '
p2476
sS'ARFWETVLDADX'
p2477
g16
sS'OOBFKXLZFJYS'
p2478
S'Snapchat stephrobertsoon '
p2479
sS'OQFSMREVLHQM'
p2480
g16
sS'YENLTPSDIHXP'
p2481
S"I'm a fucking punmeister Looking for a drinking partner  someone to take me to Rotato for a jacket potato "
p2482
sS'FQERSQOQHCLV'
p2483
S'politics with stats student '
p2484
sS'HZIHJXIGGZEJ'
p2485
S"I don't have an inside laugh I always wish there was more gin and cats That's pretty much it "
p2486
sS'NAITJVMLEIQY'
p2487
S"I'm Grace  and I love sports Mostly going to the gym which I'm a tad obsessed with specifically powerlifting I love TV shows such as pretty little liars and the last ship My music taste varies but I like most musicChat to me if you want to "
p2488
sS'CMQQHAXHIHTA'
p2489
S"I'm a fucking punmeister Looking for a drinking partner  someone to take me to Rotato for a jacket potato "
p2490
sS'IYWONRKLHPKT'
p2491
S' not Snapchatt amylownieee '
p2492
sS'FVHZOTKYUKQE'
p2493
S''
p2494
sS'YIHMKUGHCBUJ'
p2495
S"Hi I'm Vicky  from Livingston Single but here to meet new friends  I am quite shy but when I get to know you more I come out of my shellIf you want to talk I'll try my best I love animals and I love anime manga  anything to do with Japanese culture I also like games Pokemon too   a good laugh My dream is to travel a lot see the sights  I am also quite a thrill seeker  always up to try something new Also love horror movies  theme parks very family orientated"
p2496
sS'CMZAYCEHOTTZ'
p2497
g16
sS'OVCKGTQVQTXC'
p2498
S"I'm a fucking punmeister Looking for a drinking partner  someone to take me to Rotato for a jacket potato "
p2499
sS'BJDYVAMBWIEJ'
p2500
g16
sS'JOLPEOXDFOEV'
p2501
S"Drama and Performance student at QMU I dream of having a pug one day Its the main goal in my life really The way to my heart is food literally any food and i'll be happy Twitter  Instagram sarahlbrownx"
p2502
sS'UVSFLPJDQPPM'
p2503
S'Interested in art tennis skiing and swimmingPug love is a necessityAnd a good sense of humour'
p2504
sS'DGHBDLDKKQKT'
p2505
S'Beautician and massager in training   not  '
p2506
sS'KVZNHPECFWPS'
p2507
g16
sS'BHBVSURTXECN'
p2508
S'th year zoology student who loves giraffes and to travelLoves dancing cocktails family nights out and nights inI love a guy who can make me laugh If you want to know more message me '
p2509
sS'JPTPJSGEXFKK'
p2510
S'Add me on snap chat lindsayjohnsto  '
p2511
sS'OAHKZVXYBWYY'
p2512
S"I'm a fucking punmeister Looking for a drinking partner  someone to take me to Rotato for a jacket potato "
p2513
sS'POHUQELXAZJM'
p2514
g16
sS'ZAFUFQSXRNYH'
p2515
S'im abit shy at first  message me whenever '
p2516
sS'QOZKQPSLAWIA'
p2517
S'Art student in Edinburgh'
p2518
sS'PKFOSXERZXCI'
p2519
g16
sS'JBJTJERCCNHV'
p2520
S'Studying Primary Teaching at Edinburgh uni '
p2521
sS'NHOCPRQKOANR'
p2522
g16
sS'IJYNEMTTHTJZ'
p2523
S'Borders girl currently in Edinburgh studying Health  Fitness Hoping to travel within the next year '
p2524
sS'ROAVOZWYBUQU'
p2525
g16
sS'RDVAJMQKICSK'
p2526
g16
sS'JPSIPDWJSSDB'
p2527
S"I'm a fucking punmeister Looking for a drinking partner  someone to take me to Rotato for a jacket potato "
p2528
sS'VTKNTEIIWKTZ'
p2529
S"I'm a fucking punmeister Looking for a drinking partner  someone to take me to Rotato for a jacket potato "
p2530
sS'QFBRRSHUNARF'
p2531
S'Edinburgh Rugby enthusiast with a serious case of wanderlust Gap year X   Insta elliedonaldson '
p2532
sS'ZIXZDIZSLCDN'
p2533
S"Charlie it's not short for anythingEdinburghSculpture "
p2534
sS'CLOIHWRHGDQE'
p2535
S"EdinburghNursery Practitioner I'm an easy going girl who enjoys meeting new people I enjoying spending time with friends and prefer to be busy when I'm not busy at work I'm either at the gym with mates or enjoying a good movie Looking for a date "
p2536
sS'JEMTCCVPACHI'
p2537
S'Edinburgh uniBusiness studentPart time receptionist Love sports and trying new things '
p2538
sS'DEYOFGVCNVAM'
p2539
S"Scotland fife also not  I'm  Anger jealousy bitterness tiredness hope lust love It is everywhere It is conceptual You just cannot see it"
p2540
sS'TWHICPPEETEC'
p2541
S"I'm a fucking punmeister Looking for a drinking partner  someone to take me to Rotato for a jacket potato "
p2542
sS'QAQJJBUWKTVZ'
p2543
g16
sS'XZAIWKKXPCES'
p2544
g16
sS'LAGPDQBDBGYT'
p2545
S"Down to earth designer looking for a like minded person Funny banter and intolerant of rude people From Newcastle but in Edinburgh most of my time studying at uni  Enjoy lifting heavy items and looking after myself So tell me what's your talent "
p2546
sS'GTYVCZLMLXIO'
p2547
g16
sS'SKYFLGIVWPCA'
p2548
S"A design student that's food  Michael Scott obsessed  Edinburgh mostly"
p2549
sS'HUNCLKQXMVKK'
p2550
S''
p2551
sS'PKXZAXMPQJXV'
p2552
S'To your good elf  '
p2553
sS'VJJSOCOPNGJZ'
p2554
S'Spent my summer living in Spain'
p2555
sS'JVSOYQDGVKXF'
p2556
S'Business student at Edinburgh UniversityFrom Manchester'
p2557
sS'MJMUOQNECESF'
p2558
S'nd year design student living in Edinburgh from Glasgow  love an adventure friends and gin'
p2559
sS'MBHMBAQIHCMD'
p2560
S"I'm a fucking punmeister Looking for a drinking partner  someone to take me to Rotato for a jacket potato "
p2561
sS'NMWVWKRMMQYW'
p2562
S'Economics student at University of Edinburgh'
p2563
sS'MQCTPPOJHPYC'
p2564
S' History Graduate Reading Netflix Travelling Game of Thrones Coffee Wine Laughter French Bulldogs Lil Sebastian Leslie Knope Baking Astronomy '
p2565
sS'MPNJMYHEHPAV'
p2566
S'Edinburgh girl '
p2567
sS'HDPUZFXBBPEY'
p2568
S'Looking for my Chuck Bass '
p2569
sS'ZGRMUINUULIH'
p2570
S"'Death is just life's next adventure'Food naps alcohol and rugby keep me happy snapchat  lauradickson"
p2571
sS'MSBEQCSNJDOC'
p2572
S"I'm a fucking punmeister Looking for a drinking partner  someone to take me to Rotato for a jacket potato "
p2573
sS'HWKPUKHHJBFR'
p2574
S'Apprentice Electrician'
p2575
sS'HUBXRURXDMYB'
p2576
g16
sS'GSQQRGNASRUY'
p2577
S'Just Gin and bear it  DStudentEvents management  Not afraid to say hi first Genuinely nice '
p2578
sS'GGJLRDCLQOAH'
p2579
S'Events management student music lover and Disney enthusiast Living in the moment '
p2580
sS'MBXQHEAPPOMD'
p2581
S"I'm a fucking punmeister Looking for a drinking partner  someone to take me to Rotato for a jacket potato "
p2582
sS'AWEIQBJWNFSZ'
p2583
S'BA Digital Media student at Stirling University Favourite band  The View'
p2584
sS'IYNUUANAEIEE'
p2585
S''
p2586
sS'XFBZCFEDUXBU'
p2587
g16
sS'ZRKWZULMBGGQ'
p2588
g16
sS'JQSBRIVOBFOP'
p2589
S"I don't have a witty bio hmu if you wanna talk  I might look scary but I promise I'm not Art and design student sharper than any other edge known to man"
p2590
sS'JJNGGHJPJIGA'
p2591
g16
sS'LYNCQKPCMGFY'
p2592
S"Charlie it's not short for anythingEdinburghSculpture "
p2593
sS'SFOCBZMSZWMH'
p2594
S"if you have a sense of humour tattoos love coffee and music you're already halfway there  singerproducer  From Hong Kong "
p2595
sS'GFPZLGNUUDSN'
p2596
S''
p2597
sS'QEIIMIHYULLD'
p2598
S'GlasgowEdinburgh '
p2599
sS'OLBOJORANIKZ'
p2600
S"I'm a fucking punmeister Looking for a drinking partner  someone to take me to Rotato for a jacket potato "
p2601
sS'ELIQVVJYWAOK'
p2602
g16
sS'LIRQVFROJBKD'
p2603
g16
sS'BOLEPHZPSOZO'
p2604
S''
p2605
sS'AXBQHWVULSWE'
p2606
g16
sS'ZJINCLDGDNLC'
p2607
S'Study in edinburgh Play korfball love to dance'
p2608
sS'GXHSOFFOSJRN'
p2609
S'Edinburgh Snapchat  nevadaxFacebook  Nevada Fitzner '
p2610
sS'KCREIBDNVEPU'
p2611
S'I like a good pair of balls'
p2612
sS'VUVJWVWKJEMR'
p2613
S'all round good cuntsnapchat  ruthmk    '
p2614
sS'QORPSGSTLBZF'
p2615
S"I'm a fucking punmeister Looking for a drinking partner  someone to take me to Rotato for a jacket potato "
p2616
sS'XPSWHFUOZJSH'
p2617
g16
sS'KCNGENRGZKLT'
p2618
S'Katiebooobaaaby  '
p2619
sS'YAJYTWGCXNBS'
p2620
S' Edinburgh '
p2621
sS'ZLQBQLWSEFRI'
p2622
S' loves Netflix any kind if music art books and moviesFrom the isle of Lewis originally but moved to Edinburgh to study Criminology at Napier universityTraditional Gaelic singer'
p2623
sS'DUQFLJAWHGUR'
p2624
S'Instagram  mdrummond '
p2625
sS'XELWGGKJHKFL'
p2626
S'Beauty therapist Snapchat  joannapullar Instagram  joannajoyy'
p2627
sS'JEDFTCGJPXAR'
p2628
S' '
p2629
sS'SYKAFAVZHIBJ'
p2630
g16
sS'ECUBFZEIETGU'
p2631
S"I'm a th year student in edinburgh  I love travelling and sports As Lorelei would say I stop drinking coffee I stop doing the standing and walking and the wordsputtingintosentence doingI will always cheer for Germany or Bayern Munich in football so don't try to convince me otherwise and yes football not soccerNo I am not on tinder for one nightstands so you might as well swipe left"
p2632
sS'JMCHHQLPEMLE'
p2633
S''
p2634
sS'TRJBYKDCPCXQ'
p2635
S'snapchat Rachelgab'
p2636
sS'MSHLIUKLUGRB'
p2637
S'Psychology PhD student From Edinburgh living in London Music lover'
p2638
sS'LQCNROVOOXSO'
p2639
S'Edinburgh Uni PE teaching Dive coach too '
p2640
sS'VXVZBAFVRZDN'
p2641
g16
sS'JBKMILWDPKNK'
p2642
S"snapchat amyproud Instagram amyyproud I'm actually  just Facebook doesn't let me change itMost likely won't talk first "
p2643
sS'TLTLQSQOOJIY'
p2644
g16
sS'EBKVFKCWUWOT'
p2645
S" Kirsty  Scotland Giving up doesn't always mean you are weak sometimes it means that you are strong enough to let go "
p2646
sS'QWHKWLVMEWFS'
p2647
S"Edinburgh Eng Lit student and waitress I read lots of books and try not to throw wine all over people with mixed success ' "
p2648
sS'ODWLYZFLTTIT'
p2649
g16
sS'VKMLUIKFLUGS'
p2650
S'Tall blonde and vegetarian '
p2651
sS'SHFOVGMVXNDK'
p2652
S'          s     Just moved to Newcastle to start my internship  Love skiing filmsbeing outdoors and I never say noto a party x'
p2653
sS'TCUJXSEXMOVE'
p2654
g16
sS'FRRJDTGPDTXZ'
p2655
S"I'm a fucking punmeister Looking for a drinking partner  someone to take me to Rotato for a jacket potato "
p2656
sS'GIKZRFZEUBMJ'
p2657
S'Liverpool  EdinburghStudent NurseTea addictParty girl'
p2658
sS'GAXPBMTPWHFK'
p2659
S"Just looking for bDrinking party's and travellingSnapchat Helenoneillxo Instagram helenoneill"
p2660
sS'YNVHJYAEHORF'
p2661
S'Instagram mhari'
p2662
sS'BPOLBTZICUTY'
p2663
S'Snapchat  jimmyjamjew '
p2664
sS'DZWNXHPZDZLU'
p2665
g16
sS'FVQBGFVYFAZK'
p2666
S'Edinburgh '
p2667
sS'MHVQSUGZEIPM'
p2668
g16
sS'HCHKLEFYQKKL'
p2669
g16
sS'ZEGAWZYLPJJK'
p2670
g16
sS'HJGYEUDSBRJF'
p2671
S'I cry at John Lewis adverts '
p2672
sS'TQNUQRKVKEQJ'
p2673
S'Acting student living in Edinburgh Massive nerd and cat lover who owns dogsI get confused when people put their heights here'
p2674
sS'KMEHXHQBEZGT'
p2675
S"All you fellas listing your height tattoo status and beard status so I thought I'd do the same to ensure we're on the same page Yah I have tattoos No I can't grow a beard Brewdog anyone"
p2676
sS'LNVRGHBJJKTO'
p2677
g16
sS'BFMWQTUHTSJT'
p2678
S'born on August rd which makes me  LEO Vocally trained Music is my everything InkedInk obsessed Gamer girl Spontaneous Loves walks food excersise lazy days Dog called Charlie Snake called Binx Works as a carer Lives in Dunfermline English girl Looming for datingrelationship Creeps weirdos full of themselves guys need not apply If we match send a message other then just hey  '
p2679
sS'OZOYZEJJFGPL'
p2680
S'I study psychology at the University of Edinburgh and I like skiing and hiking Also enjoy reading pretty much anything scifi and too many tv series'
p2681
sS'SQPORTAXSSZW'
p2682
S"I'm a fucking punmeister Looking for a drinking partner  someone to take me to Rotato for a jacket potato "
p2683
sS'RXWBHUALCEGS'
p2684
S'Plan on travelling the world and loving lifeThe position of handsome companion is open '
p2685
sS'OKKQQKNYFFTT'
p2686
S"Travel obsessed pierced and inked After working in Romania Madagascar and Nepal I'm spending some time at home in Edinburgh to focus on my dance career and work out what the hell I'm doing with my life If you've heard of The LaFontaines we can probably be friends"
p2687
sS'PAEWRZYSHLUX'
p2688
S"HannahWant to know anything just ask I don't bitethat hardLoves Disney bye x"
p2689
sS'WTDNUMZDQLCW'
p2690
S'Av had  vodka cokes and am mwi'
p2691
sS'IUYHHVOQITBD'
p2692
S"I'm a fucking punmeister Looking for a drinking partner  someone to take me to Rotato for a jacket potato "
p2693
sS'EMYVWYRZUVMT'
p2694
S'th year Zoologist at Edinburgh Uni A man who dares to waste one hour of time has not discovered the value of life'
p2695
sS'ZGOPLQIKXLKY'
p2696
S' '
p2697
sS'JFXBJPINQKZS'
p2698
S"I'm a fucking punmeister Looking for a drinking partner  someone to take me to Rotato for a jacket potato "
p2699
sS'GFGVEXVPDOUJ'
p2700
S''
p2701
sS'JNPLOJESZYEN'
p2702
g16
sS'EDMCAMLJIRAG'
p2703
S' Accountancy graduate Live in Dunfermline work in Edinburgh as trainee tax accountant Disney Marvel and FIFA '
p2704
sS'DWUHRIIUZFKJ'
p2705
S'First year psychologysociology studentOriginally from Leeds England Always up for a laugh playing on Xbox or binge watching Netflix Also enjoys attempting to play the drums Feel free to say hello and message first '
p2706
sS'AXPMJBKEAGJS'
p2707
S"If you don't like sarcasm don't bother "
p2708
sS'DWUIPGNOQWIA'
p2709
S''
p2710
sS'SNJFOROUPQLI'
p2711
g16
sS'CSPTOMFYHWYQ'
p2712
S"Originally from Wales I'm a keen traveller coffee shop frequenter and rugby enthusiast I regularly attempt to cook and am trying to learn French"
p2713
sS'VNWRTYPJKGOG'
p2714
S'Teacher in Aberdeen '
p2715
sS'XZXMRLMJSRAT'
p2716
S'I need a writer friend apply within'
p2717
sS'TCLOAJFUGLPI'
p2718
S'Snapchat xmorganxInstagram xmorganxDunfermlineEdinburgh Scotland Nursing student at Edinburgh Napier university '
p2719
sS'MVVCETTRQVNQ'
p2720
S' fife '
p2721
sS'IFGRNSQBGEVI'
p2722
g16
sS'EFVJLIMLERVE'
p2723
S'If you know your  times table get in touch'
p2724
sS'KOZCTBLAYXOT'
p2725
S'French student  Internship in Edinburgh for  months'
p2726
sS'TZDJMMNAPVVA'
p2727
S'Farming girl    Snapchat  laurenlmoore '
p2728
sS'HGSWYOCRPJZS'
p2729
g16
sS'FKJYMPMCPJVO'
p2730
S"Scotland fife also not  I'm  Anger jealousy bitterness tiredness hope lust love It is everywhere It is conceptual You just cannot see it"
p2731
sS'XOZGBSEQCBPN'
p2732
S"Loves to paint act and sing can't be bothered to make money outta them If you can't handle tattoos you can't handle me Rather dislike beards love tall tall guys and any height of girl Dying of the flu at the moment so I can appreciate the type of Netflix and chill where you feed me soup "
p2733
sS'PCDJVHRMMYFM'
p2734
S'EdinburghStranraer'
p2735
sS'KOFGKXRWHPXI'
p2736
S"I'm a fucking punmeister Looking for a drinking partner  someone to take me to Rotato for a jacket potato "
p2737
sS'UDKSQZASSRZV'
p2738
S'Instagram kirstinsands'
p2739
sS'QTYBVLRCKVUX'
p2740
S'Kenyan in Edinburgh Looking for some good chat '
p2741
sS'YXQDTBEMMSQP'
p2742
S'If your looking for a fuck about then just swipe left  '
p2743
sS'BQAZJMCBRLAR'
p2744
g16
sS'CXMANQXSVZCE'
p2745
g16
sS'GRUXTEJOVOZO'
p2746
g16
sS'GBZOPEZNMUDX'
p2747
S'Kenyan in Edinburgh Looking for some good chat '
p2748
sS'QSZEWPHLFUNI'
p2749
S"The goat on the rightWill always ask the DJ to play Kate Bush KNOPE As in 'nope keep swiping' but also Leslie KnopeBonus fact bigger than a monkey but smaller than most people"
p2750
sS'VEYPFXWOBQJZ'
p2751
S' '
p2752
sS'WHHXUWKRVMXI'
p2753
g16
sS'DWKBQATCQHAP'
p2754
g16
sS'PVSVPNCNKQTF'
p2755
g16
sS'VKBYDJQMUPBZ'
p2756
g16
sS'TWSWKTRMNWUA'
p2757
S'Make me laugh '
p2758
sS'BHSREMBASUEZ'
p2759
S''
p2760
sS'ZFGOSAGAAFZZ'
p2761
g16
sS'XGYCLKSGAOQG'
p2762
S'EdinburghStudying Nutrition and Food Science at QMUPlay rugby for Lismore WRFC '
p2763
sS'RBBBEXNUDRQL'
p2764
S'Banter '
p2765
sS'XICHXDHBHXTQ'
p2766
g16
sS'LAFAKWPUUWDS'
p2767
S"Student vet nurse and work on the farm when I'm not at uni"
p2768
sS'PMNKPXZLLZBB'
p2769
S"IR student from Scotland with an excellent taste in cartoons I do the theatre thing sometimes and it's great but also I'm too lazy for it St Andrews"
p2770
sS'AGQAHZGQJIGZ'
p2771
g16
sS'UHGOVNTFRZPE'
p2772
g16
sS'USBTRQHWUWGJ'
p2773
S'Live on a farm in the middle of nowhere Fitness and game of thrones enthusiast with a mild peanut butter addiction Enjoy skiing baking weights training and attending young farmers shindigs If you dont appreciate a good game of monopoly we cant be friends  instagram emilynimmo facebook Emily Nimmo '
p2774
sS'PTOLZZCXABFQ'
p2775
g16
sS'VHCCAKACZVVZ'
p2776
S"Snuffles was my slave name you can call me snowball SingerShitty Songwriter Cat enthusiast MovieTV show lover Video game nerd AvA BMTH Don Bronco  FightstarCharlie Simpson is my spirit animal I probably won't message you first just sayin'"
p2777
sS'YKEMXGJBNTGN'
p2778
g16
sS'CSUKAGLADXDH'
p2779
S'Hit me up for fun and games xx'
p2780
sS'YGRHMHJXHAMZ'
p2781
S'student at HWU music and theatre lover singer and musician film fanatic globetrotter tattoo enthusiast can be quite a smartarse should you ever need oneThere is no i in TEAM but there is an i in PIE'
p2782
sS'WUGODMTNHLAN'
p2783
S'Studying chemical physics at Edinburgh uni Bilingual and love to travel for real though'
p2784
sS'GSLKZOHCIOCN'
p2785
g16
sS'XCQODUVAOYXB'
p2786
S"I'm a fucking punmeister Looking for a drinking partner  someone to take me to Rotato for a jacket potato "
p2787
sS'LUVFSKRPPRDJ'
p2788
S'Farmer and scientist Love all animals but sheep are my life '
p2789
sS'RBGYAOAUHOCW'
p2790
S'whoreforfoodI want noods not nudes'
p2791
sS'GIBVIRLDPJFY'
p2792
g16
sS'HZRGKWNIYYPZ'
p2793
g16
sS'LQXHAZIOHQOC'
p2794
S'Bsc Hon in physics Back in Edinburgh after a year teaching in ShanghaiI missed Percy Pigs a lot Peanut butter NCIS and Jumpers'
p2795
sS'LFQIZTPHUMAQ'
p2796
S"I'm a fucking punmeister Looking for a drinking partner  someone to take me to Rotato for a jacket potato "
p2797
sS'KBMOPLXIUIMW'
p2798
g16
sS'COIFVSWPKMBT'
p2799
g16
sS'IRYNKIPPPYRI'
p2800
S'Studying in Edinburgh Belgian lived in Dubai Simply love traveling '
p2801
sS'TJPEEQRCMHVH'
p2802
g16
sS'LZYYVKAXOXPI'
p2803
S'IrishStudent nurse '
p2804
sS'SPOYDYNYKSYA'
p2805
S'First year maths student Idk how to write an appealing bio so I guess u just gotta judge me by my face'
p2806
sS'QDNRXMTXFUCA'
p2807
S"Hi  I'm nd year at Edinburgh uni studying German and History would love to meet someone I could speak German with I love to dance Lindy hop Balboa and Blues  I am intelligent feminist and love to talk music and history as well as general randomness Think Asdf and Monty Python"
p2808
sS'YLUXJCCFLXNB'
p2809
S"I'm a fucking punmeister Looking for a drinking partner  someone to take me to Rotato for a jacket potato "
p2810
sS'QAAIAXFMHJPW'
p2811
S'Studying architecture at Edinburgh university Love to travel Big fan of silliness Terribly English Should never be allowed to drink at lunch'
p2812
sS'MDNIHHZDEWHU'
p2813
g16
sS'ZJBNGAXPTWMP'
p2814
S'Studying at Edinburgh for the semester'
p2815
sS'YXEFCZCEGGPL'
p2816
S''
p2817
sS'CJIMXNDDIIBJ'
p2818
S'Edin Uni rd Year'
p2819
sS'VZOLIDJPKKPH'
p2820
S'I work with dance Art cats feminism travels nature and all that stuff Home parties are usually better a night out BAM'
p2821
sS'HTPPSRMMOWNV'
p2822
g16
sS'QCIFUVPUDSFD'
p2823
S'snapchat  prettylittleem Instagram  emmajohnston dancer masseuse '
p2824
sS'KFEHVIQDQPJZ'
p2825
g16
sS'EHWWTEIDAHBH'
p2826
S'media student at qmu  full time alcohol enthusiast '
p2827
sS'DCZKRTXLETTL'
p2828
S"I'm a fucking punmeister Looking for a drinking partner  someone to take me to Rotato for a jacket potato "
p2829
sS'WKTYFGYGHNOI'
p2830
S"Just an American girl livin' in an Edi world Yeah I usually make bad jokes "
p2831
sS'VUTLGWNUSZGM'
p2832
S"I'm a fucking punmeister Looking for a drinking partner  someone to take me to Rotato for a jacket potato "
p2833
sS'EWMHLNHUHUHB'
p2834
S"studying abroadfrom LA Environmental Engineering ' talk nerdy to me "
p2835
sS'WBNOAOVUGBNI'
p2836
g16
sS'BCNGKJOYFFHZ'
p2837
S"HannahWant to know anything just ask I don't bitethat hardLoves Disney bye x"
p2838
sS'UOHHGWPMNRMU'
p2839
S'insta  nateilatan'
p2840
sS'UPJMOGSGOVWI'
p2841
S'Welsh girl usually based in Edinburgh work in marketing gym promotions constantly travelling Work between US and UK'
p2842
sS'MPSRCZTPFONY'
p2843
g16
sS'DGSASWZGRCPL'
p2844
S'nd year design student living in Edinburgh from Glasgow  love an adventure friends and gin'
p2845
sS'RXNRKMOXYBEQ'
p2846
g16
sS'GIXJBHDLJPLR'
p2847
S'An English girl living in Scotland and studying PhilosophyPolitics at Edinburgh nd yearYorkshire born'
p2848
sS'RSZSZIEMWJEQ'
p2849
S"I'm a fucking punmeister Looking for a drinking partner  someone to take me to Rotato for a jacket potato "
p2850
sS'RQMQOSRBJDIC'
p2851
S'Sport and exercise student Stirling uni '
p2852
sS'YMXCICNQAJNW'
p2853
S"Hi  I'm nd year at Edinburgh uni studying German and History would love to meet someone I could speak German with I love to dance Lindy hop Balboa and Blues  I am intelligent feminist and love to talk music and history as well as general randomness Think Asdf and Monty Python"
p2854
sS'MJCRLSPXSCRQ'
p2855
S'Snapchat amyholmes '
p2856
sS'PXBKKNFLCUFL'
p2857
S'Books   films  Netflix  walks  museums  galleries  teacake  baking'
p2858
sS'TAXQAXNPECDZ'
p2859
S'Add me on snap chat Emms '
p2860
sS'YDCIJLYRAREI'
p2861
S'Live in Edinburgh Snapchat shannonrileyInstagram shannonriley'
p2862
sS'BJETKWWDUQXU'
p2863
S"If I had a pound for every time someone asked me if my hair was naturally ginger I'd have nothing No one talks to me "
p2864
sS'IBHYIBNEPTSB'
p2865
S"I'm a th year student in edinburgh  I love travelling and sports As Lorelei would say I stop drinking coffee I stop doing the standing and walking and the wordsputtingintosentence doingI will always cheer for Germany or Bayern Munich in football so don't try to convince me otherwise and yes football not soccerNo I am not on tinder for one nightstands so you might as well swipe left"
p2866
sS'LUGKFGJXMASA'
p2867
S"I'm a fucking punmeister Looking for a drinking partner  someone to take me to Rotato for a jacket potato "
p2868
sS'FSVQBCDNCMMJ'
p2869
S''
p2870
sS'YLZDPDUCXGXB'
p2871
S'I like dogs more than people'
p2872
sS'AOFMHHTTBORY'
p2873
S'Snapchat kayleighbradley Falkirk City of glasgow college studying social sciencesJake bugg'
p2874
sS'OKIASONVZGZS'
p2875
g16
sS'BVAMVXGUASNZ'
p2876
g16
sS'ZJUEQTFBSHWT'
p2877
g16
sS'VOQDDIPGHDSS'
p2878
S'Postgrad lover of chocolate and film addict with bad taste in pop music Add interesting quote'
p2879
sS'ADZETNFRRIRG'
p2880
S'Book nerd and coffee snob  Fun friendly and full figuredor fat depends if you want to sugar coat it or not either way I am who I am Positively Honest'
p2881
sS'UESJIQQZJJBE'
p2882
S''
p2883
sS'LGFEMWKMAWPP'
p2884
S"Not   next month lolJust on here to speak to people at the moment really unwell just now and anything more really doesn't interest me sorry to be a bore"
p2885
sS'PSNTXRXUKOHQ'
p2886
S''
p2887
sS'OGFKSZNGUBAI'
p2888
S'RGU graduate new to Edinburgh '
p2889
sS'IOZYYHTWXJMC'
p2890
g16
sS'DYNLLLFOQSLE'
p2891
g16
sS'FIIZBEXPAUWW'
p2892
g16
sS'CBOKGSMWLCGZ'
p2893
g16
sS'DGPMENPFUNOF'
p2894
S' Full time carer from Glenrothes '
p2895
sS'SYWSLXDIEDGX'
p2896
S"Just an American girl livin' in an Edi world Yeah I usually make bad jokes "
p2897
sS'WUVDLEJJGCBH'
p2898
S"I'm a fucking punmeister Looking for a drinking partner  someone to take me to Rotato for a jacket potato "
p2899
sS'STUQIAOSDIYG'
p2900
S'Working full time No kids and I drive so no need for a chauffeur also the braces are gone now '
p2901
sS'SPBBKRFRFOTC'
p2902
S"I'm a fucking punmeister Looking for a drinking partner  someone to take me to Rotato for a jacket potato "
p2903
sS'JQWLSAVZHRRM'
p2904
S"My busyness is to create Doesn't even matter what  "
p2905
sS'KWUZLOWYIROM'
p2906
g16
sS'DJQSSFMPOZJB'
p2907
S"I'm a fucking punmeister Looking for a drinking partner  someone to take me to Rotato for a jacket potato "
p2908
sS'LUNUHBHBIIHL'
p2909
g16
sS'GDVSCYWLIBGH'
p2910
S'snapchat claudiamoran'
p2911
sS'EEQEIKJGFNAI'
p2912
g16
sS'HVYXSEGPSAEW'
p2913
g16
sS'TQPDUKCQWDER'
p2914
S'Snapchat slmull Beauty therapist at the retreat health and beauty'
p2915
sS'JKIYQCYCTXKF'
p2916
g16
sS'SLXXFIVIWOAB'
p2917
S"I'm the type of girl who gets a tattoo and finds out it's a Jonas Brothers song three minutes laterWork at Boots I want to go to places I'd never dream of going to "
p2918
sS'RETPLSKVUOTI'
p2919
S' '
p2920
sS'EUEQBZELUNLF'
p2921
S'student at HWU music and theatre lover singer and musician film fanatic globetrotter tattoo enthusiast can be quite a smartarse should you ever need oneThere is no i in TEAM but there is an i in PIE'
p2922
sS'CTCKUOCEIEQP'
p2923
S'Snapchat chanteelleex '
p2924
sS'XCAGXLFLRNZZ'
p2925
S'snapchat Rachelgab'
p2926
sS'ZTKAUTAILRJV'
p2927
S'LivingstonEdinburghCurrently studying at Edinburgh College then hopefully off to Aberdeen Music television photography art travelling football  rugby sleeping writing  hope to one day live in Oz or the USA Add me on Snapchat if you want  krisberridgexo'
p2928
sS'JZWYPPJKFOAI'
p2929
S'Just meeting new people Nothing more nothing less '
p2930
sS'TJQSXWTBUEWM'
p2931
S"Lover of puns and good literature st year English Language and Literature at Uni of Edinburgh  I live off folkindie rock and dancing wildly to whatever I'm listening to I enjoy embarrassing my friends by dancing in public I also review artsy things and have a strong penchant for Internet shopping"
p2932
sS'AUOVHVABUCTH'
p2933
S'GlasgowEdinburgh '
p2934
sS'HXVJWJYSVXZX'
p2935
S"I'm a fucking punmeister Looking for a drinking partner  someone to take me to Rotato for a jacket potato "
p2936
sS'MCFHIVEROUVH'
p2937
g16
sS'VKTMHMVJSQRA'
p2938
g16
sS'IUTDSQDXKFJN'
p2939
S'Edinburgh Uni PE teaching Dive coach too '
p2940
sS'HCRMHMPNHDUL'
p2941
S'Student  Cheerleader  My favourite things are Ice Hockey and Event Planning Twitter  JenIsabellaxx'
p2942
sS'EXQTUKGOKXEM'
p2943
S''
p2944
sS'YNELIIGQRZGX'
p2945
S'Twitter amymcfInstagram amymcfarlane'
p2946
sS'OQJGDINWHPQW'
p2947
S'all graphic designy and vegany'
p2948
sS'HCGGJQMETMCL'
p2949
S''
p2950
sS'INPPLBTNLEQL'
p2951
S'AllanaEdinburgh Scotland UKWork travel play Snapchat allanaxxInstagram makeupallana'
p2952
sS'KVONIALDXOFN'
p2953
S"I'm a fucking punmeister Looking for a drinking partner  someone to take me to Rotato for a jacket potato "
p2954
sS'CXFJUVWTTFAW'
p2955
S"I don't have an inside laugh I always wish there was more gin and cats That's pretty much it "
p2956
sS'QHSJGYLZMLHA'
p2957
S''
p2958
sS'QCFZGSKXLSWJ'
p2959
S"I'm a fucking punmeister Looking for a drinking partner  someone to take me to Rotato for a jacket potato "
p2960
sS'HNLHFBHLQRPG'
p2961
S''
p2962
sS'DTNCGXEJQAXF'
p2963
S"I'm a fucking punmeister Looking for a drinking partner  someone to take me to Rotato for a jacket potato "
p2964
sS'IGVRWHIKDQGC'
p2965
S' not  '
p2966
sS'FZAJZXZBBMDM'
p2967
S' interested in human rights law and studying at UoE '
p2968
sS'FBJVBRJSSGHX'
p2969
S"Actually   in  months but Facebooks being a cunt TV shows music musicals and the internet are basically my lifeI'm socially awkward so if you don't start the conversation we probably won't talk"
p2970
sS'BEAUUJWHVNXO'
p2971
S''
p2972
sS'LRIANNPQLWSS'
p2973
g16
sS'NCFKZJYOSBWW'
p2974
S''
p2975
sS'ARLSIWEDNXQB'
p2976
S'Snapchat samhadden '
p2977
sS'GVORHEIZWDQI'
p2978
S"I'm a fucking punmeister Looking for a drinking partner  someone to take me to Rotato for a jacket potato "
p2979
sS'QVUFWHMLKFWN'
p2980
g16
sS'GGZTYKMSZTUA'
p2981
S"Call me on    I study history so I'm great with dates "
p2982
sS'CNBXMVZFGLBN'
p2983
g16
sS'OWAAGZNOBOVR'
p2984
S"Edinburgh Law GraduateJack Daniels enthusiast' on a good hair dayHobbies include trying to get less awful at guitar and watching disney movies in the bathInstagram ines"
p2985
sS'GBTFBMETHIAA'
p2986
S'Student Edinburgh'
p2987
sS'TKUTRQOHDKRK'
p2988
S'Studying business in edinburgh'
p2989
sS'VAQBTDEUEDRP'
p2990
S'A firm believer that hangovers should not be dealt with aloneGeordie girl '
p2991
sS'TOYDNWPIZAFH'
p2992
S'Edinburgh Allergic to cats and bullshit Please give me none '
p2993
sS'TJLHVQLGDYND'
p2994
S'Yvonne tes bonneUSA to UK '
p2995
sS'GFLPZEJBRNML'
p2996
S"I'm a fucking punmeister Looking for a drinking partner  someone to take me to Rotato for a jacket potato "
p2997
sS'WCQGEDJWJDUE'
p2998
S' Illustration student Foodie Guernsey  Singapore Living in Edinburgh  '
p2999
sS'NBARSETXVLZX'
p3000
S"I'm a fucking punmeister Looking for a drinking partner  someone to take me to Rotato for a jacket potato "
p3001
sS'FODAAYZQTHAC'
p3002
S"Not   next month lolJust on here to speak to people at the moment really unwell just now and anything more really doesn't interest me sorry to be a bore"
p3003
sS'FKFVSLDZUIWI'
p3004
S''
p3005
s.