(dp0
S'IWZBOPXFXXUR'
p1
S''
p2
sS'ZFTAMZYQEVPD'
p3
S'Snapchat  libsnedxInstagram  libsnedTwitter  libsned'
p4
sS'EIURRCCAIFZX'
p5
S'Fully qualified Advanced Beauty Therapist Dunfermline Fife Scotland Snapchat  lovelydawnxoxo Insta  missdawnlx'
p6
sS'TDTJPSPJFJPS'
p7
S"Im ft  Sadly I am on tinder to actually find someone since its no happening when I'm out Im not looking for someone till after christmas just so i dont have to buy you a present Want to know more then you know what to do "
p8
sS'FEFDQBDBCLBO'
p9
S"I'm a fucking punmeister Looking for a drinking partner  someone to take me to Rotato for a jacket potato "
p10
sS'MPEOTOXPBEEV'
p11
S"All you fellas listing your height tattoo status and beard status so I thought I'd do the same to ensure we're on the same page Yah I have tattoos No I can't grow a beard Brewdog anyone"
p12
sS'LFCCNMYQNRNQ'
p13
S'Books   films  Netflix  walks  museums  galleries  teacake  baking'
p14
sS'OMTWSISMFSRM'
p15
S'Civil Engineering student'
p16
sS'FBVOCLDWKZUV'
p17
g2
sS'QOZVLRWVOBQO'
p18
S"if you have a sense of humour tattoos love coffee and music you're already halfway there  singerproducer  From Hong Kong "
p19
sS'VQEQAFXCCAVT'
p20
S''
p21
sS'RYTGIVWYDGVI'
p22
S' Business Management Student Countryside lover from EdinburghEast Lothian'
p23
sS'DTOUAWFKTSNK'
p24
S'Spanish but in love with the rest of the world'
p25
sS'IPWIHVFNZKME'
p26
S'Am kidding '
p27
sS'SDNKVFTKYXAC'
p28
g2
sS'IHPOSVMPWANQ'
p29
S"Dundeeth year food student clueless shop assistant movie mad with an excessive Star Wars obsession an over attachment to my car and a horribly varied music taste that leaves most uncomfortably confused and unsure what to expect I think I'm hilarious Everyone else tends to disagreeSnapchatInstagram saraduthiex"
p30
sS'HHJDDIUONKCK'
p31
S'Leeds  EdinburghBiological sciences studentMeat free I like travelling n being in the sea '
p32
sS'IMFGCTRUEZLR'
p33
S'here to laugh at peanut headsI uninstall this often so soz'
p34
sS'XNWOZUSLABFV'
p35
S'Snapchat xAshleySmithx                               Excitement  adventure '
p36
sS'AXWKSXNQVOZM'
p37
g2
sS'UPAIVROLQELA'
p38
g2
sS'HWPEURTXSXII'
p39
g2
sS'OTUNEPZCLIVJ'
p40
S'ECA'
p41
sS'ICFBEFLOGQMM'
p42
S"I'm nice apparently "
p43
sS'MGNYAYRZEWJQ'
p44
S"Don't really know what to say but I like going out and having a few drinks at the weekend but also happy to stay in and watch movies I also like to try and have fun and have a laugh whenever I can I probably spoil buster my staffie far to much but who wouldn't when he's trying to act all cute "
p45
sS'HUYUCJZLYXLN'
p46
S"Single because I didn't forward that chain email in Musician '"
p47
sS'SHNSFKCQVHTN'
p48
S'Philosophy and Theology  University of Edinburgh '
p49
sS'QXUSGSXDBHMH'
p50
S''
p51
sS'RCANKKPQOFCH'
p52
S'University of Edinburgh Primary EdIgabbieduncan'
p53
sS'GYSOWIWTOGAR'
p54
S'Heriot Watt uni'
p55
sS'MYVGVLMWQJBN'
p56
S' runner '
p57
sS'PTBZTNBHJCZG'
p58
g2
sS'CANKLFXUFZXA'
p59
S'Studying International RelationsLived in Canada and London for a whilePlaying badminton excessivelySlightly obsessed with music and books Usually called Katie '
p60
sS'AWMHTYRBWIWC'
p61
S'Ambitious and outgoing law student from Denmark studying at the University of Edinburgh for one semester Love singing dancing movies food and tea'
p62
sS'BSNJQVDSOAVZ'
p63
S"Single because I didn't forward that chain email in Musician '"
p64
sS'HGMGLEHTGSSE'
p65
S'From Falkirk and currently at Cumbernauld college studying Radio Broadcasting'
p66
sS'WLDDUTRNZZLP'
p67
S'Very sporty play badminton mostly but also do tennis football and golfEnjoy the gym and general keeping fit stuff like walking my  dogsWork at the coopStart uni in September for to study sports science '
p68
sS'BYBAQPLFQTYU'
p69
g2
sS'JLTZZHFFJAHF'
p70
S"I am DTF  Darn Tootin' Fun"
p71
sS'RTYCYCYKYOWX'
p72
g2
sS'UYDMRZJZJWTS'
p73
g2
sS'OUCYSZKDBALF'
p74
S'If ye dinny laugh ye greetEdinburgh ScotlandLa gente esta muy loca'
p75
sS'AVTQSUILCETN'
p76
S''
p77
sS'NHHYQUVHIVUH'
p78
g2
sS'CYHYKMSSHZKD'
p79
S"Student vet nurse and work on the farm when I'm not at uni"
p80
sS'RQFNXGBBMQAT'
p81
S'German studying in the Netherlands on exchange in the UK'
p82
sS'UKFZSXJTMZZC'
p83
S'Edinburgh physio student Instagram laurarobertsonx Snapchat laurarobertsonx '
p84
sS'GECARUUSDZEM'
p85
S"I'm no  ha  play football Edinburgh X "
p86
sS'ZMDVSRBDALTU'
p87
S'DrawingEdinburghAspiring Tattoo ArtistTwitter FamousLAInstagram lynseyallan'
p88
sS'TPCLEJRZCFKV'
p89
S"I'm from fife In Love with family guy love playing piano  but it says  ft curvy pop up"
p90
sS'GELTEPWPLIBH'
p91
S''
p92
sS'FEAPZLKGNIWH'
p93
S'Instagram  maddiealiceRGU'
p94
sS'XJAPQULHFIOX'
p95
S' Scottish Snapchat AmandaGrayx'
p96
sS'JOPSGYQSMLJQ'
p97
S'Edinburgh  Psychology StudentBartender Travelling '
p98
sS'NRVUSAIEKCTE'
p99
S"Je m'appelle Gayle I have cracked my head open a few times and I broke my collar bone the first day snowboarding on real snow I'm slightly clumsyI love dogs and stags but I don't think that it would practical to have a pet deerI love stationery not to be confused with stationary However I also quite like being stationary but not too much I like changing car wheels I don't like potholes "
p100
sS'AUOTXPUWPPAB'
p101
S"I'm a fucking punmeister Looking for a drinking partner  someone to take me to Rotato for a jacket potato "
p102
sS'GMUNMKKJJQBQ'
p103
S'rd year student at Dundee UniLike nights out xbox days long walks and good chat Cuddles always welcome  the one on the left in the group photo                                                                                        snapchat morven '
p104
sS'XDRGVUEUTIHX'
p105
S'tattoos  piercingscatsTaylor Swift is God'
p106
sS'GIZUNZOHBFSH'
p107
g2
sS'UDNDBVDDNVAB'
p108
S''
p109
sS'DIEWIEALAXTV'
p110
S'Love Toy Story and a good pair of socks '
p111
sS'PJGUWZFJUPZV'
p112
g2
sS'MHJSEXAOPVVF'
p113
g2
sS'KHUTDFJLHAZL'
p114
S''
p115
sS'ESCSTQQXDAJG'
p116
S"Don't really know how this works "
p117
sS'CTOFXILXLFKY'
p118
S"I'm counting on your standards being lower than mineStudying Marketing at uni in Edinburgh but still no idea what I want to do in life Instagram  caitlinmjordanTwitter  muppetkay "
p119
sS'XYRLUEFYTPGU'
p120
S''
p121
sS'NYELCPSARNPI'
p122
S''
p123
sS'JCVAGLWSMXGX'
p124
S"I'm a newly qualified nurse living in Edinburgh Here's the gist folks I don't take life too seriously I require a nice spoonful of Nutella pretty much on a daily basis you will always catch me with a gt on a night out I eat my vegetables and I squat"
p125
sS'ROUORHOEHWMW'
p126
S"My busyness is to create Doesn't even matter what  "
p127
sS'HZFNAAFFAHOQ'
p128
S''
p129
sS'NBPWQRBORMEN'
p130
S'jo perrin X'
p131
sS'SGBKQKPGXCRF'
p132
S'Australian travelling in Europe and the UK  Current location Edinburgh '
p133
sS'ZRFGIOMWZXWF'
p134
S'Instagram  maddiealiceRGU'
p135
sS'GBYAKHRDVEIT'
p136
S"My mum thinks I'm cool"
p137
sS'BPIIKNEEPUPL'
p138
S'Hayley Marie Campbell Snapchathayleymarie '
p139
sS'ZLTQZEAGZSJF'
p140
S'Hit me up for fun and games xx'
p141
sS'IEWMLTIZRXBI'
p142
S" years through the best adventure anyone could ever haveGot a map on my arm so I don't get lostAlso got my dog tattood on meMy car is just one big stickerSemi famous snowboarder with a famous dogProfessional adventure to mountains skateparks lakes bars quirky shops and anywhere with dogsAustralian taking shelter in ScotlandWhen I was younger I looked like Tina from Bobs Burgers"
p143
sS'FEDLINHSJVTP'
p144
S'Mind that time I got a tattoo on my ass True story '
p145
sS'ZKHFZNSYBIBT'
p146
S" year old student nurseLife ambitions are to cuddle a baby panda and visit the moonSleeping is my favourite hobbyA good cup of tea solves everything Just going to put it out there I'm not a movie geek too much sports scares me and I have no great desire to travel Men shouldn't wear bobbles in their hair I'm  addicted to tinder there ah said it "
p147
sS'LEWYASEVBRKY'
p148
S"To be quite honest I don't even know why am on this  go with the flow and see where the stream takes us constantly deleting my account and then readding  cause I am indecisive about these things "
p149
sS'RWRNWBLTBXNZ'
p150
S'American studying in Edinburgh '
p151
sS'HLEKVKOAUVZY'
p152
S"Edinburgh Can't ski Didn't go to uni Don't have snapchat  "
p153
sS'BYUWEBYBYZIC'
p154
g2
sS'TNEJEDSJPCWA'
p155
g2
sS'TZCYVGNDSUYX'
p156
S'Instagram  eloiseevans '
p157
sS'RBJOJZESRLZI'
p158
S'instagram amydunbar '
p159
sS'NETMAQOSUUWQ'
p160
g2
sS'MPXHTIMTUGMY'
p161
S'Snapchat  Instagram  lauraxxoxxBeauty Therapist Edinburgh'
p162
sS'EAOGFUYVGWGY'
p163
S'Snapchat aimeenisbetx FifeLive the life you love love the life you live'
p164
sS'VNTZSPJGJLXD'
p165
S"Don't really know how this works "
p166
sS'QXLZRNWFSXCW'
p167
S'Fine Art MA  ECA Brummie born and bred My neighbors think my accent is hilarious Instagram mollyhk'
p168
sS'RLYMVCEAXGTZ'
p169
g2
sS'QBNXPJTMPBNQ'
p170
S"I'm a fucking punmeister Looking for a drinking partner  someone to take me to Rotato for a jacket potato "
p171
sS'DFKYJAQZXPPN'
p172
S"I lift run horseback ride and play guitar amongst other talents I have  tattoos and am continuing to add to my collection Art is my passion music is my soul I'm a Yankee at heart born  raised in good ol' NY USA So one day I got bored with college quit and decided to hitchhike across America oh and then the world I'm a restless spirit Just got back from Japan and now here in Scotland for a while Add me on fb to live vicariously through me I go on a lot of adventures"
p173
sS'JSUCPIKJJKXA'
p174
S'From Edinburgh Dundee Uni'
p175
sS'OGPBIBSRURHB'
p176
g2
sS'ZNDMLHIYUCCP'
p177
g2
sS'JNCRXJNRBOIH'
p178
S'Edinburgh '
p179
sS'UXKCSDYTIYAV'
p180
S'Basel BrusselsI vibe Insta eleanorroseshortland'
p181
sS'YDALKNDJLOEQ'
p182
S"I'm a fucking punmeister Looking for a drinking partner  someone to take me to Rotato for a jacket potato "
p183
sS'COREZWWRSANS'
p184
S''
p185
sS'HHVECSKATYQK'
p186
S'Edinburgh Rugby enthusiast with a serious case of wanderlust Gap year X   Insta elliedonaldson '
p187
sS'FJPXHQTGMOVR'
p188
S'Fully qualified Advanced Beauty Therapist Dunfermline Fife Scotland Snapchat  lovelydawnxoxo Insta  missdawnlx'
p189
sS'ZVJJTIOMRLJU'
p190
g2
sS'HQLUKNMLUOFT'
p191
S' and '
p192
sS'KSJBEVIYRTDM'
p193
S'I love fiddle folk and French and alliteration '
p194
sS'JSCRHIWFRTSV'
p195
g2
sS'HGWSEMCPKNRX'
p196
g2
sS'HDZMSRLPGIGW'
p197
S'I enjoy a nicely packed bowl placed on top of a bong Plainfield IL USA Let me be your American sweetheart Edinburgh for the next  weeks Lots to see drink smoke and explore here '
p198
sS'SQHYOVPGQZXC'
p199
g2
sS'WPZZNDJXLQTD'
p200
g2
sS'TXOGZDABPFKA'
p201
g2
sS'AMHMXLKTOKJJ'
p202
g2
sS'RLFPLSZIMBSD'
p203
S"I'm a fucking punmeister Looking for a drinking partner  someone to take me to Rotato for a jacket potato "
p204
sS'DAPAMBDBMFWH'
p205
S'Heriot Watt uni'
p206
sS'BLUGXVXEFDSA'
p207
S'EdinburghStudying Nutrition and Food Science at QMUPlay rugby for Lismore WRFC '
p208
sS'FXXOJXYMGQEF'
p209
S"I'm a fucking punmeister Looking for a drinking partner  someone to take me to Rotato for a jacket potato "
p210
sS'VLIPCGZAPKNV'
p211
S"Buy me cheesecake and I'll love you foreverCats are easily better than most people"
p212
sS'YWIOOCQBNCIM'
p213
S''
p214
sS'NXBPDGIUDTPW'
p215
g2
sS'TKCNKGVVFUAI'
p216
g2
sS'VMPRJHGJCUUG'
p217
g2
sS'IDQQXSPNLCXK'
p218
S'Names Emily year abroad in Scotland from straight out of America  drink and smoke too much but still functional  hit me up if you are chill and like to have a good time   '
p219
sS'RYVVNIYAHOIG'
p220
S'Starwars xbox my puppyyup'
p221
sS'TKSAJKIWOBQW'
p222
S"Doing a Masters degree at St Andrews but if I had my way I'd probably still be chasing cows round the Australian outback From Devon a country girl at heart  "
p223
sS'SAEMPPSPCAOP'
p224
S'Forever wanting to be back in Bali '
p225
sS'SAZJTUKXEDIA'
p226
S''
p227
sS'XWEGOXYQKOTL'
p228
g2
sS'NCFNOXZYNLSI'
p229
S'In my th year  uws trying to get my honours in social science Hoping to go into teaching modern studies My pups are my world  '
p230
sS'CNNPLIZMNENJ'
p231
S"I'm  and from Scotland Snapchat JemmaaBrodiee "
p232
sS'OYGXWMIVCYZK'
p233
S'Studying in Edinburgh from Mallorca'
p234
sS'SMILEWDIPYVO'
p235
S'Scottish nd year at EHU  Instagram abitait'
p236
sS'DYUSNQTHIJIK'
p237
g2
sS'NYBKAFEIZUEC'
p238
S' '
p239
sS'LGGITNAOZYTY'
p240
S'From Edinburgh Instagram megaandrydenn '
p241
sS'SGBJLXIFFYJF'
p242
S'Instagram olivia '
p243
sS'TIUVNLFPBXTQ'
p244
S'          s     Just moved to Newcastle to start my internship  Love skiing filmsbeing outdoors and I never say noto a party x'
p245
sS'KARGKAUJQPDD'
p246
S"Psychology student at Abertay DundeeNI  IG  hollyDon't match if you don't wanna chat please "
p247
sS'XJRMHRNOYSKE'
p248
S"Im ft  Sadly I am on tinder to actually find someone since its no happening when I'm out Im not looking for someone till after christmas just so i dont have to buy you a present Want to know more then you know what to do "
p249
sS'NNAXAOUYDBPM'
p250
g2
sS'SJJQCDFQNNZC'
p251
S' Studying Health and Social Nursing in Edinburgh  Also serious music addict and guitar playerI have a tattoo and I am ftyeah maybe consider those INSTAGRAM  fionacampbellGood banter or Good bye'
p252
sS'OBODTZPDVOKR'
p253
S'DrawingEdinburghAspiring Tattoo ArtistTwitter FamousLAInstagram lynseyallan'
p254
sS'DIYYSDNZHCLO'
p255
g2
sS'IRCGPZTLITOL'
p256
S'Studying law and French at the University of Edinburgh'
p257
sS'KUVIMEZLKKBS'
p258
S'Work at Edinburgh airport as a CSASnapchat  Kaylamouns'
p259
sS'HOFAASVXVFER'
p260
g2
sS'PWOBXUWPUFKM'
p261
S"I don't know why the photos are up more than once Instagram amberpNewly blondeIf you like girls with tattoos and a dirty sense of humour I'm your girlI'm also a mum he's  just in case you hate children he's my best friend and I love him even more than bacon Happy Swiping "
p262
sS'OQUMWJAHCFVP'
p263
S"I'm a fucking punmeister Looking for a drinking partner  someone to take me to Rotato for a jacket potato "
p264
sS'PTQTIXFIZBJI'
p265
S'I go to uni for the SnowsportsI bake a lot too '
p266
sS'QTTPJHHDVFSU'
p267
g2
sS'MYAKTCTQMWMD'
p268
S"I'm a fucking punmeister Looking for a drinking partner  someone to take me to Rotato for a jacket potato "
p269
sS'WZQTOYKVNURC'
p270
S'Instagram chelseakildayxSnapchat chelseakilday '
p271
sS'HUMAWWQVQXKP'
p272
S"Weybridge  SurreyPortsmouth UniElegant trippy chaotic flavourAbout meExtremely fond of facials and hair and facial hair Great at giving head Massages I love gin Apologies my Instagram doesn't have endless amount of selfies but there is the odd one in there to prove I'm a solid "
p273
sS'IRWJNJVYTJBY'
p274
S'Philosophy and Theology  University of Edinburgh '
p275
sS'PZCMEMTLCVJW'
p276
g2
sS'BBHZJVIMCTQF'
p277
g2
sS'LERXZFCAPAQY'
p278
S'Irish living in Edinburgh '
p279
sS'YGBWVUHGEBNL'
p280
S'nd year forensic student at GCU  FifeGlasgow Work at Knockhill racing circuit snapchatInstagram karapirie'
p281
sS'XBXQHQATYSCM'
p282
S'BarcelonaEdinburghNot a onenight stand girl materialInterests '
p283
sS'ACOAPISCDSHD'
p284
S'simmer down and pucker up'
p285
sS'YANWNYHFTXPE'
p286
g2
sS'FXTIIWNCPBKL'
p287
S'Instagram  chloejessicaxoSnapchat  chloejessicaxx'
p288
sS'LLLOSLWZAFRU'
p289
g2
sS'QBFKQYIVFERN'
p290
S'Studying in Edinburgh from Mallorca'
p291
sS'XNWVASBTEPRB'
p292
S" polyamorous anarcho queer feminist I'm in a serious relationship but we see other people outside it I'm currently looking for casual fun and to meet new people and make friends No jembles please          "
p293
sS'ZZKHFGSDVKYE'
p294
S'Just looking for peeps to chill and watch movies with '
p295
sS'WMRRCJUVXCTB'
p296
S''
p297
sS'IGYOFFKQONTO'
p298
g2
sS'FJYYXOHQFSYL'
p299
S'Canadian  just moved to EdinburghI just want someone who makes me laugh I make art snowboard and can do circus tricks'
p300
sS'YXFEOEZAEOEI'
p301
S''
p302
sS'FJKYAADFEHUD'
p303
S"Student at UofG  part time bar staff Lover of ss music rum writing and language ' redhead size  originally from Birmingham Ask and I'll answer "
p304
sS'NIVFYRTVAYYZ'
p305
S'Undefeated Lord of the Rings trivia championActresswhisky enthusiast'
p306
sS'TIAFFEAOXXZY'
p307
g2
sS'HWIXGZWUUSTY'
p308
S''
p309
sS'GGRAKOUKDQTR'
p310
S"I'm a fucking punmeister Looking for a drinking partner  someone to take me to Rotato for a jacket potato "
p311
sS'MNKAFXJWWMKH'
p312
g2
sS'WUFNNVDUYEKP'
p313
S"Shona I run my own business and I work part time I love both my jobsDunipace FalkirkDrive a black ixMy black labrador he's called Jger and he is cooler than you Pin Up Girl Tattoo on me thigh pinupdaftLooking for old fashioned dating then hopefully a relationship with the right personDon't message me if you're looking for help with a wank  Thanks "
p314
sS'BIZSMMTNMUVK'
p315
S'Slovakia  Scotland  University of St Andrews '
p316
sS'OHKRMCAXJGQQ'
p317
S'Snapchattaelorsmith  '
p318
sS'VXWWPWXIMABT'
p319
S''
p320
sS'DUNQMLSITAOE'
p321
S'If your looking for a fuck about then just swipe left  '
p322
sS'ZDYJYTXITSFZ'
p323
S'Eve  from falkirk I have two tattoos and a passion for music as an amateur drummer  Love a fun night out with my friends or a chilled night in '
p324
sS'LLHOEFPHFLLK'
p325
S''
p326
sS'BRTUEZHAHDZS'
p327
g2
sS'ITEEOWDPPBYT'
p328
S' Edinburgh'
p329
sS'AKRMAXSUNZDS'
p330
g2
sS'NZPZGFKARVWZ'
p331
S'psychology student at edinburgh uni bios are shit so just come chat to me ae '
p332
sS'WUNIBCLQMBPB'
p333
S"I'm a fucking punmeister Looking for a drinking partner  someone to take me to Rotato for a jacket potato "
p334
sS'WUQHQOXOXPOD'
p335
g2
sS'EWLUGCXNKTPF'
p336
S'From northern England Sunderland Student in Edinburgh'
p337
sS'OCGLQHUCJQQK'
p338
S''
p339
sS'GDNNFBUGOXAO'
p340
S'nd year Accounting student at Edinburgh UniFrom Fife'
p341
sS'PDNVWIIZPKTA'
p342
g2
sS'ZYPFUGTNVTJW'
p343
S"I like ambition it's attractive "
p344
sS'WFFVVKWQPYPQ'
p345
g2
sS'RITDOZBLMSRQ'
p346
S"Just finished uni  I work hard in my job which means I would love to spend my time off with someone special I like going out to the pub and chilling with friends I also like listening to lots of different types of musicI have a phobia of spiders Something that small should not have that many legs I love having a laugh and joking about as laughter is always the best medicine Can't wait to get more tattoos have a few alreadyPlease chat so we can get to know each other  Alison x"
p347
sS'JGYEDUSLJAXR'
p348
S'Instagram kymallan '
p349
sS'KXLWUGCDBRKX'
p350
g2
sS'NFXTOIRKCCGK'
p351
S"Bulgarian working in Manchester  'Life isn't about waiting for the storm to pass it is about learning how to dance in the rain'"
p352
sS'PNTLHGCPGHMJ'
p353
S'Never done anything like this before Friend has been raving about it Please be gentle with me '
p354
sS'OIMYTSHNTDSP'
p355
g2
sS'VKEHYIFKFWLN'
p356
S'Farmer and scientist Love all animals but sheep are my life '
p357
sS'GVMQZUCRTJTG'
p358
g2
sS'LWULFXOUQFTQ'
p359
S'Snapchat  janescobie '
p360
sS'DJEVEQKJBXIO'
p361
S' nd y UoE Will go on a date with a guy who knows how to work in CAD'
p362
sS'FMFFVWEPAGIL'
p363
S"I'm a fucking punmeister Looking for a drinking partner  someone to take me to Rotato for a jacket potato "
p364
sS'ZUTGRZWCKKIH'
p365
S'Edinburgh Allergic to cats and bullshit Please give me none '
p366
sS'DGKOPDYCLLKX'
p367
S"I'm a fucking punmeister Looking for a drinking partner  someone to take me to Rotato for a jacket potato "
p368
sS'QAIXMFWWIZSD'
p369
S''
p370
sS'OEXNYVUQJJAF'
p371
g2
sS'UYHLNFJKARHA'
p372
S'McGill Faculty of Law Living in Edinburgh Scotland until June I live to travel'
p373
sS'WWLXNZOTOFSD'
p374
S'what is haaaappeninFrom Northern Ireland  living in Edinburgh'
p375
sS'OPBRQIZEGUBU'
p376
S"I'm a fucking punmeister Looking for a drinking partner  someone to take me to Rotato for a jacket potato "
p377
sS'PGRSWEHCGYSM'
p378
S'Edinburgh Uni Medic Occasional blonde moments '
p379
sS'GRIUTBMXBJOJ'
p380
g2
sS'PDTJFUSUVIIP'
p381
S"Traveling Europe until the th Let's get a drink and see how awkward a date could be"
p382
sS'GXAYWNKEWFYZ'
p383
S'Work in an officeSnapchat  allannahh'
p384
sS'NGPFSQYWISSZ'
p385
S' dental nurse fife'
p386
sS'KIXAIPKJAATD'
p387
S''
p388
sS'VTFCXRKDVWIJ'
p389
S'Instagram lucygrace'
p390
sS'SFWZPVMBQUFO'
p391
S'ChesterEdinburghnd year vet medGenuinely want to meet my husband on here'
p392
sS'EQJRDPCZTGFC'
p393
S'Probably somewhere between ECA and my hometown of Oxford'
p394
sS'NVRKLDKBXCBK'
p395
S'Music books traveling shitty s films '
p396
sS'WGQTPTHJLHKD'
p397
g2
sS'EKKDGKTTEZZE'
p398
S"I'm a fucking punmeister Looking for a drinking partner  someone to take me to Rotato for a jacket potato "
p399
sS'FYBWGWSCDBIW'
p400
g2
sS'ADKSNNMUVPNF'
p401
S'Edinburgh Insta JACQX'
p402
sS'NPLDHSCMDWCO'
p403
S"EdinburghLondon Let's play carpenters first we get hammered then I nail you"
p404
sS'SYXLCGDUHKAZ'
p405
g2
sS'DOZWBYMZFEIB'
p406
g2
sS'DEMTMYXVROSW'
p407
S'st year University of Edinburgh  London gal'
p408
sS'KLFDFMJDVRWK'
p409
S"I am awful with this about me stuff so i am going to keep it short and sweet I'm an Edinburgh girl Work in retail Adore meeting new people Have the bestest group of girlys Have a couple of tattoo's Enjoy trying new things Will pretty much chat to anyone and everyone that will listen Snapchat sammywatsonxox Anything else you want to know send me a message                             "
p410
sS'XKIJVHLPYJHL'
p411
S'Snapchat  Instagram  lauraxxoxxBeauty Therapist Edinburgh'
p412
sS'XZYJBEPMOMYD'
p413
S''
p414
sS'ZZILULPKBMKE'
p415
g2
sS'OAPTVHRENLPR'
p416
g2
sS'TDNNLCKXYBVF'
p417
S'Kirsty Gold                                                           Scottish                                                                                                           snapchat  kirstypamela                                                                                                            My car is my baby                                              Tattooed   At college studying Professional Cookery                             '
p418
sS'URPXTAXWWEUS'
p419
g2
sS'ZIWDRAEDMXMR'
p420
S'born in germany with polish parents on an exchange year in edinburgh studying maths playing the violin enyoing arts jazz painting'
p421
sS'NPIXCDBSIGUK'
p422
S"I'm a fucking punmeister Looking for a drinking partner  someone to take me to Rotato for a jacket potato "
p423
sS'QQYCGVVFZBWG'
p424
S"I'm a fucking punmeister Looking for a drinking partner  someone to take me to Rotato for a jacket potato "
p425
sS'EOGBKKODCPTY'
p426
S'First year maths student Idk how to write an appealing bio so I guess u just gotta judge me by my face'
p427
sS'MWWFVBPREUHX'
p428
S''
p429
sS'VDKIFBWPKSEQ'
p430
S'French Just looking for a funny or interesting chat Maybe more according to the chat'
p431
sS'HGTJAXFPNVPN'
p432
g2
sS'IMQAEMBSZNHN'
p433
S'Art and fashion student'
p434
sS'BUNOFZSERFXR'
p435
S'nd year law student at the university of edinburghvegetarianwine and gigs are my favouritei play guitarIG  tanyawalterss'
p436
sS'VFXMCAPXCSFF'
p437
S''
p438
sS'CGXVJACVOUFN'
p439
S'Snapchat  siobahn'
p440
sS'XESHSGPWUBSC'
p441
S"I'm a fucking punmeister Looking for a drinking partner  someone to take me to Rotato for a jacket potato "
p442
sS'YFEVRRKHYONL'
p443
g2
sS'ZSBPWHPFOKII'
p444
S''
p445
sS'PXLXQAQVEJBP'
p446
S'Belfast  Edinburgh'
p447
sS'CLVKAPZUGHBU'
p448
g2
sS'TYPFLTJICMYZ'
p449
S'Live in Edinburgh work in London '
p450
sS'NJJSEZXYYICX'
p451
S''
p452
sS'ROBXGBQXIHDU'
p453
S'Mech Eng student at Edinburgh'
p454
sS'ASYYXPPWHAIO'
p455
g2
sS'FCKPHWJTCGYZ'
p456
S'LondonEdinburgh Studying Arabic and Persian '
p457
sS'SITRWVGUGZLE'
p458
S' Business Management Student Countryside lover from EdinburghEast Lothian'
p459
sS'IMTKHRSXEHVM'
p460
g2
sS'LWDXPNOTEFVA'
p461
S"Love the life you live  from Edinburgh Love tattoos and piercings Anything you want to know just ask Snapchat meganmclayDon't be afraid to message me first "
p462
sS'WKDBATTLHCSB'
p463
S'nd year forensic student at GCU  FifeGlasgow Work at Knockhill racing circuit snapchatInstagram karapirie'
p464
sS'OCEIYSDULFZN'
p465
g2
sS'MQIUUZJENLWF'
p466
S"Bo'ness girl I'm not fit or thin I'm on the chubby side but who cares really Love tattoos only have one but saving for another Love to laugh and smile I try to cheer everybody up when needed Hope to make new friend and who knows what else Snapchat meggylouhammy "
p467
sS'RNRWYAYSCAKH'
p468
S' Lifeguard'
p469
sS'CGFKUTYTNWAM'
p470
S"embarrassingly stereotypical art student unless you're a pisces theres not much point in trying tbh  "
p471
sS'XFBXJENXCOMN'
p472
S''
p473
sS'VOICJJSHIKWU'
p474
S'I am a tea addict who dabbles in property '
p475
sS'ZGBCZVZPGXMI'
p476
S''
p477
sS'JFKUJDPXSXIS'
p478
S"Love sarcasmPeoples facial expressions Edinburgh  ft There's a huge crack in my screen So playing tinder is a bit of Russian roulette atm "
p479
sS'TQQGTWKMMTBH'
p480
S'Love sports love travels'
p481
sS'JVZXCKUCLCZA'
p482
S''
p483
sS'TLBSXVJOIQVW'
p484
g2
sS'ENTJTKCPCMNU'
p485
S'Down from Scotland '
p486
sS'PNGDGHRZSLSV'
p487
S"I'm a fucking punmeister Looking for a drinking partner  someone to take me to Rotato for a jacket potato "
p488
sS'IXRSVSHBVRZJ'
p489
S' snapchat emmajulie  Mum of  from Musselburgh '
p490
sS'XGXLONTEDLYQ'
p491
g2
sS'MHXTNAAGHQTP'
p492
S''
p493
sS'GIBIEKNTPFQS'
p494
S"EdinburghStudying maths at Heriot WattKeeping up training for tough mudder next year although looking at me you'd never think it ft  tiny don't laugh "
p495
sS'OOENSTPBGOYU'
p496
S"part time gig photographer full time bar wench i've embarrassed myself in front of sir ian mckellan in tesco so there's that "
p497
sS'PNOVBBXJDWHD'
p498
S'Hi  ArchitectLove sports'
p499
sS'CAHIAAXDKKMJ'
p500
S'Borders girl currently in Edinburgh studying Health  Fitness Hoping to travel within the next year '
p501
sS'KNKMQNTCJEPL'
p502
S'Snapchat aimeenisbetx FifeLive the life you love love the life you live'
p503
sS'KKHYHJAIOTXR'
p504
S''
p505
sS'YHURCHAMTHAR'
p506
S'Book nerd and coffee snob  Fun friendly and full figuredor fat depends if you want to sugar coat it or not either way I am who I am Positively Honest'
p507
sS'EWMILCUUCMIE'
p508
S"I am currently wasting my life away on video games pretentious cinematography hipster bullshit music and just generally being a nerd Whoever said I wasn't a cultured and sophisticated lady was obviously incorrect "
p509
sS'SFKXAAONJBLW'
p510
g2
sS'RJNHTKHOTTFK'
p511
S"I'm no  ha  play football Edinburgh X "
p512
sS'FANDODTUOJWZ'
p513
S'Gym  Dance  Cook  Bake  Love  Travel  Be crazy  Be happyPeople should smile more Personal Trainer Student'
p514
sS'YGCCWMOIECYU'
p515
S"Just seeing what happens Straight forward girl to get along with Trying to find the balance between talking first and the guy thinking nice the girl chats first or a guy that thinks oh she's too eager "
p516
sS'SMNBHJGHEIZQ'
p517
g2
sS'AWENCRBOMYWL'
p518
S"I'm a fucking punmeister Looking for a drinking partner  someone to take me to Rotato for a jacket potato "
p519
sS'SLLSBXXIIANO'
p520
S'ChesterEdinburghnd year vet medGenuinely want to meet my husband on here'
p521
sS'JHOXCXQABMFN'
p522
S'Snapchat  jimmyjamjew '
p523
sS'VKNZMHQMYOPH'
p524
S'Just meeting new people Nothing more nothing less '
p525
sS'ZUWGOKJQJGEY'
p526
S'Gettysburg College Basketball and track'
p527
sS'ZZGHXLYNUQND'
p528
S"I'm like a lightbulb I light up the room when you turn me on and if you stand on me you'll end up in hospital"
p529
sS'WRORDRPNIPQC'
p530
g2
sS'VUMXCTDGZOZM'
p531
g2
sS'RNVZOUQBIJEW'
p532
S''
p533
sS'FIFJSXXQSVSD'
p534
S''
p535
sS'JNDWOCQDUPGJ'
p536
S''
p537
sS'LJZKMWHVVMKL'
p538
S'Irish living in Edinburgh '
p539
sS'RSIEVFARIPCQ'
p540
S' snapchat emmajulie  Mum of  from Musselburgh '
p541
sS'CYOJOMECWLDR'
p542
S'Staff nurse Voice of the Corran FerryI like caramel lattes and Paolo Nutini '
p543
sS'UGAVVYDZCADW'
p544
S"I'm a fucking punmeister Looking for a drinking partner  someone to take me to Rotato for a jacket potato "
p545
sS'YVYFPMUQNYCU'
p546
S'Journalism student Edinburgh'
p547
sS'JQDWXRHKEINB'
p548
g2
sS'YVMNISYVKNAX'
p549
S''
p550
sS'XMCRBCHWVUAX'
p551
S'If ye dinny laugh ye greetEdinburgh ScotlandLa gente esta muy loca'
p552
sS'NBKIVXFGBAKV'
p553
S"I'm a fucking punmeister Looking for a drinking partner  someone to take me to Rotato for a jacket potato "
p554
sS'QSPYUIOSYMPY'
p555
S' Medical sciences studentEdinbrah Looking for a soulmate obvz'
p556
sS'VVHSZPCWTUBA'
p557
S'Edinburgh and AberdeenStudying a useless degree and I love it Apparently I look like the crescent moon emojiWe should hang out '
p558
sS'RSHPFYPNCHND'
p559
S"EdinburghScottish ' redhead Not looking for a serious relationship Likes tall men uniforms beautiful women music dancing outdoors going out staying in watching Netflix being comfy getting dressed up laughing being spontaneous playing practical jokes tattoos  more I also have a very high sex drive bit of a wild child love house parties You only live once and I going to live it to the full so I'd love to find a few sexy people to join me and be my partners in crime "
p560
sS'QOTLKJLKNMWM'
p561
S"Don't take yourself too seriously "
p562
sS'BDDUKFDFEQQG'
p563
g2
sS'DLKIKKRPUCMB'
p564
S'My name is Lindsay im  from Stirling have two wonderful nephews Iain  and Thomas love them to bits Want to know more just ask D life goes on always look forward never look back'
p565
sS'JSPNULPIGRJO'
p566
S'Give me bestworst your chat up line '
p567
sS'SGMDKRDTEZRJ'
p568
S"I'm a fucking punmeister Looking for a drinking partner  someone to take me to Rotato for a jacket potato "
p569
sS'RCSCMMWFXSZP'
p570
g2
sS'XKHUDQLLEHEY'
p571
S''
p572
sS'LGAHUQXGWMDP'
p573
g2
sS'YEARRGYGFRUS'
p574
g2
sS'XYRIBSRTWSWA'
p575
g2
sS'KMBBNOYRTWTU'
p576
S'Edinburgh girl '
p577
sS'QXUCXVOTNKCX'
p578
S'Copywriter for a digital marketing agencyLove games photography and reading in a twist that no one saw coming'
p579
sS'KVDAHELYUMOE'
p580
S"Easy goingI'm chubby love me or hate meNot here just for funBe honestDon't fuck me about"
p581
sS'EXHKHXQZWTFP'
p582
S'Live in Edinburgh and work for the farm assurance office Go to young farmers and have had ponies since I was a toddler'
p583
sS'TZXGKPGQNGQQ'
p584
S"Netflix and chill is stupidly overrated  s'all about ghost hunting climbing trees and drinking excess amounts of gin and cocktailsAlso since height seems to be a compulsory factor   I am ' of sheer wonder"
p585
sS'QYRDAZUPWUQC'
p586
g2
sS'OEMHPUXCLGKC'
p587
g2
sS'ASCZOGGHPHRD'
p588
S'Work in perth and live just outside perthLike reading going to the gym cooking and having fun No much else to say If you want to know more swipe right'
p589
sS'BPEYJSSEFXCV'
p590
S" polyamorous anarcho queer feminist I'm in a serious relationship but we see other people outside it I'm currently looking for casual fun and to meet new people and make friends No jembles please          "
p591
sS'AXILXAFCCDQM'
p592
S'Snapchat  siobahn'
p593
sS'YCTWPFKMXWKZ'
p594
S'Gettysburg College Basketball and track'
p595
sS'QAFVXMPYZGUR'
p596
S'Edinburgh Midwifery student '
p597
sS'UTUXINXOFDYI'
p598
S" Claire  Don't Be Shy  "
p599
sS'EIOFKSFJWBBZ'
p600
S''
p601
sS'EHJCASEBPOFQ'
p602
S' Edinburgh uni psychology student '
p603
sS'ITPDQUEBIADJ'
p604
g2
sS'PNZKMZKIYQIS'
p605
S'Caitlyn Strathclyde university childhood practiceManager of an out of school care setting Anything else just ask '
p606
sS'FRPYMCFJNXTV'
p607
S"EdinburghNursery Practitioner I'm an easy going girl who enjoys meeting new people I enjoying spending time with friends and prefer to be busy when I'm not busy at work I'm either at the gym with mates or enjoying a good movie Looking for a date "
p608
sS'RKSDYHWTSXTN'
p609
g2
sS'WMBKRVRMWCIA'
p610
S'Charlotteee  snapchat Fife '
p611
sS'GGRUYLXGCXKZ'
p612
S'Business student living it up in the big city '
p613
sS'ZTJUURMWBEED'
p614
S'Probably somewhere between ECA and my hometown of Oxford'
p615
sS'TUPTMDFOEUPP'
p616
S''
p617
sS'ZHEBKJDSFBOU'
p618
S'Beauty therapist Snapchat  joannapullar Instagram  joannajoyy'
p619
sS'DNZLFEMANUWT'
p620
S'Social work student at Glasgow Caledonian uni '
p621
sS'IJXWRLSYSTXP'
p622
S' University of Edinburgh for the year getting my MSc '
p623
sS'LCYAGMAZILLV'
p624
S'English language student at Edinburgh Uni Like music and books and cooking and getting drunk'
p625
sS'SZJXACJDSCJG'
p626
S"Scottish th year pychology student work in a shoe shop Live just outside of Dundee Enjoy reading music and watching tv and films a lot of documentaries Got a few tattoos Tea and coffee adict Learning to play the ukulele and penny boardHere to rectify the fact that I never meet new peoplePretty easy going and drama free Enjoy a night at the pub or at home with friends more but do go on occassional nights out Love a meal out food and gin make me happy  Big kid at heartPeople who don't like pasta can't be trusted"
p627
sS'FNTDTATWIHQY'
p628
S'Edinburgh uni '
p629
sS'HWEDHGPSNWXU'
p630
S'Snapchat robocxo '
p631
sS'BUUCERZRNHNR'
p632
S"I'm from sunny Malaysia Third year of English literature and theatre studies at University of Glasgow Enjoy dancing rock climbing and just started horse riding  also I'm a major foodie "
p633
sS'SYKAFAVZHIBJ'
p634
g2
sS'UZLSDJPSYYIP'
p635
S'I have a Netflix subscription and a double bed '
p636
sS'QBFHSHSTTAHJ'
p637
S'Edin Uni rd Year'
p638
sS'ILNHTJKTENVA'
p639
S'Melissa    single  snapchat Melclark number ask for '
p640
sS'OEWXOMWCTOKT'
p641
S'A wee X file I like cartoons and science fiction '
p642
sS'YQHMYKJOTDIR'
p643
S'I like dogs more than people'
p644
sS'KBXYYUJIWKDA'
p645
S'rd year student at Dundee UniLike nights out xbox days long walks and good chat Cuddles always welcome  the one on the left in the group photo                                                                                        snapchat morven '
p646
sS'FKYFROYTFUUW'
p647
g2
sS'PXFLARPDAKNN'
p648
S"Weybridge  SurreyPortsmouth UniElegant trippy chaotic flavourAbout meExtremely fond of facials and hair and facial hair Great at giving head Massages I love gin Apologies my Instagram doesn't have endless amount of selfies but there is the odd one in there to prove I'm a solid "
p649
sS'UKBEOKFATBQU'
p650
S"I'm a fucking punmeister Looking for a drinking partner  someone to take me to Rotato for a jacket potato "
p651
sS'RXVXBFXDUDJU'
p652
g2
sS'TFSJSKZHOHLC'
p653
S"There are four important things that you need to know about me I enjoy binge watching series or ridiculous documentaries until I bleed from the eyes and ruining my life in general I regularly wash my hair with shower gel by accident and lastly I could probably fire through a pizza or majority of food items for that matter in  seconds flat Hope you're impressedGrandSnapchat leonnabrownGo on brighten my life up a bit "
p654
sS'UFTIRWKUTMXY'
p655
S'Studying Business '
p656
sS'CYZUXZSPJDSS'
p657
S'Studying Business '
p658
sS'UVACWEXPBYZW'
p659
S"Just moved back to Edinburgh after being in Florida for  years Please don't swipe right unless you actually want a conversation I like honest dominant men who are protective Nice feet and hairy chests too "
p660
sS'ALMLFBETEHRI'
p661
S"I'm nice apparently "
p662
sS'ZWLPDXBRSSFU'
p663
S"Hi Norwegian studying physiotherapy in EdinburghMusic  footballI'm looking for someone with a PS or Xbox with COD so I can come over and shoot something "
p664
sS'NBMTSGVNJPBJ'
p665
g2
sS'HXADZCZAWBDW'
p666
g2
sS'MVSUBTFOOFWY'
p667
S'Glasgow '
p668
sS'QOBLBGLKSEUM'
p669
S''
p670
sS'YKOCVKILYRLR'
p671
S'Originally from Shetland now an Occupational Therapy student at Glasgow Caledonian Terrible at starting the conversation on here so say hi'
p672
sS'XBOFVFYKAOPS'
p673
S''
p674
sS'LDDIJTKALVGF'
p675
g2
sS'PADTRYCMBBSV'
p676
S'USA University of Edinburgh Postgrad I like a side of vodka with my orange juice at breakfast Netflix connoisseur Talk nerdy to me   '
p677
sS'FDNLMOKDKDLJ'
p678
g2
sS'GITFYKMGPRGN'
p679
S'Studying business in edinburgh'
p680
sS'EHWOLFTOOEHV'
p681
S"From LanarkI'm a carerTaken Snapchat  ashleyelder "
p682
sS'ZHSWWKXUKUSA'
p683
S'McGill Faculty of Law Living in Edinburgh Scotland until June I live to travel'
p684
sS'IXFWHAPGLHLW'
p685
S''
p686
sS'OWUHLTWZWTVX'
p687
S' not Snapchatt amylownieee '
p688
sS'HLSNOCWKYETA'
p689
g2
sS'TWDSKQURZVWF'
p690
S''
p691
sS'MGZJPIAUJNMT'
p692
g2
sS'CDUOXKKQDGGB'
p693
S''
p694
sS'AYLKQVYJNODL'
p695
S'Studying law and French at the University of Edinburgh'
p696
sS'MXIESSGHCTEJ'
p697
S'soft indie grunge'
p698
sS'FATHRLTFLANU'
p699
S'Last year of uni  Speak a few languages Love to dance Can salsa and bachataLove cookingWork in retail and training on the sideHoping to be an officer soon '
p700
sS'QBQNVVITQDHB'
p701
S''
p702
sS'KBGLLUFNADPR'
p703
S'Chemistry student at University of EdinburghLove my dug more than anyone else '
p704
sS'TMMWBASEVPUH'
p705
S'Laughter is the best medicine Jayac is so amazingsexy D  I will not kill him if I find this'
p706
sS'VRHCRLUQLAND'
p707
S'Add my snapchat siobhanonlymatches add my instagram siobhan for most recent pictures '
p708
sS'CKBQWIJKQFKY'
p709
S"Acting student edinburgh if you don't like messy eaters then i'm not your gal "
p710
sS'VYBPHJZMJNKF'
p711
g2
sS'AYJYWMWDQZWI'
p712
S'Accounting student at Herriot Watt '
p713
sS'VBFQPOQLPNUZ'
p714
S'Studying chemical physics at Edinburgh uni Bilingual and love to travel for real though'
p715
sS'QKFSVNTBOVMK'
p716
S''
p717
sS'HUCTAHAHAOWX'
p718
S"I'm a fucking punmeister Looking for a drinking partner  someone to take me to Rotato for a jacket potato "
p719
sS'MXDUWMKRYEKA'
p720
g2
sS'JFXOKAEVTDHW'
p721
S''
p722
sS'DMISRKMLDKKC'
p723
g2
sS'MTGXVMENDZIC'
p724
S'I hate snailsSC  rebeccapolsonx'
p725
sS'TLSLUDDUWVWD'
p726
S"I'm a fucking punmeister Looking for a drinking partner  someone to take me to Rotato for a jacket potato "
p727
sS'TIVAJFCUNMAV'
p728
g2
sS'IHUCNCYMVROS'
p729
g2
sS'OOMJDSKGNUJU'
p730
S"Half Turkish festival and events student  bartender in Edinburgh steak connoisseur and gaming addict  aim to organise E one day  Little lass in the pool is my cousin ain't she a sweetie  oh also guys that have 'netflix' in their bios can u not "
p731
sS'GNHIKHKJCUSM'
p732
S"I'm  not SpainScotlandLove travellingNursingDanceMoviesInstagram bryonycharleson"
p733
sS'RJFRNZUKPXRH'
p734
g2
sS'HRYSSLNRXXWI'
p735
S''
p736
sS'GKVQRXRCYQOK'
p737
g2
sS'CITBCXAJWMTB'
p738
S"Studying primary teaching at Glasgow University  I know so many ginger facts it's actually quite sad "
p739
sS'VYLQUYQIMQPV'
p740
S"I have no idea how to talk on this thing so if you could chat first that'd be fab not just looking for a bit of fun so don't even bother asking The child in the photo is my nephew just to clear that up I drink and smoke excessively and will never pass up on a chance to get pissed  I study NC Applied Science at Edinburgh college Anything else you want to know just ask"
p741
sS'KMFDSJYHVIUC'
p742
S'Snapchat  carriebainnn'
p743
sS'WCSEAFOCYNFI'
p744
S"Drummer English geek and the one on the left pulling the stupid face Decided Yorkshire wasn't quite cold enough so shall be heading up to Edinburgh Uni in September"
p745
sS'JXWCWUKVVHRW'
p746
S''
p747
sS'GAIAYDISGOWY'
p748
S'American studying in Edinburgh '
p749
sS'PUVFKWUZBDDI'
p750
S'nd year law student at the university of edinburghvegetarianwine and gigs are my favouritei play guitarIG  tanyawalterss'
p751
sS'PQRWESDHBAJX'
p752
g2
sS'IQRFOKMQHRHG'
p753
S'From Edinburgh  Snapchat ashleighx'
p754
sS'NVAQCZBYUSYW'
p755
g2
sS'FFGOEEGKAMWK'
p756
S"Edinburgh Law GraduateJack Daniels enthusiast' on a good hair dayHobbies include trying to get less awful at guitar and watching disney movies in the bathInstagram ines"
p757
sS'WNNFQKKXQPBN'
p758
S'Never done anything like this before Friend has been raving about it Please be gentle with me '
p759
sS'JBMXQYLRMQET'
p760
S'StudentScottish Short'
p761
sS'HPWSBRHTZYZK'
p762
S''
p763
sS'OVDJPPLXMQSO'
p764
g2
sS'AHBLPPFSKLPI'
p765
S'soft indie grunge'
p766
sS'GQTBEXKJUJZL'
p767
g2
sS'KVOAWHOIXMHC'
p768
S'I once watched Les Mis without crying'
p769
sS'UDVRDUGAXKPO'
p770
S'Russian  Nurse in the making Animal lover I love playing volleyball curling up in bed with a good book listening to music and sketching Also enjoy cooking and an occasional night outLooking to meet new people and see what happens '
p771
sS'TNVKUXDQSTHO'
p772
S"I'm a fucking punmeister Looking for a drinking partner  someone to take me to Rotato for a jacket potato "
p773
sS'RQTCPURSLNQA'
p774
S'From Glasgow studying in EdinburghArt student  th yearBit of a movie geekGot a motorbike Giraffes are kinda my thing '
p775
sS'MXPGARWFZKYG'
p776
S'Half Hong Kong half Scottish  ex firefighter and now studying accounting  just moved to Edinburgh '
p777
sS'TXGGRTIHXKJN'
p778
S'Snapchat samhadden '
p779
sS'LXBEOPXIHVLK'
p780
S'Lived in Finland and New Zealand nowadays in Edinburgh for uni  Excited about life '
p781
sS'RKSUBJYTAJCJ'
p782
g2
sS'PTZJRAAFIXYU'
p783
S" Scotland Let's chat  "
p784
sS'PGCQAYPCCNZO'
p785
g2
sS'UKGQPNLKYLCS'
p786
g2
sS'TBSYKFVHNCXJ'
p787
g2
sS'RIPAMCBYZQWF'
p788
S''
p789
sS'PFHTMPJDWNYL'
p790
g2
sS'TGDQIMRCRLLQ'
p791
S"Just finished uni  I work hard in my job which means I would love to spend my time off with someone special I like going out to the pub and chilling with friends I also like listening to lots of different types of musicI have a phobia of spiders Something that small should not have that many legs I love having a laugh and joking about as laughter is always the best medicine Can't wait to get more tattoos have a few alreadyPlease chat so we can get to know each other  Alison x"
p792
sS'XHHHAQLVWOGS'
p793
S' Studying Health and Social Nursing in Edinburgh  Also serious music addict and guitar playerI have a tattoo and I am ftyeah maybe consider those INSTAGRAM  fionacampbellGood banter or Good bye'
p794
sS'ROWSRANWAKOR'
p795
S"I like spending time with friends and family going out for dinner going to the cinema and cooking I've done ice skating since I was a little and like playingwatching most sports "
p796
sS'YGVZEXKWBEKS'
p797
g2
sS'OQWFBAIWRPZJ'
p798
g2
sS'FQITSTKDXDCZ'
p799
S'I jump out of bed in the morning and promptly turn my swag on '
p800
sS'HTDJETDAYQLR'
p801
S"I'm a fucking punmeister Looking for a drinking partner  someone to take me to Rotato for a jacket potato "
p802
sS'UCXUUZMPHBGR'
p803
S'Got a baby girl '
p804
sS'ZWIBBQMOUBCH'
p805
S'Taylor ParisCool Cool cool cool insta  taylorparis'
p806
sS'LOSOJSMXCBUP'
p807
S'Hi                              '
p808
sS'KLDMPDPYSILA'
p809
S''
p810
sS'MGXUJHMFCLVS'
p811
S'Snapchat jadeboydxo'
p812
sS'VRDSFUBWSXEG'
p813
S'Radiography student Edinburgh '
p814
sS'WKLGJCTRLBAR'
p815
S"I'm a daydreamer and a nightthinker aka I go to bed at about am most nightsnd year theatre and film student  big tea lover and Christmas obsessedI'm not the kinda girl you will meet in a club I like hanging out in my flat or going out to a pub with my friends Slytherin and proud  I write scripts in my free time and I spend a lot of time with my friends who are all massive geeksnerds what ever you call them who I mum  but they keep me laughing which I love  "
p816
sS'ROAMFZNUNFQK'
p817
S"part time gig photographer full time bar wench i've embarrassed myself in front of sir ian mckellan in tesco so there's that "
p818
sS'JWRLUJMXAZGE'
p819
S'A firm believer that hangovers should not be dealt with aloneGeordie girl '
p820
sS'ZFCJTBPFATXN'
p821
S"I would quite like some one to kick about and explore with butterflies would be nice tooTove Lo Moments appears to be my song right nowI'm final year psychology at Stirling so my brain is usually full of peculiar theoriesI also like to dance and sew and drink nice beer"
p822
sS'DDMHMNAKCQJZ'
p823
S'EdinburghTattoosSnapchat hollihunterx'
p824
sS'YWOLZGOEJIRS'
p825
S"I'm a fucking punmeister Looking for a drinking partner  someone to take me to Rotato for a jacket potato "
p826
sS'GMSQBQOPGQBY'
p827
S"I AM NOT A PSYCHO'I'm  and Looking for someone who wants to drink some beers and will let me use their bath"
p828
sS'PYOUDWIYRPDS'
p829
S''
p830
sS'FRMABJCDLQLL'
p831
S''
p832
sS'MLFTRDZWEJTG'
p833
S"My Name is Angela  and have an amazing little girl who i love with all my life she has changed me for the better my daughter my life   going back to study to become a nurse in August I can't wait "
p834
sS'EGABCUNXGZFW'
p835
S'Snap me  Sarahwilson '
p836
sS'LQXNWXWOMQKX'
p837
S'Ig sofiaellenadolfina snap sofiadolfina floorball'
p838
sS'JMWIIYNUDUXP'
p839
g2
sS'FVOVSZDSFKBG'
p840
g2
sS'OCBMRNPHUROR'
p841
S"Currently living in the wrong place for someone who can't stand the coldBut when life hands you"
p842
sS'ODQMWOCBMRXV'
p843
S''
p844
sS'MZEXELUYQNZU'
p845
S'Bsc Hon in physics Back in Edinburgh after a year teaching in ShanghaiI missed Percy Pigs a lot Peanut butter NCIS and Jumpers'
p846
sS'FCGCRPIQAEPH'
p847
S'Aberdeenaberfeldy In Glasgow for a couple months training Love me a selfie Instagram louiset'
p848
sS'DMDXZIWRTBHU'
p849
S'Snapchat  chloe'
p850
sS'FFVIRTZFVQIS'
p851
S'Student nurse in Edinburgh '
p852
sS'HBSDJDVXDYMT'
p853
S'Instagram  ejfieldxDo you ever drive on the motorway and see someone fit and wish you could give them your number somehow'
p854
sS'QKZSMPERTMNG'
p855
S'Practising christian  Bae aint bae if bae dont pray Budding traveller and food lover   In the wise words of TI  no mediocre '
p856
sS'IKFJGZLFSJGV'
p857
S'Edinburgh UniBeen stuck on the last level of snail mail for  years HelpSometimes I put paper in the general waste '
p858
sS'DRRNQYIJXBCE'
p859
S'UoESailing singing drinking socialising etc '
p860
sS'JTCBLIACUHRG'
p861
g2
sS'HXYONSNQBNQI'
p862
S'Looking for friends and more than friends Feeling lonely far from homeIf you love long walks in the park or in the beach The women for you is not only for sex When swipe right and meet up  xx'
p863
sS'EZEWCLMZTWTB'
p864
S'Oot every weekendCan lick ma own nips xMa snap chat is  bethanshankie'
p865
sS'HEVLTPZZMRPN'
p866
S"I'm a fucking punmeister Looking for a drinking partner  someone to take me to Rotato for a jacket potato "
p867
sS'JIROQLGAWADC'
p868
S"I identify with Spinelli from Recess on a spiritual level and I'm shamelessly emotionally attached to my bike Also my name is Zo but Tinder apparently can't handle diacritics What a shame "
p869
sS'BPJKLYPTQULC'
p870
S'History of Art Edinburgh '
p871
sS'NZAMVLSSYCWC'
p872
S'media student at qmu  full time alcohol enthusiast '
p873
sS'MTKSXCRKZHPH'
p874
S'Instagram chloconnollySnap chat chloecon'
p875
sS'RHYCCWOYSQOY'
p876
S'I jump out of bed in the morning and promptly turn my swag on '
p877
sS'RYCVFHIUPACO'
p878
g2
sS'JEICRXHVRFKH'
p879
g2
sS'SXNRVPNFMYND'
p880
S'instagram amydunbar '
p881
sS'CZVAPKYSPZUV'
p882
g2
sS'FBAHGALMXDVO'
p883
g2
sS'POVPPCVVEXTA'
p884
g2
sS'AOEVVUKAGLRL'
p885
S'Instagram  mdrummond '
p886
sS'EFCBIUEGLSHJ'
p887
S'Liverpool  EdinburghStudent NurseTea addictParty girl'
p888
sS'HNIOUFANSLQP'
p889
S' dental nurse fife'
p890
sS'KXYWYFBTDDYH'
p891
g2
sS'TRTZAJQTFTKZ'
p892
S'Instagram olivia '
p893
sS'WPCRCLJZBOFP'
p894
S'Snapchat  Helenainslie'
p895
sS'LYVXYUEUWCAM'
p896
S"I'm hilarious tall and I like good music That's about it Chat to me and we can be pals "
p897
sS'HGKTMFVFWXZD'
p898
S"I'm a fucking punmeister Looking for a drinking partner  someone to take me to Rotato for a jacket potato "
p899
sS'KSLZDVDEOQTR'
p900
S"I never send x's nothing personalTry impress meHigh expectationsEither boogie hard or go home "
p901
sS'HQVUOTFATEET'
p902
S'Ehm So hi Im the one of the left Yo'
p903
sS'CDXFSNWEOPWW'
p904
S"Started fresh on tinder here Maybe this time round it won't be so disappointing rd year psychology student Born  raised in Glasgow Anything else yOu want to know then just ask meGive me your chat "
p905
sS'JDIYUTBHCYOZ'
p906
S''
p907
sS'MKFZAMEQNILC'
p908
S'Instagram  chloejessicaxoSnapchat  chloejessicaxx'
p909
sS'TFRDEAXKBVZV'
p910
S'QMUEvent and business management '
p911
sS'UGULILQRNWNP'
p912
S'Snapchat xmorganxInstagram xmorganxDunfermlineEdinburgh Scotland Nursing student at Edinburgh Napier university '
p913
sS'VWRBGGEWSVUG'
p914
S"Accountancy and finance student at Stirling uni   'Snapchat catherinemIf you're not up for a conversation don't bother swiping right  "
p915
sS'VYASZEOKEHGL'
p916
S"I'm a fucking punmeister Looking for a drinking partner  someone to take me to Rotato for a jacket potato "
p917
sS'RRJOTMKHEYDH'
p918
S'Aspiring actormusician Lover of all things chicken Queen of mediocre puns '
p919
sS'SUVHNHUFDYAO'
p920
S'snap chat ashwaaay'
p921
sS'XQWBECWVSTZU'
p922
S"I'm new in Edinburgh and just want to meet new people "
p923
sS'BGAKQPZGYXAA'
p924
g2
sS'NQOWUWJLARTA'
p925
S"I'm a fucking punmeister Looking for a drinking partner  someone to take me to Rotato for a jacket potato "
p926
sS'WUTEGVHUNOMK'
p927
S"I'm a fucking punmeister Looking for a drinking partner  someone to take me to Rotato for a jacket potato "
p928
sS'XAQPLFCBFMRS'
p929
S"Je m'appelle Gayle I have cracked my head open a few times and I broke my collar bone the first day snowboarding on real snow I'm slightly clumsyI love dogs and stags but I don't think that it would practical to have a pet deerI love stationery not to be confused with stationary However I also quite like being stationary but not too much I like changing car wheels I don't like potholes "
p930
sS'DPHFOPVXPHWF'
p931
S'Leanne  Single '
p932
sS'LDQRXYFVBHWJ'
p933
g2
sS'DOGOPROYHODB'
p934
S'An English girl living in Scotland and studying PhilosophyPolitics at Edinburgh nd yearYorkshire born'
p935
sS'QSNAMNCDFKYN'
p936
S'Edinburgh Snapchat  nevadaxFacebook  Nevada Fitzner '
p937
sS'JVAHYXVXHCOZ'
p938
S'Looking for my Chuck Bass '
p939
sS'JGJGJLKCNRXS'
p940
g2
sS'MXKBETUCQBEX'
p941
S'Oot every weekendCan lick ma own nips xMa snap chat is  bethanshankie'
p942
sS'DCFWMJACNULW'
p943
S"Looking for something more seriousYes I know I look like Maisie WilliamsOutdoorsy types Never happier than when I'm out in the middle of nowhere Enjoy a night out with my little fam second photo we can be an odd bunch Also love a night in with good food and Netflix's Also wish I could delete half of my fb interests I was young and facebook was new to me Please don't judge  "
p944
sS'LCJNKKGBRZQQ'
p945
S"It's unfair that breakfast in bed is romantic but dinner in bed is a cry for help"
p946
sS'EWCNREYAKWSC'
p947
S"EdinburghLondon Let's play carpenters first we get hammered then I nail you"
p948
sS'LDMHVBGBGDVC'
p949
g2
sS'GUZMDBWAMEXA'
p950
S"I'm a fucking punmeister Looking for a drinking partner  someone to take me to Rotato for a jacket potato "
p951
sS'DYGIBQJBLAFU'
p952
S"snapchat amyproud Instagram amyyproud I'm actually  just Facebook doesn't let me change itMost likely won't talk first "
p953
sS'EZMLOWXSJGWP'
p954
S'London  Edinburgh'
p955
sS'LOJUMYIQBBSN'
p956
g2
sS'UWSUOTQBQMBZ'
p957
S''
p958
sS'XXTHASADDLTT'
p959
S'Snapchat  caznelly'
p960
sS'ROYSPWULNVLR'
p961
g2
sS'QDZLEKFZPNMJ'
p962
S'rd year at uni studying AccountsWould love to travel the world one day '
p963
sS'ISJSAPOXWJGB'
p964
S"I'm a fucking punmeister Looking for a drinking partner  someone to take me to Rotato for a jacket potato "
p965
sS'MGPPMOKVSFRW'
p966
S'If you dinny like documentaries your no for me Soz'
p967
sS'FREYEEADWRPR'
p968
S"I'm a fucking punmeister Looking for a drinking partner  someone to take me to Rotato for a jacket potato "
p969
sS'XTNWRUDFATNJ'
p970
S'Dundee gal studying Costume Design in Edinburgh Addicted to custard creams and I make a cracking cup of tea'
p971
sS'FKWFKLWCCRQD'
p972
S'Edinburgh UniBeen stuck on the last level of snail mail for  years HelpSometimes I put paper in the general waste '
p973
sS'XNZXGHGHXQWI'
p974
S'E D I N B U R G HSnapchat jessmcgovernx'
p975
sS'LPFDNFZFQZAV'
p976
S'Studying International RelationsLived in Canada and London for a whilePlaying badminton excessivelySlightly obsessed with music and books Usually called Katie '
p977
sS'GRUNILJZWAUV'
p978
S"I'm a fucking punmeister Looking for a drinking partner  someone to take me to Rotato for a jacket potato "
p979
sS'PEUSFJCMHXDA'
p980
g2
sS'IPJSXHLSUBPD'
p981
g2
sS'ZFBLHLIUHTDE'
p982
S'Live in Edinburgh studying drama                                     Snapchat  leahmac'
p983
sS'YNOYABSRTUUF'
p984
g2
sS'CGAJJPLXPGLE'
p985
g2
sS'YACEJEQXKYLO'
p986
S''
p987
sS'OCYYLDQYGDUR'
p988
S''
p989
sS'ZUSSASECPEAF'
p990
S'Im an easy going girl like having  nights in and out Anything else just askk'
p991
sS'VYINLTXRPZCQ'
p992
S'snapchat  prettylittleem Instagram  emmajohnston dancer masseuse '
p993
sS'ANTPCCQVMHHA'
p994
S''
p995
sS'NIORQCDADMRK'
p996
S''
p997
sS'UQNKBXZZXCQR'
p998
S'Edinburgh uni '
p999
sS'FVQBGFVYFAZK'
p1000
S'Edinburgh '
p1001
sS'WYWRPJXNUXEU'
p1002
S'  Irish   Radiography student at QMU '
p1003
sS'FRNHFTXEGZKP'
p1004
S"Politics theatre UN coffee addict postgraduate law and history student traveller huge fan of old tv series as well as action and science fiction moviesHell isn't merely paved with good intentions it is walled and roofed with them  Aldous Huxley"
p1005
sS'GCZYRRGQBRNF'
p1006
g2
sS'FMVRPTOSUEPI'
p1007
S'snapchat kirstenwindever'
p1008
sS'IJJBTNDWSFBW'
p1009
S'Living in Edinburgh and living life to the full'
p1010
sS'KAQJPKJOPJUV'
p1011
S'Instagram kymallan '
p1012
sS'LHHLRBBDOJCJ'
p1013
S'AimeeMaryhill Nursery teacher '
p1014
sS'YPEUEFXBGJAK'
p1015
S'A mumTattoos XboxSnapchat naynebops'
p1016
sS'OQPTICHKTHPE'
p1017
g2
sS'VGWAGINIVQYC'
p1018
S"I'm a fucking punmeister Looking for a drinking partner  someone to take me to Rotato for a jacket potato "
p1019
sS'HJGYEUDSBRJF'
p1020
S'I cry at John Lewis adverts '
p1021
sS'UZZEUMWDQBAJ'
p1022
S"Environmental student that's a bit of a film nerd "
p1023
sS'JQTMJNQAYYMN'
p1024
S'Student Edinburgh '
p1025
sS'TXCQPCFBHPYA'
p1026
S'StudentScottish Short'
p1027
sS'BOYBMDHGQRXX'
p1028
S'Snapchat sharastevens '
p1029
sS'KOZTAWZGQODP'
p1030
S"I'm a fucking punmeister Looking for a drinking partner  someone to take me to Rotato for a jacket potato "
p1031
sS'PVMFXGSWMOTK'
p1032
S"Danish and ' "
p1033
sS'HVRIUQRWSIPW'
p1034
g2
sS'FBSFWAAKKJEF'
p1035
g2
sS'PQJKFMOOSNLH'
p1036
S''
p1037
sS'OOBHPUSCKQUV'
p1038
g2
sS'CREHRAOJGYCG'
p1039
S''
p1040
sS'DCZOQFQCJCLU'
p1041
S"I am awful with this about me stuff so i am going to keep it short and sweet I'm an Edinburgh girl Work in retail Adore meeting new people Have the bestest group of girlys Have a couple of tattoo's Enjoy trying new things Will pretty much chat to anyone and everyone that will listen Snapchat sammywatsonxox Anything else you want to know send me a message                             "
p1042
sS'JUCEMWNISCDN'
p1043
S' NCL Edinburgh Biology student bartender keen traveller dog lover '
p1044
sS'QTLDXJODHKSA'
p1045
S''
p1046
sS'EXACGQLZMGVD'
p1047
S'Are you a banana Because I find you appealing '
p1048
sS'MGXTCIRNEBUX'
p1049
S'Edinburgh'
p1050
sS'BKJTSFIUXZLK'
p1051
S' Kirkcaldy '
p1052
sS'MCMQCXYNGXEF'
p1053
g2
sS'HTJBEFGPBMJV'
p1054
S"Accountancy and finance student at Stirling uni   'Snapchat catherinemIf you're not up for a conversation don't bother swiping right  "
p1055
sS'UMRGTWUNSHRF'
p1056
S'Lived in Finland and New Zealand nowadays in Edinburgh for uni  Excited about life '
p1057
sS'QNYDBZGXCSFC'
p1058
S' nd year actuarial student at HW  '
p1059
sS'MVOHLPFSROXF'
p1060
S"LondonEdinburghSocial anthropology student Be nice Be fun Be friendly Don't be boring "
p1061
sS'WZPMSTIIRTZA'
p1062
g2
sS'NSDSNQRZOTFX'
p1063
g2
sS'EYRWXZAVBWSP'
p1064
S'Aussie traveller '
p1065
sS'ODAVQYRDNVDG'
p1066
S'Edinburgh '
p1067
sS'LBJHOYSYZMFX'
p1068
g2
sS'YIAIXAOJLRYU'
p1069
S' Fife If we match send me a message Instagram kirstenhamilton'
p1070
sS'ZHALBDQXJFTP'
p1071
S''
p1072
sS'OGNNKKMQTENL'
p1073
S''
p1074
sS'HFXZJSSYVRUP'
p1075
S"UoE Swedish bakar utmrkt kladdkaka sick dance moves with and without tequila in my systemJe parle franais je jure and  other languagesIf we match don't be shy"
p1076
sS'EYALFIEZFENE'
p1077
S'EdinburghStranraer'
p1078
sS'OBDEVVLQPFGL'
p1079
S"Student skiier paddler Taylor Swift enthusiast ' of not taking life very seriously I like mountains and being outside "
p1080
sS'MMEPJNRCHWSD'
p1081
g2
sS'FVJCQCAGQXVU'
p1082
g2
sS'UQSXJZAYMNHU'
p1083
g2
sS'ASDDGZNZVFLZ'
p1084
S'Snapchat shaunnilWant my number askFife '
p1085
sS'IJWRJPHCBXQQ'
p1086
S"I'm a fucking punmeister Looking for a drinking partner  someone to take me to Rotato for a jacket potato "
p1087
sS'DFMHCISWRKQK'
p1088
S'East SussexEdinburghMaths student'
p1089
sS'UICZLQCVKRVU'
p1090
S'Photography StudentHave a pretty boring life'
p1091
sS'AMRVISKLNNIU'
p1092
S"IR student from Scotland with an excellent taste in cartoons I do the theatre thing sometimes and it's great but also I'm too lazy for it St Andrews"
p1093
sS'CCUMGUJLJHQM'
p1094
S"I'm a fucking punmeister Looking for a drinking partner  someone to take me to Rotato for a jacket potato "
p1095
sS'RKTAITHBINKD'
p1096
S'Are you a banana Because I find you appealing '
p1097
sS'PPJCVPLYWMTG'
p1098
S'If you know your  times table get in touch'
p1099
sS'POOUTNXWFKAZ'
p1100
S"So I'm a bit of a traveler and excited to explore more of the world really into having a drink and getting my boogie on at the weekend Love animals  minus the spiders I honestly just want someone to cuddle up with and watch tv with "
p1101
sS'QWPFCFCOWKED'
p1102
S''
p1103
sS'OZWMPHVSRWCL'
p1104
S"They call me gillette coz am the best a man can get Also I'll cut you I have tina turners name and date of birth tattood on me just coz I can dinny like her swipe left n dae us all a favour Kirlcaldy  instagram heatherritchieo"
p1105
sS'ZAUSIRZYPPIC'
p1106
S'I like a good pair of balls'
p1107
sS'DZDDJQSCTPEB'
p1108
g2
sS'ATNKWCAOYWHE'
p1109
S"Kik  snapchat  caraghmccoleInstagram  caraghannemccole Tattooed and piercedI'm partial to guys with beards and tattoosIdeal guy would be a tattooed and bearded Captain America "
p1110
sS'GNWMSSOABXXQ'
p1111
S"Let's be real I just need new funny screenshots for my group chat"
p1112
sS'HVRXSVLRYYUR'
p1113
S''
p1114
sS'PWKWAMYMZGUN'
p1115
S'Hi I live in Glasgow I love listening to most kinds of music and enjoying easy life I am also a beginner of guitar  '
p1116
sS'WWOLXRHDLQJA'
p1117
S''
p1118
sS'NXSICYQGPGMJ'
p1119
S'hi Not very good at talking about myself if u want to know anything feel free to ask '
p1120
sS'XCMYBMNNIMFY'
p1121
S"I'm actually quite a nice person Love fitness and Jaffa cakes Message first please "
p1122
sS'ENNQWMHDDHCU'
p1123
g2
sS'ESRLKMDBSBHX'
p1124
g2
sS'JMEWWKYUBVDK'
p1125
g2
sS'KBPKXVJBQGFS'
p1126
S''
p1127
sS'RPFGEFECNCEN'
p1128
g2
sS'CXBUHOXMCTRX'
p1129
S"Psychology student at Abertay DundeeNI  IG  hollyDon't match if you don't wanna chat please "
p1130
sS'KMMCWYQPCQDC'
p1131
S"HND Acting and performing studentI like guys in bands and I've got a thing for drummers"
p1132
sS'KTJTHGTPWUQK'
p1133
g2
sS'VJCVJZSMWRAX'
p1134
S'Northern Ireland Edinburgh Napier Skiing Hockey Travelling  '
p1135
sS'MKMAJDSFMEDS'
p1136
S"I'm a fucking punmeister Looking for a drinking partner  someone to take me to Rotato for a jacket potato "
p1137
sS'UDGHXRVQDJQW'
p1138
S''
p1139
sS'TPVXHFZCJMHD'
p1140
g2
sS'SJTLETRVXXVH'
p1141
g2
sS'IHKRFSHVUYIC'
p1142
S'love travelling theatre and meeting new people  '
p1143
sS'XNYOKYPJAVWW'
p1144
S'EdinburghYorkArt Student '
p1145
sS'WUMUKHNFBCUJ'
p1146
g2
sS'TJPTRAIGLGQH'
p1147
g2
sS'HIYHZXYKIHYC'
p1148
S'EdinburghGlasgow Strathclyde Uni '
p1149
sS'AEVZJUXVITBW'
p1150
S'Whut'
p1151
sS'TZMYFKAGURBY'
p1152
S"Just a nice always smiling girl living in Edinburgh originally from Poland Looking for a chat a friend a remedy to boredomI like going out having fun singing enjoying life in general ' "
p1153
sS'AYVEHXOHKXHL'
p1154
g2
sS'WGZLFXRZNGOH'
p1155
S"Edinburgh Eng Lit student and waitress I read lots of books and try not to throw wine all over people with mixed success ' "
p1156
sS'BSXSEAHQRWTE'
p1157
S'Fashion student Snapchat  chloemillar'
p1158
sS'VCSVKJYQJZJI'
p1159
S'QMUEvent and business management '
p1160
sS'KAHCELOHSEHD'
p1161
g2
sS'JVGMVIIFGXXA'
p1162
S'Snapchat jenniferrTattoosmm ear stretcherLed ZeppelinMotrhead Anthrax Slayer'
p1163
sS'PDXILERAXKRQ'
p1164
g2
sS'DQNOIRRSBNOX'
p1165
g2
sS'PBEIVFJBXRQK'
p1166
S'Olivia  New York born Looking to get to know Edinburgh through good company and good food '
p1167
sS'NLFUEWJTASCD'
p1168
S"I'm a fucking punmeister Looking for a drinking partner  someone to take me to Rotato for a jacket potato "
p1169
sS'URVJWWUPHOVW'
p1170
S'EdinburghGlasgow Strathclyde Uni '
p1171
sS'IHTZJLCHCNGX'
p1172
S' not  '
p1173
sS'FFAJGZLJIMRH'
p1174
S" years through the best adventure anyone could ever haveGot a map on my arm so I don't get lostAlso got my dog tattood on meMy car is just one big stickerSemi famous snowboarder with a famous dogProfessional adventure to mountains skateparks lakes bars quirky shops and anywhere with dogsAustralian taking shelter in ScotlandWhen I was younger I looked like Tina from Bobs Burgers"
p1175
sS'NSMSVRNULKFZ'
p1176
S"Why do gorgeous people always find each other Why can't they find meI like traveling chocolate proper music Disney and tattoos Norway Australia and now Glasgow Strath student Tall Talkative Nerd Active Myself I think that's the most important about me "
p1177
sS'HONEGSQBWATG'
p1178
S'Emma Lawson x xVegetarian xIce Cream xCSI MIAMI NY VEGAS xStagecoach x'
p1179
sS'OGZBIXZPPHWA'
p1180
S"I'm  and from Scotland Snapchat JemmaaBrodiee "
p1181
sS'RGAJGVCNYTDD'
p1182
g2
sS'NNDGRIWSTJFV'
p1183
S"I'm a fucking punmeister Looking for a drinking partner  someone to take me to Rotato for a jacket potato "
p1184
sS'MDMCFEOTBKSR'
p1185
g2
sS'TOZWWPPJMHAF'
p1186
g2
sS'XCKBMTFQDSPW'
p1187
S"I'm a fucking punmeister Looking for a drinking partner  someone to take me to Rotato for a jacket potato "
p1188
sS'UTAYEXLADSMN'
p1189
S'Ayla  student scoutAnything else just ask'
p1190
sS'ASQNXNCFSISM'
p1191
S"I'm a fucking punmeister Looking for a drinking partner  someone to take me to Rotato for a jacket potato "
p1192
sS'NSGLVWQWSSQB'
p1193
g2
sS'RMQWHOAXYMGW'
p1194
S'ECA'
p1195
sS'EZOEJQECNOJW'
p1196
S'Edinburgh '
p1197
sS'YCHKOKQKHYBB'
p1198
S"I'm a tiny omnipresent being from Glasgow "
p1199
sS'BRDDXTGQCJWQ'
p1200
S''
p1201
sS'FEUEAEYMZEWD'
p1202
S"If we match talk otherwise there's no point Glenrothes Instagram hassinakarimSnapchat hassinax"
p1203
sS'KUYBRCLZANSL'
p1204
S''
p1205
sS'NVLAXMLEIYBM'
p1206
S"Snapchat hannahwootten Insta HannwoottenEdinburgh Hairdresser Tattoos Have a little boy he's my world If we match message me "
p1207
sS'CLDFZCNJZBBD'
p1208
S''
p1209
sS'ESFDGDGUALJN'
p1210
S"I'm a fucking punmeister Looking for a drinking partner  someone to take me to Rotato for a jacket potato "
p1211
sS'WCQRMPFJUYHU'
p1212
S'East SussexEdinburghMaths student'
p1213
sS'VOIUWUEIOYZJ'
p1214
g2
sS'MEFWJASTRKQL'
p1215
S"I'm a fucking punmeister Looking for a drinking partner  someone to take me to Rotato for a jacket potato "
p1216
sS'THFEQXBALZBQ'
p1217
S"Started fresh on tinder here Maybe this time round it won't be so disappointing rd year psychology student Born  raised in Glasgow Anything else yOu want to know then just ask meGive me your chat "
p1218
sS'PBXYSAVISOJK'
p1219
S'Snap chat lisamclarenx'
p1220
sS'ZMVXGTUKWMWV'
p1221
g2
sS'DRIHVWEDOQJW'
p1222
S'Live in Edinburgh Snapchat shannonrileyInstagram shannonriley'
p1223
sS'XVACMBYTWEBU'
p1224
S'Belfast  Edinburgh'
p1225
sS'SUQICBRYYDZA'
p1226
S'EdinburghSnapchat indialaingx'
p1227
sS'TBVAKFBHZQNH'
p1228
S''
p1229
sS'JOYLJILAJKHD'
p1230
S'Snap chat emssl '
p1231
sS'UHICXSATYEUS'
p1232
S'nd year Accounting student at Edinburgh UniFrom Fife'
p1233
sS'NXIWDENYKAOI'
p1234
S'SupportCare WorkerFifeInstagram kirstymcquade Twitter Mcquadex'
p1235
sS'UTLDGQZOKPIK'
p1236
S'studying art at college xox'
p1237
sS'GOGLKRPCMSJM'
p1238
S''
p1239
sS'CXCFPUNDWFEP'
p1240
g2
sS'WSITTYHEGVWC'
p1241
S' Edinburgh '
p1242
sS'AIILVYYIXTDN'
p1243
S"I'm a fucking punmeister Looking for a drinking partner  someone to take me to Rotato for a jacket potato "
p1244
sS'IODLVSVQITBS'
p1245
g2
sS'KTISNWGQRVWW'
p1246
S"I like ambition it's attractive "
p1247
sS'AQLUYWXDKWOD'
p1248
S''
p1249
sS'NJSKBMRUZURT'
p1250
S"I'm a fucking punmeister Looking for a drinking partner  someone to take me to Rotato for a jacket potato "
p1251
sS'SHSHVYPQQPVT'
p1252
S'Instagram chelseakildayxSnapchat chelseakilday '
p1253
sS'FMKJAVJHAELO'
p1254
S'Journalism student Edinburgh'
p1255
sS'FUGPFUXJIRDZ'
p1256
g2
sS'UMEOFTPEFQDR'
p1257
S''
p1258
sS'AUUNPDUPMCTI'
p1259
S"I'm a fucking punmeister Looking for a drinking partner  someone to take me to Rotato for a jacket potato "
p1260
sS'ECYEUGZZCYFG'
p1261
S"I'm a fucking punmeister Looking for a drinking partner  someone to take me to Rotato for a jacket potato "
p1262
sS'OJMFRGEWNMPJ'
p1263
S'Edinburgh Uni Medic Occasional blonde moments '
p1264
sS'CIBGJYODUSUL'
p1265
S'Australian fugitive on the run in Edinburgh graceless'
p1266
sS'JDKBCLAJPCOH'
p1267
S'jo perrin X'
p1268
sS'NNOMQODHHFTX'
p1269
S'Hi new to this '
p1270
sS'BASVRENGJBUB'
p1271
S'Chemistry student at Uni of Glasgow'
p1272
sS'FOHFRAXHXCZF'
p1273
S"Hi I'm Vicky  from Livingston Single but here to meet new friends  I am quite shy but when I get to know you more I come out of my shellIf you want to talk I'll try my best I love animals and I love anime manga  anything to do with Japanese culture I also like games Pokemon too   a good laugh My dream is to travel a lot see the sights  I am also quite a thrill seeker  always up to try something new Also love horror movies  theme parks very family orientated"
p1274
sS'YXQELMXDMPOE'
p1275
S'Not enough characters here to tell you about myself '
p1276
sS'QPFZEDJEYXAZ'
p1277
S'Edinburgh uni Napier students need not apply '
p1278
sS'MQXIGEBWHTLP'
p1279
S'Social Sciences student Bi making my way through life enjoying it when I can '
p1280
sS'UJVYRYMYAVHA'
p1281
g2
sS'ZUYTGONKOVGS'
p1282
S'Occasionally a Honours student Sometimes interviewing angry bands Perpetually late  usually sleeping Loudmouth intersectional feminist whatever forever'
p1283
sS'JTZVPOYBJSTH'
p1284
S"I'm a fucking punmeister Looking for a drinking partner  someone to take me to Rotato for a jacket potato "
p1285
sS'RMBAGULVTFVT'
p1286
S'Social Sciences student Bi making my way through life enjoying it when I can '
p1287
sS'ZYSWASTLJPRB'
p1288
S''
p1289
sS'SDSVZZWSBOTK'
p1290
S''
p1291
sS'JJDXHTFTVPMJ'
p1292
g2
sS'OXAMUHASOEGH'
p1293
S'Instagram mhari'
p1294
sS'UTBFOVLZRQTY'
p1295
g2
sS'MYDMIQHEQMWF'
p1296
S'Whut'
p1297
sS'PTDQSDKIXNVA'
p1298
S'Rebecca  Living in Edinburgh Early Education and Childcare student '
p1299
sS'TOBBESOWGTON'
p1300
S' Edinburgh'
p1301
sS'IZIHCEBVGIHP'
p1302
S"'Death is just life's next adventure'Food naps alcohol and rugby keep me happy snapchat  lauradickson"
p1303
sS'HXWUJWIDUNDK'
p1304
g2
sS'XYEDGXKDIXLU'
p1305
g2
sS'GINCLQSSQZSZ'
p1306
S'Stirling Uni  Mental Health NursingLivingston is home'
p1307
sS'MFSBJCOGVYHV'
p1308
S'Stirling Uni  Mental Health NursingLivingston is home'
p1309
sS'DQADNFJURCHL'
p1310
g2
sS'LDINYIMRDPPU'
p1311
g2
sS'PWVSEYIVJOSP'
p1312
g2
sS'KWKOLFHKHLHC'
p1313
S'Aspiring actormusician Lover of all things chicken Queen of mediocre puns '
p1314
sS'HFVHCJBYOBAT'
p1315
S'If you have a dog then you get an instant swipe right '
p1316
sS'AQYZVFFMBKEL'
p1317
g2
sS'NNXJWZSHGBTC'
p1318
S'  Scotland  blonde  swimming teacher  Pop up'
p1319
sS'DVHXFILVGLOJ'
p1320
S"Student skiier paddler Taylor Swift enthusiast ' of not taking life very seriously I like mountains and being outside "
p1321
sS'ISMLITAGLRQZ'
p1322
S'Caitlyn Strathclyde university childhood practiceManager of an out of school care setting Anything else just ask '
p1323
sS'YZJAHVIGUIKO'
p1324
g2
sS'ICOHIQTHJYFS'
p1325
S'I love footballgym i work as a hairdresser and accountant '
p1326
sS'NDYKEKEJEAQU'
p1327
g2
sS'BYTEZEWNWCQG'
p1328
S''
p1329
sS'XNAMBUZBNYKB'
p1330
S'Half Hong Kong half Scottish  ex firefighter and now studying accounting  just moved to Edinburgh '
p1331
sS'ERSNFTOWDNDM'
p1332
S"I'm a fucking punmeister Looking for a drinking partner  someone to take me to Rotato for a jacket potato "
p1333
sS'GLAPZGIUXKEL'
p1334
S'Hey there  Im currently studying pe teaching at uni Enjoy giving any sports a go Love my job working with horses and competing Love cooking a good steak Are there any men out there that does the whole flowers romance thing  xxxx'
p1335
sS'NDGQPFICHQWL'
p1336
S'Want to know anything just ask Sure no one reads this anyways'
p1337
sS'HMSAOPKJLXYN'
p1338
S"I am an easy going laid back person I love spending time with my friends and family enjoying watching a good game of football I like the idea of being adventurous just haven't got around to it I will bungee jump one day i am sure "
p1339
sS'UDSYVNBTIWFS'
p1340
S'LondonEdinburgh Part time barmaid full time female UoE ArabicFrench'
p1341
sS'VLTGVVBCHBSV'
p1342
S'UoE Economics '
p1343
sS'YPAJNVXNRQUH'
p1344
S'Basel BrusselsI vibe Insta eleanorroseshortland'
p1345
sS'LUNUEHCOEMIG'
p1346
S"Fall out boy are very important to meEnjoy a laugh and a good time Life is happening once and I'm gonna enjoy every moment Feel free to come along "
p1347
sS'QFUSRNEIWZKN'
p1348
S"Looking for something more seriousYes I know I look like Maisie WilliamsOutdoorsy types Never happier than when I'm out in the middle of nowhere Enjoy a night out with my little fam second photo we can be an odd bunch Also love a night in with good food and Netflix's Also wish I could delete half of my fb interests I was young and facebook was new to me Please don't judge  "
p1349
sS'TGFVVLKYPCSK'
p1350
g2
sS'ZEXYHFLFXNSE'
p1351
S''
p1352
sS'GQYJQYPDNPVQ'
p1353
S'HK in Edinburgh '
p1354
sS'XHDAGKLTKIOA'
p1355
g2
sS'KRETGWJIJVYO'
p1356
S''
p1357
sS'BIIJFVLNHWUB'
p1358
S"I'm a fucking punmeister Looking for a drinking partner  someone to take me to Rotato for a jacket potato "
p1359
sS'EOCIJCFUFVQD'
p1360
S''
p1361
sS'FTZYKNLQNQOE'
p1362
S'Just happy Instagram louhunter'
p1363
sS'JTWIGJAEPKJV'
p1364
g2
sS'BTFQRUGRIMFX'
p1365
S'Student at Edinburgh University ScottishGamer on PS'
p1366
sS'XBDMZIGKQERR'
p1367
S"If you don't like sarcasm don't bother "
p1368
sS'BHBYKKXTOTSJ'
p1369
S"I'm actually really cool "
p1370
sS'SHZNCPHXIMZV'
p1371
S'Studying architecture at Edinburgh university Love to travel Big fan of silliness Terribly English Should never be allowed to drink at lunch'
p1372
sS'UHIABXQDBDPN'
p1373
S'Events Management  QMUSnapchat  alyssahall'
p1374
sS'UNRVIVNNDKFA'
p1375
g2
sS'SPZCAQENZWLW'
p1376
g2
sS'ELGJULUZDTHG'
p1377
g2
sS'EIGVMJCXPYUN'
p1378
S'hi im from perth  I love all sports especially horse riding and skiing'
p1379
sS'KZHASVUAOBAX'
p1380
S'Toni  EdinburghGlasgow Music Student Community Arts Assistant '
p1381
sS'YWMPRLOXEHKF'
p1382
S''
p1383
sS'ABUNYDICXPVZ'
p1384
S''
p1385
sS'CNQMVWVUGZUS'
p1386
S"Actually   in  months but Facebooks being a cunt TV shows music musicals and the internet are basically my lifeI'm socially awkward so if you don't start the conversation we probably won't talk"
p1387
sS'CZQPTYWTCFVQ'
p1388
S'eighteen snapchat  chelsearodgers'
p1389
sS'RJEWZTWVWABA'
p1390
S'Snapchat TilleyChanel                        i love sitting on guys knees '
p1391
sS'WZTPPXMSKZBH'
p1392
g2
sS'WXJQUMGZOIBM'
p1393
S''
p1394
sS'PVWLKPHSNAIF'
p1395
S'Glasgow'
p1396
sS'DFLYWVRGOHQU'
p1397
S"what do you mean wine isn't one of my five a day I also read a lot and drink an unhealthy amount of tea "
p1398
sS'JGOPZBZQFCLZ'
p1399
S''
p1400
sS'VOZBLYUXANHT'
p1401
S'Medic at Edinburgh '
p1402
sS'ACDEIFSTJBRH'
p1403
S'Medic at Edinburgh '
p1404
sS'AGNKPLWUFLVE'
p1405
g2
sS'CFPMKCZQHFKN'
p1406
S''
p1407
sS'KCEFOBQPDDNF'
p1408
S''
p1409
sS'FAABMJRJLQEU'
p1410
S'Studying Primary Teaching at Edinburgh uni '
p1411
sS'JXOKPFOJSZRO'
p1412
S'Metal Vikings gigs festivals and cats are my things  studying business with French  German in Edinburgh'
p1413
sS'VTQRJMLZAXRE'
p1414
S'BelfastDundee  Law with German  RowerLifeguard '
p1415
sS'IPDQKCMTBKGZ'
p1416
S" Irish  and Living in Edinburgh accept the the things you can't changebe brave to change the things you canand be wise to know the difference"
p1417
sS'FHWTHZDOZOFB'
p1418
g2
sS'OIRBMAQZULSA'
p1419
S''
p1420
sS'RRDYPRNFXVNB'
p1421
S''
p1422
sS'PGUQPSLDPXIC'
p1423
S'In Sweden we have a system'
p1424
sS'GSTIGRTLZAYD'
p1425
S'Business student at Edinburgh UniversityFrom Manchester'
p1426
sS'HZLWQMGKVDHM'
p1427
g2
sS'YBFVBWAJUSCM'
p1428
S'Make up artistry student VodkaMarvelNetflixSnapchat eemmaa'
p1429
sS'MUIZGNZXYDTD'
p1430
S'Student nurse in Edinburgh '
p1431
sS'MRLWSXOBGBQR'
p1432
S'Business Student at the University of Edinburgh'
p1433
sS'MBZBSIFKGNAF'
p1434
S'Hi there '
p1435
sS'SQLHZBDLPCAS'
p1436
S" from Bo'nessHaving  tattoos  counting "
p1437
sS'SRPXRPDFBTQB'
p1438
S'Toni  EdinburghGlasgow Music Student Community Arts Assistant '
p1439
sS'OGJSQVGCUZSW'
p1440
S"I just got Fallout  so I may not be replying often right now I will be backThis app makes me feel like Sauron I see youI like long walks on the beach Star Trek and casual sexIf you haven't seen Garth Marenghi's Darkplace I would be happy to introduce it to you"
p1441
sS'AMNUCDHCINDP'
p1442
S'Edinburgh chick'
p1443
sS'CIPOGITQRQHB'
p1444
g2
sS'ABTOPLNIKFIE'
p1445
S"Loves to paint act and sing can't be bothered to make money outta them If you can't handle tattoos you can't handle me Rather dislike beards love tall tall guys and any height of girl Dying of the flu at the moment so I can appreciate the type of Netflix and chill where you feed me soup "
p1446
sS'SPAPNWBFJSVV'
p1447
S"DundeeSnapchat shannoncraigie Hate dull people with no personality so if you have none don't speak to me"
p1448
sS'RNCZZDMDJFLL'
p1449
g2
sS'XIZJHPURZTAA'
p1450
g2
sS'VZVROPKDKXYU'
p1451
S'Chartered Public Finance Accountant   Bake cakes like climbing swimming running hillwalking most outdoorsy things Traveling of course A bit of a movie buff Love my dog From Glasgow Live in Aberdeen'
p1452
sS'YOPGQTOHHFLS'
p1453
g2
sS'NJVPAYFVUQCE'
p1454
g2
sS'QGQOBIXSSRRT'
p1455
g2
sS'PBIMEDLJCDLV'
p1456
g2
sS'RKNAUERBOCVJ'
p1457
g2
sS'YHSGUIGUHYIC'
p1458
g2
sS'SNMPZCBJIVWB'
p1459
S'Two words'
p1460
sS'TYZGFTZMXZWB'
p1461
S"I'm a fucking punmeister Looking for a drinking partner  someone to take me to Rotato for a jacket potato "
p1462
sS'AQWAFRXVIHQE'
p1463
S"I know it says  but I'm  "
p1464
sS'DZCMDOBIVXJI'
p1465
S'Love new adventure  road trips Love traveling If we match message me Facebook httpsmfacebookcomNicoleeeeee'
p1466
sS'XUIBLHXRZDXQ'
p1467
S'Forresedinburgh Criminology at Napier '
p1468
sS'WEHQNONUOSEW'
p1469
S"I just want some s movie romance That's it I swear I'm not asking for much Just be Jack Dawson although maybe less ice "
p1470
sS'SYGFFTXWQECN'
p1471
S'Science graduate currently living and working in Edinburgh  '
p1472
sS'JGJXTJLRHFDD'
p1473
S'Living and studying in Edinburgh '
p1474
sS'ZXPGLILRVETN'
p1475
S'Snapchat  ellebelle '
p1476
sS'SRAVZLBZMCXG'
p1477
S"EdinburghScottish ' redhead Not looking for a serious relationship Likes tall men uniforms beautiful women music dancing outdoors going out staying in watching Netflix being comfy getting dressed up laughing being spontaneous playing practical jokes tattoos  more I also have a very high sex drive bit of a wild child love house parties You only live once and I going to live it to the full so I'd love to find a few sexy people to join me and be my partners in crime "
p1478
sS'JBKJLZNCYWSF'
p1479
g2
sS'YEQBQBOPVLZU'
p1480
S'ft  and a half Brown hair Brown eyes Snapchat  caitmcgx Anything else feel free to ask '
p1481
sS'LEFNHGJPNAYC'
p1482
S'Undefeated Lord of the Rings trivia championActresswhisky enthusiast'
p1483
sS'AMQAMYGQFKAB'
p1484
g2
sS'JMRKPUGNWZWA'
p1485
S"I'm a fucking punmeister Looking for a drinking partner  someone to take me to Rotato for a jacket potato "
p1486
sS'IDYBODOCRXOH'
p1487
g2
sS'ICMBSIIDHVQP'
p1488
S''
p1489
sS'MPGUPJCXJWKO'
p1490
g2
sS'MUBSSPSAFWXX'
p1491
S'Love sports love travels'
p1492
sS'XOZGBSEQCBPN'
p1493
S"Loves to paint act and sing can't be bothered to make money outta them If you can't handle tattoos you can't handle me Rather dislike beards love tall tall guys and any height of girl Dying of the flu at the moment so I can appreciate the type of Netflix and chill where you feed me soup "
p1494
sS'ULLXVFYGTCEM'
p1495
S'Lacking balls and panache since '
p1496
sS'USHSEBOODVXK'
p1497
S"Travel obsessed pierced and inked After working in Romania Madagascar and Nepal I'm spending some time at home in Edinburgh to focus on my dance career and work out what the hell I'm doing with my life If you've heard of The LaFontaines we can probably be friends"
p1498
sS'QMRDQGMUTBSJ'
p1499
S"Okay first things first to stop all confusionawkwardness i am the brunette in the pictures Anyways i live in Fife  Big rugby fan Massive movie geek was an inconsolable mess at the end of The Hobbit  Normal is boring  I'm bilingual English and sarcasm And I make a mean cup of tea Snapchat holzzrobertson"
p1500
sS'LJEQEUGVGRBI'
p1501
g2
sS'IMSQNUGQCFBV'
p1502
S'Not enough characters here to tell you about myself '
p1503
sS'PEKOVQIULHGB'
p1504
S"Snuffles was my slave name you can call me snowball SingerShitty Songwriter Cat enthusiast MovieTV show lover Video game nerd AvA BMTH Don Bronco  FightstarCharlie Simpson is my spirit animal I probably won't message you first just sayin'"
p1505
sS'URSGBJRZCOAW'
p1506
S'Edinburgh Uni  Cambridge '
p1507
sS'TQWIIYZTDPJD'
p1508
S'english lit studenti like people places and thingsthe kind of girl you could take home to meet your parents until your dad inevitably leaves your mum to be with me instead '
p1509
sS'QUWXMBQFZPOW'
p1510
S'snap chat ashwaaay'
p1511
sS'KIUGODRSBJKJ'
p1512
g2
sS'TIQEIIUPVNHX'
p1513
g2
sS'QJKTVZLYYONT'
p1514
g2
sS'BEHBIFFDWIQU'
p1515
g2
sS'XAXBEKMXSHPO'
p1516
S''
p1517
sS'HTQEOUVKEYTL'
p1518
S' student nurse  stirling '
p1519
sS'DVJQRZQTYBLO'
p1520
S'RGU graduate new to Edinburgh '
p1521
sS'MIGIEZVDDPJX'
p1522
g2
sS'TJKNSEXAYYLZ'
p1523
g2
sS'BPWTQEJMBOOE'
p1524
g2
sS'TOXEDDHHTKNN'
p1525
S'Aberdeenaberfeldy In Glasgow for a couple months training Love me a selfie Instagram louiset'
p1526
sS'RIJTEBXERCNV'
p1527
g2
sS'LCHEJKZCZRVQ'
p1528
S"I'm a fucking punmeister Looking for a drinking partner  someone to take me to Rotato for a jacket potato "
p1529
sS'CZXSOEEUSHIO'
p1530
S' '
p1531
sS'VZIDXUJYTJGW'
p1532
S"I'm a trouble And I love weird people And Opium Polish Crazy But lovely"
p1533
sS'NWPRVRHMUJTU'
p1534
g2
sS'WIDGEUJESJIA'
p1535
S''
p1536
sS'IWWULFJAPHCE'
p1537
g2
sS'EPOENLQWHRTX'
p1538
S"I am  and Stydying Psychology I'm not interested in half the things it says I am I can't remember liking them on Facebook but what's done is done "
p1539
sS'VIAEGTWRMKCQ'
p1540
S'Geology student not looking for a hook up Just here for the banter and to meet new people '
p1541
sS'ZPKPBHDZTXMX'
p1542
S'Edinburgh physio student Instagram laurarobertsonx Snapchat laurarobertsonx '
p1543
sS'HSZMECHGGZLN'
p1544
g2
sS'GGNYYSZTNJHY'
p1545
S'st year Psychology student at GUBed is love Bed is lifeAlso a fan of dancing and most sportsFeel free to message me '
p1546
sS'HYDYTWYMRZRT'
p1547
g2
sS'DZEUAXIFZQJF'
p1548
S'Painful combination of Bridget Jones and Mark from Peep Show Mostly MarkI hail from an island  I love CATS feminism and blogging  make of that what you willMultimedia Journalism StudentGlasgow'
p1549
sS'ZNGPOOCKNPNX'
p1550
S"I'm fat if you can get over it we'll  have a great time  Tattoos wine gigs comedy Netflix gymHate smoking Work far too much but will hopefully fit someone in "
p1551
sS'DJUVYFPPPLAK'
p1552
S'edinburghfootballlaw student '
p1553
sS'ZKLLWRYXJVJJ'
p1554
g2
sS'GPVMNEAPLNWR'
p1555
S'some people just put an Instant Smile on your face '
p1556
sS'RVATGZQIALIN'
p1557
g2
sS'WUPQBNNMKPTB'
p1558
S"I'm a fucking punmeister Looking for a drinking partner  someone to take me to Rotato for a jacket potato "
p1559
sS'AWUMQWXFABRM'
p1560
S''
p1561
sS'PCIPPIFWCQGZ'
p1562
S'  Voluptuous fat  lazy recovering netflix junkie with an offensive sense of humour I like people I can laugh with my very existence is a joke I like gay barsDont tend to message first im shy like that PSnapchat bitchitsyasmine'
p1563
sS'RQHUAUURBFLE'
p1564
g2
sS'LMPAAXLEYFDU'
p1565
g2
sS'VTUZSABGZDDS'
p1566
S"I love travel and like to keep fit when I can Also I like watching dvd's going to the cinema or out for some drinks with my girl friends Don't know why I have lots of interests below only have time for half of them "
p1567
sS'PVTVCTBAXSEQ'
p1568
S'all graphic designy and vegany'
p1569
sS'LJUECHWWEPYY'
p1570
S"Netflix and chill is stupidly overrated  s'all about ghost hunting climbing trees and drinking excess amounts of gin and cocktailsAlso since height seems to be a compulsory factor   I am ' of sheer wonder"
p1571
sS'UOIHCHMJQRNT'
p1572
S'Snapchat robocxo '
p1573
sS'PPXGXAFECFWX'
p1574
S"I'm a fucking punmeister Looking for a drinking partner  someone to take me to Rotato for a jacket potato "
p1575
sS'LGOWBJBXSWBL'
p1576
S"I'm a fucking punmeister Looking for a drinking partner  someone to take me to Rotato for a jacket potato "
p1577
sS'BPKILUFWMSOJ'
p1578
g2
sS'TUHLWIOWDWBR'
p1579
g2
sS'AJQHRNNYOJUA'
p1580
g2
sS'ESZLIENWOPZC'
p1581
S'edinburghfootballlaw student '
p1582
sS'YJLZEINUKESE'
p1583
g2
sS'DRZOWQIZQWDW'
p1584
S'Fine Art MA  ECA Brummie born and bred My neighbors think my accent is hilarious Instagram mollyhk'
p1585
sS'OOKLLNJNUEDN'
p1586
g2
sS'IQASGNYGOKLI'
p1587
S'Live on a farm in the middle of nowhere Fitness and game of thrones enthusiast with a mild peanut butter addiction Enjoy skiing baking weights training and attending young farmers shindigs If you dont appreciate a good game of monopoly we cant be friends  instagram emilynimmo facebook Emily Nimmo '
p1588
sS'LWWBIAXCGKAT'
p1589
S"I'm a fucking punmeister Looking for a drinking partner  someone to take me to Rotato for a jacket potato "
p1590
sS'ZPWOVWLWGPPT'
p1591
S"Not much to sayquite a busy job and always kept busy playing in a brass band I'm "
p1592
sS'KQNAKLDTEZQU'
p1593
S'Snapchat  allyblack '
p1594
sS'PLFINJAYCUSJ'
p1595
g2
sS'MWDLQCTBWXEW'
p1596
S'Scotland Brazil'
p1597
sS'DHLIFXNBXOKL'
p1598
g2
sS'HTUKFZDHVEUV'
p1599
S''
p1600
sS'TJRMBTYUCEQB'
p1601
S'Business student living it up in the big city '
p1602
sS'NDBECHLEOUXK'
p1603
S'Snapchat vickyoxoInstagram vickygibsonx'
p1604
sS'TKIOWQMZKJGD'
p1605
g2
sS'FWALZABYXEEK'
p1606
g2
sS'ZIMAPMUVQPZS'
p1607
S'SmallFunActiveSkateboard snowboard climb drink party live on the edge A little'
p1608
sS'DQRWLHPJPCGG'
p1609
S'Civil Engineering student'
p1610
sS'GEUCHOXLOCGP'
p1611
S'I need a writer friend apply within'
p1612
sS'QMJGFXYHFXIN'
p1613
S"I'm the type of girl who gets a tattoo and finds out it's a Jonas Brothers song three minutes laterWork at Boots I want to go to places I'd never dream of going to "
p1614
sS'RRRCUWYGBIPZ'
p1615
S"Edinburgh Uni student If you don't like me at my Hive you don't deserve me at my George Street "
p1616
sS'YUIYSEGBECBP'
p1617
S'London  Edinburgh'
p1618
sS'RIOTBJSQVPIE'
p1619
S"' English Lit student at UoE"
p1620
sS'CXKEQKEYOZON'
p1621
g2
sS'BSLCRFJDDCSN'
p1622
g2
sS'WCCBJBGXKCXV'
p1623
g2
sS'NILOZLPWKSJW'
p1624
g2
sS'WAZYZTFMQOUL'
p1625
S'Dundee gal studying Costume Design in Edinburgh Addicted to custard creams and I make a cracking cup of tea'
p1626
sS'KVRMQGABSUOV'
p1627
S'Art student at ECA Fancy dress is the way forward '
p1628
sS'HZRXPIBRVLUI'
p1629
S''
p1630
sS'ASBIMVZPERSR'
p1631
g2
sS'HILRLHCXDNWF'
p1632
S''
p1633
sS'AHZYBTEDGFHT'
p1634
S'Australian fugitive on the run in Edinburgh graceless'
p1635
sS'TDJIKHBPKKPS'
p1636
g2
sS'XADJFEOFODOK'
p1637
S'In my th year  uws trying to get my honours in social science Hoping to go into teaching modern studies My pups are my world  '
p1638
sS'JNTEMMOYZJMK'
p1639
S'From Falkirk and currently at Cumbernauld college studying Radio Broadcasting'
p1640
sS'TPSHPYILVONV'
p1641
g2
sS'PPLJGKKPLPHQ'
p1642
S'all round good cuntsnapchat  ruthmk    '
p1643
sS'ZPIDJCIZAOVG'
p1644
S'Irish studying in QMU EdinburghHi or hey will guarantee reluctance to reply Instagram  ciaramurray'
p1645
sS'RGEUDNGEWDMT'
p1646
S'Art student at ECA Fancy dress is the way forward '
p1647
sS'YPUJSXRRUZCK'
p1648
S'Slovakia  Scotland  University of St Andrews '
p1649
sS'UZXOQUWEASYH'
p1650
g2
sS'NJSICYWVHRAX'
p1651
S'Northern English girl living in GlasgowGSA student'
p1652
sS'UJKWOPGZOYVW'
p1653
S'Studying at Edinburgh for the semester'
p1654
sS'YEYKIANGXIUH'
p1655
g2
sS'GRSBXUGJSFIA'
p1656
S''
p1657
sS'WSTGRGFAWKOS'
p1658
S''
p1659
sS'ZPHICPHARSMJ'
p1660
g2
sS'EJCRCDVCQXQJ'
p1661
g2
sS'NEWYRNBYKSFA'
p1662
g2
sS'PHLEIBYKETOD'
p1663
g2
sS'PXVVGFCOWDNM'
p1664
g2
sS'NYXASBEYFCCU'
p1665
g2
sS'QZCKGQGMVDWM'
p1666
S' Illustration student Foodie Guernsey  Singapore Living in Edinburgh  '
p1667
sS'KVLPKJGDOLWC'
p1668
g2
sS'XGEKUSAJXZPR'
p1669
S"Hey I'm Kirsty Im a full time chefpart time sudoku expert Potentially the biggest wrestling fangirl out "
p1670
sS'HJOMCKUECSAO'
p1671
S"Speak three languages  and love to travel I'm very tall almost ' Very sociable  I'm quite blunt and say what's on my mind which people either love or hate Eat smoke and drink too much  attractive I know but at least I admit it and we can't all be perfect Oh and yes I'm English and have a southern accent  GET OVER IT"
p1672
sS'FFIXMNBYLIUM'
p1673
S'Glasgow '
p1674
sS'XVKEBJYTRCIP'
p1675
S'Make up artistry student VodkaMarvelNetflixSnapchat eemmaa'
p1676
sS'RWMVGZSLPHTN'
p1677
S''
p1678
sS'QATXWFGVPGKE'
p1679
S''
p1680
sS'DBCMKHQWNOQZ'
p1681
S''
p1682
sS'TGEEEXKSEUDF'
p1683
g2
sS'GWQKAPTUPQJW'
p1684
S''
p1685
sS'IYFQTXHADWGH'
p1686
g2
sS'XXXAVJYUXZNW'
p1687
g2
sS'QZSATJUEPQTE'
p1688
g2
sS'LBZOZJQLOSHA'
p1689
S'LOVE LIFELife isnt about waiting for the storm to pass its about learning to dance in the rain'
p1690
sS'RPGPJNAKVJZW'
p1691
g2
sS'UMASMXJFORMG'
p1692
S'Forever wanting to be back in Bali '
p1693
sS'OTWOJVQILZYT'
p1694
S"I'm a fucking punmeister Looking for a drinking partner  someone to take me to Rotato for a jacket potato "
p1695
sS'PGQWROLCIKHH'
p1696
S'I like long romantic walks to the bar'
p1697
sS'MBLUPIIQRZHL'
p1698
S'Banter '
p1699
sS'KTRLIJSVLGYA'
p1700
S' fife '
p1701
sS'MFDZKRSKSRYD'
p1702
g2
sS'PJAAMENGIXQK'
p1703
S"Bulgarian working in Manchester  'Life isn't about waiting for the storm to pass it is about learning how to dance in the rain'"
p1704
sS'XWHOZFPBLMJL'
p1705
S'Snapchat slmull Beauty therapist at the retreat health and beauty'
p1706
sS'ZVGRKMUCYKVX'
p1707
g2
sS'YSTCYWFLENNM'
p1708
S'Staff nurse Voice of the Corran FerryI like caramel lattes and Paolo Nutini '
p1709
sS'ODOEYLAEMMCE'
p1710
S"Can be found drinking wine eating cake and pretending I'm a princess  "
p1711
sS'IBTGWCIGTNVN'
p1712
S'  Admin Assistant'
p1713
sS'DDYCDTBHBTVG'
p1714
S'Linguistics and Literature student                                                                 I speak Spanish                                                                                       Pizza and beer enthusiast                                                                        Bon Iver fangirl                                                                                    Cuddle slut  Just say hi '
p1715
sS'OYYPODLKFTBK'
p1716
S'ft  and hate rude people '
p1717
sS'UHGOVNTFRZPE'
p1718
g2
sS'OSCLVSTURTZY'
p1719
S"Edinburgh Can't ski Didn't go to uni Don't have snapchat  "
p1720
sS'HWOSBNBZESJD'
p1721
S"I love adventures and people who can make me laugh I'm always up for coffeewhisky with new people Looking for friends and drinkingexplorer buddies "
p1722
sS'SMHDRLIIDNTV'
p1723
S''
p1724
sS'FZMFAHGKMBEZ'
p1725
S' nd year actuarial student at HW  '
p1726
sS'TRYHBHADYCER'
p1727
S''
p1728
sS'YAEEDNCAJWWM'
p1729
S'Irish student in Scotland Will talk about football '
p1730
sS'BTEKOHFCMSKJ'
p1731
S'Studying in UofG this year '
p1732
sS'RUQTOGHRHFAN'
p1733
g2
sS'YAJWJCDZVMLS'
p1734
g2
sS'NQCCGEIXGOCU'
p1735
S'ft  and a half Brown hair Brown eyes Snapchat  caitmcgx Anything else feel free to ask '
p1736
sS'CJZNDJBDRZVE'
p1737
S"I'm a fucking punmeister Looking for a drinking partner  someone to take me to Rotato for a jacket potato "
p1738
sS'UMRGAPTKSWUF'
p1739
S'Postgrad lover of chocolate and film addict with bad taste in pop music Add interesting quote'
p1740
sS'TFIROJDUQZMK'
p1741
S'From EdinburghJust give me a message to find out moreIgnore my interests'
p1742
sS'BFVMDCTYUESB'
p1743
S"My mum thinks I'm cool"
p1744
sS'OBSVRFZMMUKB'
p1745
S'Cheesy chat up lines are welcome rd year accounting and finance student at Strathclyde Just a wee fifer living it up in the big city '
p1746
sS'FUBZRGZGIGXV'
p1747
S'LondonEdinburgh Studying Arabic and Persian '
p1748
sS'RWNLHTFZPRSU'
p1749
S'Starwars xbox my puppyyup'
p1750
sS'WWISVZEIVKWX'
p1751
S''
p1752
sS'CYZYVYHMCTON'
p1753
S"I AM NOT A PSYCHO'I'm  and Looking for someone who wants to drink some beers and will let me use their bath"
p1754
sS'XWFDJVODUPWN'
p1755
S'If you dinny like documentaries your no for me Soz'
p1756
sS'MCBVNRIJDARQ'
p1757
g2
sS'POIERDMOFKDV'
p1758
S"If you think you've ever made a bad decision then just remember I ran the Tough Mudder hungover"
p1759
sS'FNYAYHFAEJHK'
p1760
S'Instagram  ejfieldxDo you ever drive on the motorway and see someone fit and wish you could give them your number somehow'
p1761
sS'OJDTADBQXCQY'
p1762
S'Edinburgh Uni  Cambridge '
p1763
sS'HNFXKPZINGZY'
p1764
g2
sS'AIFYKTIOOMVK'
p1765
S"I'm a fucking punmeister Looking for a drinking partner  someone to take me to Rotato for a jacket potato "
p1766
sS'XUFXCOIRRNQU'
p1767
g2
sS'OCUTIUORAAQV'
p1768
S'Ambitious and outgoing law student from Denmark studying at the University of Edinburgh for one semester Love singing dancing movies food and tea'
p1769
sS'CQXTOWODIQCT'
p1770
g2
sS'YSIGDPQGYCAO'
p1771
g2
sS'JMXZQTTJISXM'
p1772
S'History of Art Edinburgh '
p1773
sS'KYZGUYKWGRQC'
p1774
g2
sS'LTGERFGBGEXE'
p1775
S"Edinburgh Uni student If you don't like me at my Hive you don't deserve me at my George Street "
p1776
sS'PDZNFKEAZTYA'
p1777
S'EdinburghTattoosSnapchat hollihunterx'
p1778
sS'FWNEFFEIZQMX'
p1779
g2
sS'BQJIMBRJLGEX'
p1780
S"I'm a fucking punmeister Looking for a drinking partner  someone to take me to Rotato for a jacket potato "
p1781
sS'RGIOPDKNRLZI'
p1782
S"I'm  Studying nursing at Edinburgh  Want to know more ask "
p1783
sS'CUWFQFYTRSFR'
p1784
g2
sS'SWQARLCHIVCM'
p1785
S'th year zoology student who loves giraffes and to travelLoves dancing cocktails family nights out and nights inI love a guy who can make me laugh If you want to know more message me '
p1786
sS'KSRXIHETLUEK'
p1787
S'EdinburghSnapchat indialaingx'
p1788
sS'UITSEREHKFXD'
p1789
g2
sS'HBFDNKTRZALD'
p1790
S'Snapchat chanteelleex '
p1791
sS'FGCBEEJRJPSL'
p1792
S"I'm a fucking punmeister Looking for a drinking partner  someone to take me to Rotato for a jacket potato "
p1793
sS'XIMCGGPKSMIH'
p1794
S'Apparently nothing will prepare you for how short I actually am '
p1795
sS'QZXWPSNFBERU'
p1796
S"I'm a fucking punmeister Looking for a drinking partner  someone to take me to Rotato for a jacket potato "
p1797
sS'HLVZFVMHPBKJ'
p1798
S"I'm  Studying nursing at Edinburgh  Want to know more ask "
p1799
sS'TXUHZWNRZCWE'
p1800
g2
sS'VSNRVKWZNITV'
p1801
S"UoE Swedish bakar utmrkt kladdkaka sick dance moves with and without tequila in my systemJe parle franais je jure and  other languagesIf we match don't be shy"
p1802
sS'ZYYTDDFBFQTX'
p1803
S'EdinburghLondon'
p1804
sS'VZDPIZCTNPXB'
p1805
S"I'm a fucking punmeister Looking for a drinking partner  someone to take me to Rotato for a jacket potato "
p1806
sS'OGIBMYQAHIWU'
p1807
g2
sS'VRAQRMBBALIF'
p1808
S"I make poor choices when I'm drunk"
p1809
sS'GQNEVSEPZEKJ'
p1810
S''
p1811
sS'VQGHKESRNLIT'
p1812
S'Snapchat jenniferrTattoosmm ear stretcherLed ZeppelinMotrhead Anthrax Slayer'
p1813
sS'WLEZYSBEWSAA'
p1814
S''
p1815
sS'EWFPEBDPLVQC'
p1816
S"I'm a fucking punmeister Looking for a drinking partner  someone to take me to Rotato for a jacket potato "
p1817
sS'ALTONMVEJAYN'
p1818
S'Snapchat slp'
p1819
sS'RCYTWQTWOAWG'
p1820
S'Chloe  Coatbridge Celtic lass Work as a home carer and a bartender at Celtic ParkSnapchat missschloex If we match actually pop up '
p1821
sS'LJNITQQFWXCU'
p1822
g2
sS'FUXEGMKDNCGN'
p1823
g2
sS'NQSBHGAUWBAS'
p1824
S'Snapchat  Shirleyo'
p1825
sS'XVRNCNOSXNEF'
p1826
g2
sS'DTBJWWPEBITB'
p1827
S'Russian  Nurse in the making Animal lover I love playing volleyball curling up in bed with a good book listening to music and sketching Also enjoy cooking and an occasional night outLooking to meet new people and see what happens '
p1828
sS'WDKYDOQPHIDO'
p1829
S'St Andrews Uni PsychologyDo what you have to do until you can do what you want to doNorth Bay CanadaNorth Wales Peak District England'
p1830
sS'UBPZQPGPAKLX'
p1831
S''
p1832
sS'CUQRMWQVRFKR'
p1833
S"I'm a fucking punmeister Looking for a drinking partner  someone to take me to Rotato for a jacket potato "
p1834
sS'ECKCXDMKOVQI'
p1835
S"Just a nice always smiling girl living in Edinburgh originally from Poland Looking for a chat a friend a remedy to boredomI like going out having fun singing enjoying life in general ' "
p1836
sS'SCGNDDEEMJSO'
p1837
S''
p1838
sS'HQZWRASTTVEP'
p1839
S''
p1840
sS'EFEHNTAMPXDZ'
p1841
S'Instagram chloconnollySnap chat chloecon'
p1842
sS'ESIRXROHCQIK'
p1843
S"I'm a fucking punmeister Looking for a drinking partner  someone to take me to Rotato for a jacket potato "
p1844
sS'LWAYHXYTXQOH'
p1845
S'SupportCare WorkerFifeInstagram kirstymcquade Twitter Mcquadex'
p1846
sS'HDSPIUCNMKVX'
p1847
S"I'm a fucking punmeister Looking for a drinking partner  someone to take me to Rotato for a jacket potato "
p1848
sS'OOVZOUKICBCL'
p1849
S'PhD studentVeganFeministPansexualSapiosexual'
p1850
sS'ZXQZPAWXYMJV'
p1851
g2
sS'HUPRVMROJJOB'
p1852
S'Gin dogs and good food'
p1853
sS'AHTFINVNWFJX'
p1854
S"I'm from fife In Love with family guy love playing piano  but it says  ft curvy pop up"
p1855
sS'LCWQPZXPKJGY'
p1856
S'english lit studenti like people places and thingsthe kind of girl you could take home to meet your parents until your dad inevitably leaves your mum to be with me instead '
p1857
sS'OCRNLYTZFHWR'
p1858
S'Copywriter for a digital marketing agencyLove games photography and reading in a twist that no one saw coming'
p1859
sS'MYVALEHFPXFI'
p1860
S'Av had  vodka cokes and am mwi'
p1861
sS'YJUNMDNNVVSI'
p1862
S"If you think you've ever made a bad decision then just remember I ran the Tough Mudder hungover"
p1863
sS'BZKLHEMDJDWM'
p1864
S"My Name is Angela  and have an amazing little girl who i love with all my life she has changed me for the better my daughter my life   going back to study to become a nurse in August I can't wait "
p1865
sS'JFYVMAWOCOSY'
p1866
S''
p1867
sS'FCTCAACLQOHY'
p1868
g2
sS'WFLQAVIPVIEV'
p1869
S'EdinburghLondon'
p1870
sS'DEKTJMBBSAWB'
p1871
S'Kirsty Gold                                                           Scottish                                                                                                           snapchat  kirstypamela                                                                                                            My car is my baby                                              Tattooed   At college studying Professional Cookery                             '
p1872
sS'FZVKIDTUYNOX'
p1873
S' Edinburgh '
p1874
sS'VECBFVYCJIMF'
p1875
S'What u see is what you get Im always up for a laugh and certainly love a good night out Banter is the way forward cant take things to serious  happy bubbly lass  snapchat cherrissea'
p1876
sS'AQUENHLHPQTS'
p1877
S'Names Emily year abroad in Scotland from straight out of America  drink and smoke too much but still functional  hit me up if you are chill and like to have a good time   '
p1878
sS'SXAZJVLUTKIH'
p1879
S'Hey there  x'
p1880
sS'VZWROUVCMWRJ'
p1881
S'Canadian  just moved to EdinburghI just want someone who makes me laugh I make art snowboard and can do circus tricks'
p1882
sS'BNTXEPMFDZBJ'
p1883
g2
sS'KBLIDNJOVGMQ'
p1884
S''
p1885
sS'FVIYNDQOXUWM'
p1886
g2
sS'YUUTZOBANORL'
p1887
g2
sS'UWLDNRXSUXAU'
p1888
S''
p1889
sS'YMMKOQPLNFHT'
p1890
g2
sS'QQGDSLCSIEAL'
p1891
S'Edinburgh student I like cheese and tequila Sometimes together '
p1892
sS'WTJBMMFAPRKI'
p1893
S"I'm a fucking punmeister Looking for a drinking partner  someone to take me to Rotato for a jacket potato "
p1894
sS'UIGGISXLNWLY'
p1895
S"I never send x's nothing personalTry impress meHigh expectationsEither boogie hard or go home "
p1896
sS'LARJQDOLLABN'
p1897
S'Love good chat Snapchat hollieeeee Stirling Uni '
p1898
sS'JRYBYEPUHVNM'
p1899
S'Living in Edinburgh and living life to the full'
p1900
sS'OPWINBODTTCX'
p1901
S'GlasgowEdinburghStudying Civil Engineering at HeriotWatt '
p1902
sS'SQLYWSQVDKZE'
p1903
S'Deep spiritual philosophical conversations are my thing go with the flow seriousness definitely is not my thing lol '
p1904
sS'RXTXLDRSYJMS'
p1905
g2
sS'JHGGTNVYZDNN'
p1906
S"made you lookTattoos Talk don't be shy Won't pop up firstWanna be a vetNeed some banter"
p1907
sS'VKALUKDKYJHQ'
p1908
S''
p1909
sS'KHIQXTSPFHQT'
p1910
S"I'm a fucking punmeister Looking for a drinking partner  someone to take me to Rotato for a jacket potato "
p1911
sS'DZXZQLEBOEFN'
p1912
g2
sS'AJQODVINECGL'
p1913
g2
sS'KQVCKFSEFXIW'
p1914
S'Costume student at queen Margaret uni in Edinburgh Witty oneliner required for bio please leave suggestions in message form '
p1915
sS'DEDFREFBQCKD'
p1916
S'Student Edinburgh'
p1917
sS'MZAOSZPJGMTV'
p1918
S''
p1919
sS'KKKGLXRCXCDV'
p1920
g2
sS'YZNZXBEUVFUM'
p1921
S'Snapchat  wilsonAmiee Instagramamieewilson'
p1922
sS'ROCWSMTMBVLJ'
p1923
S'if i had to choose between believing in aliens and believing in love i would choose the aliens except for space i also spend a lot of time thinking about dinosaursalso im swedish'
p1924
sS'EVGSQFGPJJOS'
p1925
S"I'm new in Edinburgh and just want to meet new people "
p1926
sS'VMKYKSRLNDIU'
p1927
S' runner '
p1928
sS'AXBYCOUDJQEE'
p1929
g2
sS'ZDUURJCUUDKF'
p1930
S'Second year at Edinburgh university '
p1931
sS'XOVKBHOWPQIZ'
p1932
S"I know it says  but I'm  "
p1933
sS'WDJGYXWQSQWS'
p1934
S"I'm a kiwi who has come to work and travel in the UK  Hoping to make my way through europe   food wine traveljapan"
p1935
sS'KNPGXWCTMCMO'
p1936
g2
sS'QZRVBUBLPMCQ'
p1937
S"I love adventures and people who can make me laugh I'm always up for coffeewhisky with new people Looking for friends and drinkingexplorer buddies "
p1938
sS'POUTBCTYROVR'
p1939
S"Dont expect me to jump into your bed cause you've swiped right im a lady not a whore "
p1940
sS'JUQITCRUNURJ'
p1941
S'th year Zoologist at Edinburgh Uni A man who dares to waste one hour of time has not discovered the value of life'
p1942
sS'FGAVUEZWGPKO'
p1943
g2
sS'GHBQJAZOGSKB'
p1944
S"I'm a fucking punmeister Looking for a drinking partner  someone to take me to Rotato for a jacket potato "
p1945
sS'PZHJDHFJYHHX'
p1946
S"I'm Lindsay I like pop punk and I have a few tattoosDo not swipe right if you're looking for a one night stand "
p1947
sS'WNASVDUUWVHN'
p1948
S'Ig sofiaellenadolfina snap sofiadolfina floorball'
p1949
sS'KVBBJVQZIEHR'
p1950
S"I'm a fucking punmeister Looking for a drinking partner  someone to take me to Rotato for a jacket potato "
p1951
sS'AASNGQEFMFSY'
p1952
S"I'm a fucking punmeister Looking for a drinking partner  someone to take me to Rotato for a jacket potato "
p1953
sS'EFSSDUEFWFXH'
p1954
S' Edinburgh '
p1955
sS'MAJICCBWHYCE'
p1956
S'Edinburgh  Psychology StudentBartender Travelling '
p1957
sS'BHQJLQQXUYLD'
p1958
S'Norwegian   Student '
p1959
sS'KOCMXQNQRMGB'
p1960
S"DogspeopleI'm the blonde less attractive one "
p1961
sS'YAEQFYDJEQZT'
p1962
g2
sS'HVFCESKAMVOM'
p1963
S' Half Italian Edinburgh'
p1964
sS'YCMTRHMPQXDB'
p1965
g2
sS'MCSXWMCFWMCF'
p1966
S''
p1967
sS'REQUZWWUMGQF'
p1968
S"I'm a fucking punmeister Looking for a drinking partner  someone to take me to Rotato for a jacket potato "
p1969
sS'VWQECXLIRNUK'
p1970
S"PersianGymnast I'm in the tab"
p1971
sS'MXKZFKGCMCNW'
p1972
S'Instagram kirstinsands'
p1973
sS'TAXJWTQEUSXG'
p1974
S"Dundeeth year food student clueless shop assistant movie mad with an excessive Star Wars obsession an over attachment to my car and a horribly varied music taste that leaves most uncomfortably confused and unsure what to expect I think I'm hilarious Everyone else tends to disagreeSnapchatInstagram saraduthiex"
p1975
sS'FIXYKUTHFIBU'
p1976
S'Am kidding '
p1977
sS'KJOMILJFIXAN'
p1978
S'Down from Scotland '
p1979
sS'POOFDLMBYPGI'
p1980
S''
p1981
sS'BLMWWVIXSDQN'
p1982
S"LondonEdinburghSocial anthropology student Be nice Be fun Be friendly Don't be boring "
p1983
sS'DWQPCUSOVOPD'
p1984
S"I'm a fucking punmeister Looking for a drinking partner  someone to take me to Rotato for a jacket potato "
p1985
sS'ZWBWVOLTPALE'
p1986
S'Went to Glasgow Caledonian UniversityWork in Glasgow Message me to find out more  '
p1987
sS'EWYHWUPNXQYN'
p1988
g2
sS'SBLFWUDTZLRL'
p1989
S'You are now about to witness the power of street knowledge '
p1990
sS'ZLWVUAOVBBZP'
p1991
S"I'm really fun honest I like holidays elephants crisps and wine "
p1992
sS'CLDQSOWOPLMV'
p1993
S"I'm a fucking punmeister Looking for a drinking partner  someone to take me to Rotato for a jacket potato "
p1994
sS'WGBPWTQODERD'
p1995
S'probs taller than your fridge musically enthused DAMN THE MAN SAVE THE EMPIRE'
p1996
sS'VWZYZBBEGAUQ'
p1997
g2
sS'IEZHPABUEFCU'
p1998
S'apprentice mechanical fitter                     dunfermline'
p1999
sS'WVIIWRRPJZFB'
p2000
S'A simple hello could lead to a million things'
p2001
sS'IWTFPQXEYEAT'
p2002
S"' string bean studying at Edinburgh College of ArtWill usually be found dancing around to music covered in glitter "
p2003
sS'GICMCTXDJFQZ'
p2004
S"' string bean studying at Edinburgh College of ArtWill usually be found dancing around to music covered in glitter "
p2005
sS'VRDQNFAWDYBE'
p2006
S'Nikki Dennyfalkirk Love my daughter SingleSnapchat nikkkid '
p2007
sS'YSYVBZYTFLXM'
p2008
S''
p2009
sS'UQJJWWLGEHTB'
p2010
S'Live in Edinburgh studying drama                                     Snapchat  leahmac'
p2011
sS'HBVVGPKIIMPM'
p2012
S''
p2013
sS'LETTYYCSSWWL'
p2014
S"Play RangerPowerRanger whatever you preferTalk away don't be shy Instagram emmamorrison "
p2015
sS'MVBDBTIZIIWB'
p2016
S"Hi my names Amanda wee panda is my nick name lol I'm  and single again  I'm looking too find my mr right so of he's out there let me know lol I'm not just up for a bit of fun so if that's what your after just don't bother chatting lol I am a down too earth  kind  friendly person I'm good too those who are good too me If use wanna know anything else just send me a message xx"
p2017
sS'YTZDYWEAUSFY'
p2018
S"I'm a fucking punmeister Looking for a drinking partner  someone to take me to Rotato for a jacket potato "
p2019
sS'MYUMRJYZIYGC'
p2020
S"I'm a fucking punmeister Looking for a drinking partner  someone to take me to Rotato for a jacket potato "
p2021
sS'WZPFMBJRRVBS'
p2022
S' Scottish Snapchat AmandaGrayx'
p2023
sS'PUIHTLNOHKCT'
p2024
g2
sS'FLOIAXUOOCFM'
p2025
S'what is haaaappeninFrom Northern Ireland  living in Edinburgh'
p2026
sS'OUTBZDUGFCCZ'
p2027
g2
sS'RYXOXEKIPMAS'
p2028
S'Leeds  EdinburghBiological sciences studentMeat free I like travelling n being in the sea '
p2029
sS'HVSVKVSPBPNA'
p2030
S'BelfastDundee  Law with German  RowerLifeguard '
p2031
sS'UGWKEULWXVXU'
p2032
S'Snapchat xAshleySmithx                               Excitement  adventure '
p2033
sS'TQSRWWTBGNFH'
p2034
S'Yvonne tes bonneUSA to UK '
p2035
sS'VNVUFVEFLOFM'
p2036
S'Edinburgh uniBusiness studentPart time receptionist Love sports and trying new things '
p2037
sS'FGSFZVZOOSJP'
p2038
S'Like to cook and bake On top of that i enjoy travelling and exploring new places   '
p2039
sS'RICXPDOYVGCV'
p2040
S'Like to cook and bake On top of that i enjoy travelling and exploring new places   '
p2041
sS'HUVIDOCFKPZE'
p2042
S"I'm a fucking punmeister Looking for a drinking partner  someone to take me to Rotato for a jacket potato "
p2043
sS'RPKRWZGJOIZN'
p2044
S'From BarbadosStudying brewing  distilling at HeriotWatt university '
p2045
sS'CULKSYACLBDE'
p2046
g2
sS'JOMMUIRTTBRG'
p2047
S'Snap chat lisamclarenx'
p2048
sS'DFTFCKBWOGDY'
p2049
S"I'm interested in girls and boys as I'm bi "
p2050
sS'COSCGPCLOBFP'
p2051
S"First year English student at Stirling uni Bisexual  and that is not code for 'up for a threesome' I love acting reading writing and watching Netflix "
p2052
sS'PWLHIHRXMBIX'
p2053
S'Irish studying in QMU EdinburghHi or hey will guarantee reluctance to reply Instagram  ciaramurray'
p2054
sS'NXSXSKHQQITF'
p2055
S' NCL Edinburgh Biology student bartender keen traveller dog lover '
p2056
sS'JOIIHGJYSBXI'
p2057
S'Hayley Marie Campbell Snapchathayleymarie '
p2058
sS'UQLWTEBNTZZJ'
p2059
g2
sS'VOVAXRXJVFPZ'
p2060
S"Hey I'm Lauren nice to meet ya"
p2061
sS'RHAVUCLTHXNR'
p2062
S'Snap chat nicolapicola'
p2063
sS'UJYOZPDJSDJY'
p2064
g2
sS'KZBQCQXWXMRG'
p2065
g2
sS'HQPTOVUQJKNY'
p2066
g2
sS'RHPPIICRGMQD'
p2067
S"Law student at Northumbria UniI do not have snapchat so there's no point in askingIf you're gonna be a dick don't swipe right pretty please I'm not the type of girl to get offended if you don't add x at the end of every messageI will not message you first you're the guyRunning swimming and skiingI love to travelCats are cute "
p2068
sS'VQUFEZAISVAJ'
p2069
S' Edinburgh Engineering Northern Irish Pop punk Action films Marvel Can be funny sometimes Definitely interested if you have a catWant to learn to play drums help a gal out '
p2070
sS'JQXCVEHJLOZC'
p2071
S"I'm a fucking punmeister Looking for a drinking partner  someone to take me to Rotato for a jacket potato "
p2072
sS'LVBAAGBLFQXT'
p2073
g2
sS'WBJXLMKCAVUY'
p2074
S"Love the life you live  from Edinburgh Love tattoos and piercings Anything you want to know just ask Snapchat meganmclayDon't be afraid to message me first "
p2075
sS'CRFYJMSYRNJA'
p2076
S'Quite simply looking for some good chat new friends with similar interests travelling music films  anything else would be a bonus Xx '
p2077
sS'GTQAWFYXHPBI'
p2078
S'Say something interestingSnapchat  char'
p2079
sS'OTQNJJOAFFQH'
p2080
g2
sS'YDRXBURCSALG'
p2081
S' interested in human rights law and studying at UoE '
p2082
sS'FXOPJVWDKSCI'
p2083
S''
p2084
sS'BFWHWBLCXUTI'
p2085
g2
sS'OYKVLEWONION'
p2086
g2
sS'NKLSXZHJQEQN'
p2087
S'BCUWelsh '
p2088
sS'QMITRSNIJKDQ'
p2089
S'Stirling uni student nurse no worries '
p2090
sS'ARTBZOPAJFEA'
p2091
S"Drama and Performance student at QMU I dream of having a pug one day Its the main goal in my life really The way to my heart is food literally any food and i'll be happy Twitter  Instagram sarahlbrownx"
p2092
sS'TBRSCEVUUVQE'
p2093
S"Half Turkish festival and events student  bartender in Edinburgh steak connoisseur and gaming addict  aim to organise E one day  Little lass in the pool is my cousin ain't she a sweetie  oh also guys that have 'netflix' in their bios can u not "
p2094
sS'VFWUQRJNZMNR'
p2095
S' I love cooking reggae and rock climbing but most of all I just really love pie'
p2096
sS'OHNPBGCOVPWO'
p2097
S'Glasgow'
p2098
sS'IAVYGLDMWETO'
p2099
S' I love cooking reggae and rock climbing but most of all I just really love pie'
p2100
sS'BMVEQFWRIWJI'
p2101
S'Half MalaysianHalf Scottish '
p2102
sS'PZYCZEWDTICE'
p2103
S'Norwegian   Student '
p2104
sS'FTGHRSIWCCAR'
p2105
g2
sS'BBHSRNUXCKCX'
p2106
S'I like long romantic walks to the bar'
p2107
sS'GHUWUCKFMGXF'
p2108
S''
p2109
sS'RVCDKBTTWDRP'
p2110
S'Snapchat  libsnedxInstagram  libsnedTwitter  libsned'
p2111
sS'GSUDEIXZPIHR'
p2112
S'Snapchat sharastevens '
p2113
sS'MPGVQPVTALRH'
p2114
g2
sS'IYCJAZLNMBFE'
p2115
g2
sS'WMOMRAAPCEND'
p2116
S"Hi i'm Elley  studying costume design at ECA "
p2117
sS'DIBSMWQLGYPD'
p2118
S'In Sweden we have a system'
p2119
sS'OGUPQINUQLZF'
p2120
S'I enjoy a nicely packed bowl placed on top of a bong Plainfield IL USA Let me be your American sweetheart Edinburgh for the next  weeks Lots to see drink smoke and explore here '
p2121
sS'MCPXKMYUGJIB'
p2122
g2
sS'OEWEFNKQIOJW'
p2123
S'Edinburgh chick'
p2124
sS'FJKSNGZPNITY'
p2125
S'Currently studenting in edinburgh '
p2126
sS'JWWWAGEOTVML'
p2127
g2
sS'FZLEKSYDBODE'
p2128
S'Snapchat  caznelly'
p2129
sS'XNWKSXLYBWDP'
p2130
S"I like to work out music and comedy I'm also a PhD student in architectural history Good cook like beer and hate girly drinks No hookups "
p2131
sS'SLILPMKDYMQW'
p2132
S''
p2133
sS'WXOAEZYAHGHJ'
p2134
S'If your looking for a girly girl thats really into cheeky sunbeds and cheeky nandos or pretty much cheeky anything then you should swipe left Want to ask anything else swipe right and hope for the best  snapchat  mulladyalso im  not '
p2135
sS'SOTUQIAXWWPN'
p2136
S"PersianGymnast I'm in the tab"
p2137
sS'KAMYBOEVDIVQ'
p2138
S'Northern Ireland Edinburgh Napier Skiing Hockey Travelling  '
p2139
sS'UBCZPJKFGWZI'
p2140
g2
sS'JQGWFCNYADRA'
p2141
S''
p2142
sS'RMGGOTLHNUWO'
p2143
g2
sS'EBXITBUBUTPE'
p2144
S'From northern England Sunderland Student in Edinburgh'
p2145
sS'PNGPNKIPDWPV'
p2146
S'Edinburgh'
p2147
sS'DROCUMMJGXWA'
p2148
S'Snapchattaelorsmith  '
p2149
sS'CZQVFAGPJZYU'
p2150
S'Sport and exercise student Stirling uni '
p2151
sS'TAUIWSPNVGHG'
p2152
S"I'm a fucking punmeister Looking for a drinking partner  someone to take me to Rotato for a jacket potato "
p2153
sS'FUORFXZOPHJJ'
p2154
S''
p2155
sS'NRLVVOTDPOVX'
p2156
g2
sS'FOJEZNYZNJHT'
p2157
S'Insert line about loving video games pizza and getting drunk Okay so only two of those are true but you get the jist '
p2158
sS'WLYADGKHVQMP'
p2159
g2
sS'GACLGZUNTCWK'
p2160
g2
sS'WVIQSDKPDTFU'
p2161
S'French student  Internship in Edinburgh for  months'
p2162
sS'XRQTUCAOONZD'
p2163
S"Socialist and feminist Love the arts mostly music Oh should mention that I'm looking for friends so no funny bussiness "
p2164
sS'YNDXDJAPEEHL'
p2165
S''
p2166
sS'UBIQAUEDDGOA'
p2167
S''
p2168
sS'QXIOJQRODJKH'
p2169
S'UoESailing singing drinking socialising etc '
p2170
sS'ZQJJXFYGAVRL'
p2171
g2
sS'CUPJUCKUXZTK'
p2172
S"Just want to travel Don't message first but will reply xYes I do have snapchat so just ask "
p2173
sS'VJXADKCVCEJK'
p2174
S'From Edinburgh Instagram megaandrydenn '
p2175
sS'AYPXXHFWKPOU'
p2176
S'Twitter nikitaw Snapchat nikxoInstagram nikitawiseman'
p2177
sS'ZVRKEEXTZPRE'
p2178
S'English language student at Edinburgh Uni Like music and books and cooking and getting drunk'
p2179
sS'LGDQUNEKPRIM'
p2180
S'EdinburghMy hobbies include Netflix  Chill minesweeping drinks in George Street nightclubs and taking romantic walks with you to the cash machine'
p2181
sS'WCQJLPVHBSPR'
p2182
S"I'm a fucking punmeister Looking for a drinking partner  someone to take me to Rotato for a jacket potato "
p2183
sS'OJIHTSDYTQXD'
p2184
S"I'm a fucking punmeister Looking for a drinking partner  someone to take me to Rotato for a jacket potato "
p2185
sS'NXBLVINXTYBF'
p2186
g2
sS'RSNCRTIVDAYB'
p2187
S'History student at Edinburgh University  '
p2188
sS'EFLIKEGJKXQS'
p2189
S'From Edinburgh  Snapchat ashleighx'
p2190
sS'HUAOIMAKZSBH'
p2191
S''
p2192
sS'JATDPWZVSVQK'
p2193
g2
sS'PUHSIMCURDZB'
p2194
g2
sS'DMEJGFZYQHIB'
p2195
S' '
p2196
sS'WWQORHNDXVYL'
p2197
S'Edinburgh Midwifery student '
p2198
sS'ZMFSROIPZNWD'
p2199
S'Final year student from nireland '
p2200
sS'EKWAERLRYWEN'
p2201
g2
sS'TVVKVYINOZBZ'
p2202
g2
sS'WAIEHYKEDVAC'
p2203
g2
sS'BEZBNJPELPRN'
p2204
S'here to laugh at peanut headsI uninstall this often so soz'
p2205
sS'QRXEKOFCEPON'
p2206
S'Studying at UCL for a bit'
p2207
sS'XVYFFKISWKWU'
p2208
S''
p2209
sS'MCACWWTJMALC'
p2210
g2
sS'CXVMMBWAKHPK'
p2211
S'Art student in Edinburgh'
p2212
sS'QFZWIYCNADSL'
p2213
S''
p2214
sS'UFHISUHSAEBI'
p2215
g2
sS'MNGRUAWFDSZM'
p2216
S''
p2217
sS'THOFTPJDJDIE'
p2218
g2
sS'UCQRAVFCYIBO'
p2219
S"I'm in love with David Attenborough "
p2220
sS'KMQCZIHJKHMZ'
p2221
g2
sS'ITGNIVAQPQSS'
p2222
g2
sS'VZNZLEZJWHUT'
p2223
S'Taylor ParisCool Cool cool cool insta  taylorparis'
p2224
sS'TTJSZPZERXIX'
p2225
S"I'm a fucking punmeister Looking for a drinking partner  someone to take me to Rotato for a jacket potato "
p2226
sS'VCYNVTHXFVVV'
p2227
S''
p2228
sS'JOOAANFYHWHA'
p2229
S"I'm in love with David Attenborough "
p2230
sS'WJDVPWKBBQAX'
p2231
S'ft HR Coordinator studying my degree parttime while working fulltimelove prosecco far too much aw and if your a guy who pouts in photos bolt xxxx'
p2232
sS'SEBGNIJVPWOU'
p2233
S'psychology student at edinburgh uni bios are shit so just come chat to me ae '
p2234
sS'YQPUGNKMGAWI'
p2235
S'I study psychology at the University of Edinburgh and I like skiing and hiking Also enjoy reading pretty much anything scifi and too many tv series'
p2236
sS'FZTFQKSPRHCL'
p2237
S'I am a vet nurse staying in Edinburgh Animals are better than people '
p2238
sS'FHZOORPTHRNC'
p2239
S"DundeeSnapchat shannoncraigie Hate dull people with no personality so if you have none don't speak to me"
p2240
sS'WAWAVANSLUSC'
p2241
S''
p2242
sS'OJTWSNBLJJSW'
p2243
S'HK in Edinburgh '
p2244
sS'GWECCFQFRIXH'
p2245
g2
sS'TOCZYYIZIWBD'
p2246
S"I'm counting on your standards being lower than mineStudying Marketing at uni in Edinburgh but still no idea what I want to do in life Instagram  caitlinmjordanTwitter  muppetkay "
p2247
sS'DLQOVGRKUOPX'
p2248
g2
sS'DNEFYTWEEPSR'
p2249
S"I'm a fucking punmeister Looking for a drinking partner  someone to take me to Rotato for a jacket potato "
p2250
sS'MVLZXDAJYEXZ'
p2251
S"your bloody mary's lacking in tabasco "
p2252
sS'EHPPRRNEUXCM'
p2253
S'Snapchat  rach '
p2254
sS'RWOZDYIUQAAS'
p2255
S"I'm a fucking punmeister Looking for a drinking partner  someone to take me to Rotato for a jacket potato "
p2256
sS'FLFAIUWLDJLX'
p2257
S"Forensic Investigation student  Glasgow Caledonian Music enthusiast tattoos  I have  looking to add to my collection dog lover football and budding rugby fanPeople who pun are my people  I guess I'm little shy but if you make me laugh I'll definitely have a chat with you "
p2258
sS'AVDKEVDJLKVN'
p2259
S'Edinburgh Instagram katiehmferguson '
p2260
sS'TIMBYEBWVATD'
p2261
S'Photography StudentHave a pretty boring life'
p2262
sS'VEACMEQTOHKO'
p2263
S"I'm a fucking punmeister Looking for a drinking partner  someone to take me to Rotato for a jacket potato "
p2264
sS'LFWACSCYLZNX'
p2265
S'Chemistry student at Uni of Glasgow'
p2266
sS'SEEZBEYMGZYT'
p2267
g2
sS'ZHGCFIEKURZA'
p2268
S'Edinburgh The less you reveal the more people wonder Insta gbrutherford'
p2269
sS'LKTRCCVRXITA'
p2270
S"Stirling Uni  If you are reading this I am metaphorically smiling at you  Go smile at someone else now  it will make their day  I love Marvel films Let's build a pillow fort "
p2271
sS'PDIEMFZQRUGZ'
p2272
g2
sS'SYOTCVEVSROI'
p2273
S'BCUWelsh '
p2274
sS'KUEAHHIFWXAD'
p2275
S'I cry at John Lewis adverts '
p2276
sS'PNGIEEHHACEY'
p2277
S"I would quite like some one to kick about and explore with butterflies would be nice tooTove Lo Moments appears to be my song right nowI'm final year psychology at Stirling so my brain is usually full of peculiar theoriesI also like to dance and sew and drink nice beer"
p2278
sS'HWCXNOWCVVHU'
p2279
S'snapchat kirstenwindever'
p2280
sS'POYDJEEPIIVH'
p2281
S"philosophy student at UoE avid jazz n folk loverif you don't like cats or cakes swipe left now "
p2282
sS'CQKLENZWBIXG'
p2283
g2
sS'RSZRMJLXAATI'
p2284
S"Tinder c'est mon dada "
p2285
sS'ZTNVFVMAMZXU'
p2286
S"It's unfair that breakfast in bed is romantic but dinner in bed is a cry for help"
p2287
sS'XIQQVTIUIPHM'
p2288
S"DerryEdinburgh Love having a bitta craic can be pretty sarcastic at times I reckon I'm pretty friendly though modest too so feel free to send me a wee message "
p2289
sS'MTVEJQPLIJFA'
p2290
S"Canadian gal who moved from the family igloo to haggis land I like binge watching breaking bad in bed being nocturnal camping the ocean rainy days hot drinks indie music and naps Let's get together throw a Catalina wine mixer and do activities Also I can name all  original Pokemon If that doesn't impress you I don't know what will Ps If you have a beard I will love u eva I'm so alone"
p2291
sS'SYPAXBJZWPJH'
p2292
S'A ridiculously sarcastic midget that loves beards '
p2293
sS'MDDFYGSJBUQY'
p2294
S"' English Lit student at UoE"
p2295
sS'WKLPJMSOZELL'
p2296
g2
sS'NVFAFHKZQBPN'
p2297
S'Instagram  laaaurensmith'
p2298
sS'XHOERGINMKRI'
p2299
g2
sS'KHJSZIRLHVFI'
p2300
g2
sS'PAZCMEAISGYN'
p2301
g2
sS'TETAYRIPRFTK'
p2302
S"Just moved back to Edinburgh after being in Florida for  years Please don't swipe right unless you actually want a conversation I like honest dominant men who are protective Nice feet and hairy chests too "
p2303
sS'EFBRSMOPFJUQ'
p2304
S'Just Gin and bear it  DStudentEvents management  Not afraid to say hi first Genuinely nice '
p2305
sS'RPCJKABCWGQT'
p2306
S'NewcastleEdinburgh '
p2307
sS'FHYEJDQKSLHL'
p2308
S'Forresedinburgh Criminology at Napier '
p2309
sS'DUEUIRXWSFEY'
p2310
S"I'm a fucking punmeister Looking for a drinking partner  someone to take me to Rotato for a jacket potato "
p2311
sS'YQIRNLBVNSSK'
p2312
S'Half MalaysianHalf Scottish '
p2313
sS'MGAKXWIYNMNC'
p2314
S"Just want to travel Don't message first but will reply xYes I do have snapchat so just ask "
p2315
sS'RLMEJCEKGZDH'
p2316
S'Love Toy Story and a good pair of socks '
p2317
sS'AHHKIWVZPTEL'
p2318
g2
sS'IELTDMEWAHEV'
p2319
g2
sS'UCGWXRVFOVZO'
p2320
S"I'm a fucking punmeister Looking for a drinking partner  someone to take me to Rotato for a jacket potato "
p2321
sS'ADXEIYSKAMOA'
p2322
S"Doing a Masters degree at St Andrews but if I had my way I'd probably still be chasing cows round the Australian outback From Devon a country girl at heart  "
p2323
sS'JGHNQWDUXDJO'
p2324
g2
sS'BRVASRUNLYZK'
p2325
S"I'm a daydreamer and a nightthinker aka I go to bed at about am most nightsnd year theatre and film student  big tea lover and Christmas obsessedI'm not the kinda girl you will meet in a club I like hanging out in my flat or going out to a pub with my friends Slytherin and proud  I write scripts in my free time and I spend a lot of time with my friends who are all massive geeksnerds what ever you call them who I mum  but they keep me laughing which I love  "
p2326
sS'DHIKHSWTAPJI'
p2327
S"I'm a fucking punmeister Looking for a drinking partner  someone to take me to Rotato for a jacket potato "
p2328
sS'RMCBOPHPCQGX'
p2329
S''
p2330
sS'JBJBHFKXTIFZ'
p2331
S"I'm a fucking punmeister Looking for a drinking partner  someone to take me to Rotato for a jacket potato "
p2332
sS'RJBRORLNSJWE'
p2333
S"HND Acting and performing studentI like guys in bands and I've got a thing for drummers"
p2334
sS'MOBNEWNOOJYQ'
p2335
S'A simple hello could lead to a million things'
p2336
sS'UORYNHVWDAYL'
p2337
S'  Irish   Radiography student at QMU '
p2338
sS'FCUJBNMALNVH'
p2339
S"I'm a fucking punmeister Looking for a drinking partner  someone to take me to Rotato for a jacket potato "
p2340
sS'QGGCBWHPDNEL'
p2341
S'Events Management  QMUSnapchat  alyssahall'
p2342
sS'IZADRLANHZTA'
p2343
S"I'm really fun honest I like holidays elephants crisps and wine "
p2344
sS'ICXLGVNZJQDL'
p2345
g2
sS'TFEBVKEAZEGS'
p2346
S' Full time carer from Glenrothes '
p2347
sS'WKRWIWTIBLYA'
p2348
g2
sS'INSKQUCBZEGZ'
p2349
S'simmer down and pucker up'
p2350
sS'WRXCVWPKGDSH'
p2351
S''
p2352
sS'PSVDNTWQLYPX'
p2353
S"The one on the left I'm not that short in real life  Uddingston In the midst of a quarter life crisis"
p2354
sS'PUVELXFLFENV'
p2355
S'Accounting student at Herriot Watt '
p2356
sS'BNCBDRQPVGVD'
p2357
S'I love footballgym i work as a hairdresser and accountant '
p2358
sS'SYAEINQDTQZT'
p2359
S'From EdinburghJust give me a message to find out moreIgnore my interests'
p2360
sS'XNHTRINKFFNM'
p2361
S'Live in Edinburgh and work for the farm assurance office Go to young farmers and have had ponies since I was a toddler'
p2362
sS'DQFNXJLFJOGU'
p2363
g2
sS'ZRYOBAEPFYKQ'
p2364
S"I literally love talking to people So anyone up for a chat please feel free to drop a message Can always hold a good conversation I'm the one in the middle Snapchat  dannlouu"
p2365
sS'UZPLTJVDCFME'
p2366
S"I don't do Netflix and chill "
p2367
sS'UAGNEROCRGXV'
p2368
S"I'm a fucking punmeister Looking for a drinking partner  someone to take me to Rotato for a jacket potato "
p2369
sS'XTRJSFIOYZPO'
p2370
S''
p2371
sS'ARWXDWBVAJVI'
p2372
S''
p2373
sS'HFJSOOAQZZLR'
p2374
g2
sS'FMXIZUGGMTZH'
p2375
g2
sS'OYABCBPRFVQF'
p2376
S'Spent my summer living in Spain'
p2377
sS'GRIXHEHMOZAJ'
p2378
g2
sS'LRNKVVFIUHGC'
p2379
S''
p2380
sS'LXRKYDKCXWNL'
p2381
S'love travelling theatre and meeting new people  '
p2382
sS'MDFUZULEYNBY'
p2383
g2
sS'WYUQVJETUYAE'
p2384
S"I'm interested in girls and boys as I'm bi "
p2385
sS'JCLCDXRLNPYZ'
p2386
S' '
p2387
sS'WYDEGOQAHKGA'
p2388
g2
sS'DHNKHEIQLKNL'
p2389
S' not West Lothian Snapchat colekeenanxoInstagram nicolekeenanx'
p2390
sS'FFIONFKXZQEU'
p2391
S'Studying in UofG this year '
p2392
sS'UULKZSTWITPZ'
p2393
S''
p2394
sS'MIGFEUACTFHQ'
p2395
S"I'm  not Green eyesftFifeSnapchatweegill "
p2396
sS'TWAPHBMDTMJY'
p2397
S"Stirling Uni  If you are reading this I am metaphorically smiling at you  Go smile at someone else now  it will make their day  I love Marvel films Let's build a pillow fort "
p2398
sS'RJKPNBIOBWLJ'
p2399
g2
sS'VOWTSBJPJGOA'
p2400
S'If you like water you already like  of me EdinburghSnapchat hazbazx '
p2401
sS'OHZBSZPJBHLD'
p2402
S'Edinburgh Instagram katiehmferguson '
p2403
sS'JNSNNFBEWIXL'
p2404
g2
sS'JIGZSAEBYMPX'
p2405
S' Half Italian Edinburgh'
p2406
sS'MPEHLLXVOOLA'
p2407
S'UoE Economics '
p2408
sS'USDVIZZXZNQN'
p2409
g2
sS'SVKRLWAXXROW'
p2410
S'got a wee bro called caolan i love him so much  Currently studying nursing at the university of Stirling And love frozen '
p2411
sS'WEAQCETWCFQQ'
p2412
S"I'm a fucking punmeister Looking for a drinking partner  someone to take me to Rotato for a jacket potato "
p2413
sS'PZKSFAXCCJYB'
p2414
S"I'm studying chemical engineering at Edinburgh I like to communicate using sounds rather than words sometimes"
p2415
sS'WKQZMKZNMQCA'
p2416
S'Social work student at Glasgow Caledonian uni '
p2417
sS'DVZJNAEMALYW'
p2418
S'Love new adventure  road trips Love traveling If we match message me Facebook httpsmfacebookcomNicoleeeeee'
p2419
sS'PFMZJESNMOTB'
p2420
S'Living and studying in Edinburgh '
p2421
sS'VNAPMRCWUJKP'
p2422
S"I'm a fucking punmeister Looking for a drinking partner  someone to take me to Rotato for a jacket potato "
p2423
sS'ILWOTFCWCJZN'
p2424
S'German Lives in Singapore moving to Edinburgh Hit me up '
p2425
sS'LUZUSEAKHSPU'
p2426
S" year old student nurseLife ambitions are to cuddle a baby panda and visit the moonSleeping is my favourite hobbyA good cup of tea solves everything Just going to put it out there I'm not a movie geek too much sports scares me and I have no great desire to travel Men shouldn't wear bobbles in their hair I'm  addicted to tinder there ah said it "
p2427
sS'LRGWTWAMKYPV'
p2428
S' '
p2429
sS'VZNMHFCLXSUN'
p2430
g2
sS'WIHEYXQMZLNV'
p2431
g2
sS'DRBRQCQDMUKR'
p2432
S"I never realised what a posey little shit I was before having to upload pictures here Hmm  I'm starting to feel remarkable dull I've been sitting here trying to write something that's both interesting and hilarious But we got nada I'm pretty okay I've got a terrible sense of humourrude not shit awkwardnessaplenty and more illconceived notions that are strictly good for my health Dogs are my soulanimals And I love cheesecake Nailed it "
p2433
sS'QDKZCGDSUIPW'
p2434
g2
sS'ZTXQYAULXNMU'
p2435
S'Gym  Dance  Cook  Bake  Love  Travel  Be crazy  Be happyPeople should smile more Personal Trainer Student'
p2436
sS'AKGCHZXYOQRO'
p2437
S"Gtf I'm aff it Ur maws got a demin trackieDid yae aye "
p2438
sS'HXFKUKVDYCHI'
p2439
g2
sS'UFSQFURHOZPR'
p2440
S'hopefully be a student by January year old son '
p2441
sS'IWBOHYHCWABS'
p2442
S''
p2443
sS'GKSDEPUKHPPN'
p2444
S" from Bo'nessHaving  tattoos  counting "
p2445
sS'ALWYTHKHZCTY'
p2446
g2
sS'OAXOMMANXDNB'
p2447
S'Just looking for peeps to chill and watch movies with '
p2448
sS'MXIDWJNBTRGU'
p2449
S"I'm a fucking punmeister Looking for a drinking partner  someone to take me to Rotato for a jacket potato "
p2450
sS'WVHDAVCSIXQB'
p2451
g2
sS'BWCBOKSUPSOI'
p2452
S'Welsh girl usually based in Edinburgh work in marketing gym promotions constantly travelling Work between US and UK'
p2453
sS'XOXIIPGQUXYJ'
p2454
S'From the Scottish hills working in costume for film and tv'
p2455
sS'ZAPYXQANNHXM'
p2456
g2
sS'RQKDFFEWSNAL'
p2457
g2
sS'QZUDYAYUXXLT'
p2458
S''
p2459
sS'DVYZOTYBEHBD'
p2460
S''
p2461
sS'PYJTJDACEUWE'
p2462
S'Physics Edinburgh '
p2463
sS'CERVYVIIKJVC'
p2464
g2
sS'EBIXCCBPLMRD'
p2465
g2
sS'LJYZENCQUNCD'
p2466
S'If you like water you already like  of me EdinburghSnapchat hazbazx '
p2467
sS'WWSAXWGJZDMX'
p2468
S'st year University of Edinburgh  London gal'
p2469
sS'IWUPCPXEJZNX'
p2470
S"I'm the blonde with glasses in the photo and in the other that's about the only time I look that cute when I'm sleeping lol"
p2471
sS'ZHVWFAXLFPGX'
p2472
S'Apprentice Electrician'
p2473
sS'KCITTLMNWDAO'
p2474
S'Student  Cheerleader  My favourite things are Ice Hockey and Event Planning Twitter  JenIsabellaxx'
p2475
sS'NAWSIXAGSPWU'
p2476
S'Snapchat jadeboydxo'
p2477
sS'RVKIFYLOHARQ'
p2478
S'edinburgh uni student tottenham hotspur fan dog personi like good grammar and cheesey chatup lines'
p2479
sS'BKQQUFUIMZJO'
p2480
S"I'm a fucking punmeister Looking for a drinking partner  someone to take me to Rotato for a jacket potato "
p2481
sS'DIAGMOIRSQNO'
p2482
g2
sS'LLFPRFVMQDTT'
p2483
g2
sS'JBOYUNQHMMMG'
p2484
g2
sS'MIBKMECKDLIT'
p2485
S"Ideally looking for someone to make new memories with  chat friendship or maybe even moreSomething about meLoves outdoors exploring to read having a giggle snuggles history Not really sure what to make of Tinder Please say more than hi how are you As hello and I'm doing fine"
p2486
sS'BPZJGMIMZKZP'
p2487
S'Got a baby girl '
p2488
sS'CTZHUCHFJDHB'
p2489
S''
p2490
sS'WEUNIPZSFMGJ'
p2491
S'ft  and hate rude people '
p2492
sS'RYZKJGPUDWOQ'
p2493
S"Just seeing what happens Straight forward girl to get along with Trying to find the balance between talking first and the guy thinking nice the girl chats first or a guy that thinks oh she's too eager "
p2494
sS'LFWEBALHWOZH'
p2495
S"I'm a fucking punmeister Looking for a drinking partner  someone to take me to Rotato for a jacket potato "
p2496
sS'JKCMXGLGVACQ'
p2497
g2
sS'LJCAMKQRDVJC'
p2498
g2
sS'JYFZIHXCMAGI'
p2499
S''
p2500
sS'PKBKFTPWGOQQ'
p2501
S''
p2502
sS'ODEQIJQEVVXV'
p2503
S'Indian classical dancer who gets Marx'
p2504
sS'YRYJDIODFRMC'
p2505
S'E D I N B U R G HSnapchat jessmcgovernx'
p2506
sS'UVFIEAVRSAUM'
p2507
S'From EdinburghTechnical Theatre student in GlasgowEasy going and cheery but apparently  can be to honest for my own good sometimes'
p2508
sS'NJPDPMTAWCQB'
p2509
S'LivingstonEdinburghCurrently studying at Edinburgh College then hopefully off to Aberdeen Music television photography art travelling football  rugby sleeping writing  hope to one day live in Oz or the USA Add me on Snapchat if you want  krisberridgexo'
p2510
sS'MBZEPKXQFNTF'
p2511
S"Katie  Born and bread in North Yorkshire  I'm studying Anthropology at The University of Edinburgh I love music more than anything I drink a lot of tequila I am also a vegetarian  "
p2512
sS'KUVOPDENMKPW'
p2513
S'LOVE LIFELife isnt about waiting for the storm to pass its about learning to dance in the rain'
p2514
sS'KJTGOKNXWHTS'
p2515
S'German studying in the Netherlands on exchange in the UK'
p2516
sS'AYJNUTTDZDSG'
p2517
g2
sS'YRKSLJJKDJTI'
p2518
g2
sS'VVZGFINARMXG'
p2519
S'Edinburgh Uni  PE'
p2520
sS'AHRJESQNLPWF'
p2521
S'Instagram  eloiseevans '
p2522
sS'TVCJBKRELGAT'
p2523
S'Working full time No kids and I drive so no need for a chauffeur also the braces are gone now '
p2524
sS'FEPTNBTJADSP'
p2525
S"First year Nursing student at Edinburgh Uni I can't make you better if you get ill but I will do a stellar job of washing my hands"
p2526
sS'XQTHGDROJIPE'
p2527
S''
p2528
sS'ERISTXBVKQTF'
p2529
g2
sS'ILYCHIAEEMCB'
p2530
g2
sS'YJUNBZUVKCST'
p2531
g2
sS'IDTOBQGXQNVG'
p2532
S'  Voluptuous fat  lazy recovering netflix junkie with an offensive sense of humour I like people I can laugh with my very existence is a joke I like gay barsDont tend to message first im shy like that PSnapchat bitchitsyasmine'
p2533
sS'MXSRCBGHULNG'
p2534
g2
sS'GEGCMTOFRFWD'
p2535
S"I'm a fucking punmeister Looking for a drinking partner  someone to take me to Rotato for a jacket potato "
p2536
sS'NTDCQEPSMQDZ'
p2537
S"To be quite honest I don't even know why am on this  go with the flow and see where the stream takes us constantly deleting my account and then readding  cause I am indecisive about these things "
p2538
sS'ENTWWLSDXQOD'
p2539
g2
sS'NOKDWHRPNTEU'
p2540
S"There are four important things that you need to know about me I enjoy binge watching series or ridiculous documentaries until I bleed from the eyes and ruining my life in general I regularly wash my hair with shower gel by accident and lastly I could probably fire through a pizza or majority of food items for that matter in  seconds flat Hope you're impressedGrandSnapchat leonnabrownGo on brighten my life up a bit "
p2541
sS'DSTSSNPEWPNF'
p2542
S'studying art at college xox'
p2543
sS'HTBLSDRCMBUH'
p2544
S'Currently studenting in edinburgh '
p2545
sS'GMSANORAVJGD'
p2546
S'Illustration student at Edinburg uni'
p2547
sS'LWJMMMIPOCMA'
p2548
S'Music books traveling shitty s films '
p2549
sS'TSZBSNTUAXQI'
p2550
S'Edinburgh Uni  PE'
p2551
sS'XZKSFFLHIAFJ'
p2552
S'LondonEdinburgh Part time barmaid full time female UoE ArabicFrench'
p2553
sS'XIJPDPOGDEVM'
p2554
g2
sS'SWYKADSPWIKE'
p2555
S'French Just looking for a funny or interesting chat Maybe more according to the chat'
p2556
sS'TPJYWYLZNWQN'
p2557
S'Fife boxerfitness fanatic Instagram justinewaterston'
p2558
sS'SUQYKESPVKHS'
p2559
g2
sS'EKTRFNAGOUWI'
p2560
S'My loves The Arts Travelling casual gaming Tech   Finally CATS I love em D'
p2561
sS'XHNCIAUBLZBF'
p2562
S''
p2563
sS'KLCOSMKIBFYP'
p2564
g2
sS'ANVRRWVNTMRZ'
p2565
S"If I had a pound for every time someone asked me if my hair was naturally ginger I'd have nothing No one talks to me "
p2566
sS'QUDGAATJWZNC'
p2567
g2
sS'VBWPICUMCEZI'
p2568
S"I'm a fucking punmeister Looking for a drinking partner  someone to take me to Rotato for a jacket potato "
p2569
sS'LCDPVVIPSZAA'
p2570
S''
p2571
sS'VSNARKBCSTAJ'
p2572
S'Edinburgh student I like cheese and tequila Sometimes together '
p2573
sS'RQVJKCSZFYII'
p2574
S''
p2575
sS'SUMDIOUQGJQH'
p2576
S"I'm a fucking punmeister Looking for a drinking partner  someone to take me to Rotato for a jacket potato "
p2577
sS'ZCULMSDONDGS'
p2578
S'Love Life and Live it because you dont know whats around the cornerYou need to learn to forgive but NEVER forget learn from your mistakes but not to regretMiss my wee granny '
p2579
sS'SDBZEXHGPVGK'
p2580
S'Looking for the real deal '
p2581
sS'WFHNYVPXIKXZ'
p2582
S'tattoos  piercingscatsTaylor Swift is God'
p2583
sS'MCKPVFIFDDON'
p2584
S"They call me gillette coz am the best a man can get Also I'll cut you I have tina turners name and date of birth tattood on me just coz I can dinny like her swipe left n dae us all a favour Kirlcaldy  instagram heatherritchieo"
p2585
sS'ROWTCPYSBPJN'
p2586
S"I like penguins a glass of wine and singing Milkshake when I'm drunk I graduate next year so I've already started the search for a man who looks good in a suit Sorry not sorry"
p2587
sS'WJRXKKFWEGVD'
p2588
S'Nurse graduate RAF applicant Gym running kayaking Gin gin and more gin '
p2589
sS'IHESIHOAFGGF'
p2590
S'Events management student music lover and Disney enthusiast Living in the moment '
p2591
sS'IJYPNJECMJET'
p2592
S"I'm a fucking punmeister Looking for a drinking partner  someone to take me to Rotato for a jacket potato "
p2593
sS'CRMGPDNYEGDB'
p2594
S''
p2595
sS'THOAYGSOZDGI'
p2596
S'Twitter amymcfInstagram amymcfarlane'
p2597
sS'XFYVNGULFVTC'
p2598
S'emmy milneadd my instagram  emsmilne x x'
p2599
sS'TOHDWPVZKTOI'
p2600
g2
sS'JBETIJQHGSZD'
p2601
S'Date scenario take you out to laser tag proceed to be amazing win Celebratory drinks and bragging ruin all chances of second date Work hard sleep hard '
p2602
sS'WYBMCHHJDSSW'
p2603
S' '
p2604
sS'JYNYIBXOSUTI'
p2605
S'Snapchat stephrobertsoon '
p2606
sS'OOZEMQJUFILV'
p2607
g2
sS'ERUTGGSEIJBA'
p2608
S'German Lives in Singapore moving to Edinburgh Hit me up '
p2609
sS'GTJWUGYMTJGL'
p2610
S'cba'
p2611
sS'YERKVEFXJCCB'
p2612
S'probs taller than your fridge musically enthused DAMN THE MAN SAVE THE EMPIRE'
p2613
sS'AZUHPSNUHTAS'
p2614
S' University of Edinburgh for the year getting my MSc '
p2615
sS'XTEASPEOEORA'
p2616
S"Music  Mixtapes  Vibing  National Geographic  Landscapes  Tea  Morning Flavoured Lattes  Muffins  Netflix  Cinema  Yoga  ' "
p2617
sS'XHJSOGKYJVEZ'
p2618
S'photography student from fifequeen of shite chat up lines lover of gin and cheap wine need a man to get extremely drunk with me all the time '
p2619
sS'BORTXROGGMFL'
p2620
S"I'm like a lightbulb I light up the room when you turn me on and if you stand on me you'll end up in hospital"
p2621
sS'TBJKMUDXXHFW'
p2622
S'Illustration student at Edinburg uni'
p2623
sS'IIUDPJGVFVMB'
p2624
S'From italy Love photography Traveler '
p2625
sS'DEGXKNNJYRXP'
p2626
S"I literally love talking to people So anyone up for a chat please feel free to drop a message Can always hold a good conversation I'm the one in the middle Snapchat  dannlouu"
p2627
sS'FVIHHTBSZQVH'
p2628
g2
sS'SEKXZCLQZPMP'
p2629
S"DogspeopleI'm the blonde less attractive one "
p2630
sS'RDWRYEMBUIQU'
p2631
g2
sS'TBHXILINUXMR'
p2632
g2
sS'SANWPZHTMLVZ'
p2633
S'Indian classical dancer who gets Marx'
p2634
sS'KKJUMMRJGOZZ'
p2635
g2
sS'SJJMNSVWJLGZ'
p2636
S"I'm a fucking punmeister Looking for a drinking partner  someone to take me to Rotato for a jacket potato "
p2637
sS'HXJGYFIUDNUI'
p2638
S''
p2639
sS'IGIUHNYSLXKI'
p2640
S"I'm  not Green eyesftFifeSnapchatweegill "
p2641
sS'XULQRSCMLPOT'
p2642
g2
sS'IREJVSGBSUYL'
p2643
S'Radiography student Edinburgh '
p2644
sS'LTXIKOXQWQVR'
p2645
S' Lifeguard'
p2646
sS'FJVXGHYWBMNX'
p2647
g2
sS'JALFFHFIORBF'
p2648
g2
sS'HAQMPYVXJZKX'
p2649
S"Play RangerPowerRanger whatever you preferTalk away don't be shy Instagram emmamorrison "
p2650
sS'DPUOJFPETYCU'
p2651
S'PhD studentVeganFeministPansexualSapiosexual'
p2652
sS'PGBGGOTIRRGD'
p2653
S'ftinsta roachyx'
p2654
sS'YHDCLVPTEAMY'
p2655
S"I'm a fucking punmeister Looking for a drinking partner  someone to take me to Rotato for a jacket potato "
p2656
sS'WSMVPOLBJCLP'
p2657
S"Fall out boy are very important to meEnjoy a laugh and a good time Life is happening once and I'm gonna enjoy every moment Feel free to come along "
p2658
sS'ZJPSLAIBHOOM'
p2659
g2
sS'GPOCBPRKTZHC'
p2660
S'GlasgowEdinburghStudying Civil Engineering at HeriotWatt '
p2661
sS'MHFYIVWRNIOE'
p2662
S' Kirkcaldy '
p2663
sS'WTGVLBMJHVKI'
p2664
S'From Edinburgh Dundee Uni'
p2665
sS'VTLKEEFJOTUI'
p2666
S'Northern Irish Studying medicine at Dundee One of those people who actually likes politics And wine '
p2667
sS'ZVMOPGKIEEKG'
p2668
S'Media  Communications studentExcellent banterVery short EdinburghIgnore all the Facebook likes I was  '
p2669
sS'EMTPAQZRGWOO'
p2670
S"I'm a fucking punmeister Looking for a drinking partner  someone to take me to Rotato for a jacket potato "
p2671
sS'DOMNVXBKXAIY'
p2672
g2
sS'IKULVWEHMHZZ'
p2673
S"I am DTF  Darn Tootin' Fun"
p2674
sS'NBVGNSXGNOVK'
p2675
g2
sS'TXQDRDDXJLYU'
p2676
S''
p2677
sS'ANLQGJPBPVUK'
p2678
S"I'm a fucking punmeister Looking for a drinking partner  someone to take me to Rotato for a jacket potato "
p2679
sS'BZKAZVSMRAZX'
p2680
S"I'm actually really cool "
p2681
sS'IEJQONSAVOYN'
p2682
S''
p2683
sS'ZSCGSOBNSABH'
p2684
S"Amanda Conway  Dundee I have a  year old son who always comes first  Between my son and working full time I'm a very busy gal Just on here for chit chat see what happensAsk me anything "
p2685
sS'FSIBKNVJSHJN'
p2686
g2
sS'FVESKFVEIGZP'
p2687
S'Edinburgh The less you reveal the more people wonder Insta gbrutherford'
p2688
sS'TONYPTBYNRIW'
p2689
S'Medic at Edinburgh Uni '
p2690
sS'NHXZFEONUEFZ'
p2691
S"First year English student at Stirling uni Bisexual  and that is not code for 'up for a threesome' I love acting reading writing and watching Netflix "
p2692
sS'UFQTJYENAXDS'
p2693
S"Am a fun and outgoing person love my girlie's nights out weekends being on holiday  T In The Park   snapchat Lisagreen"
p2694
sS'UQFYMDVEUNYN'
p2695
S'Student at Stirling Uni '
p2696
sS'IIORYBKMQBPX'
p2697
g2
sS'IXXKVOSFBSAP'
p2698
S'From italy Love photography Traveler '
p2699
sS'OWSDWYIVGHHG'
p2700
S'Studying in Edinburgh Belgian lived in Dubai Simply love traveling '
p2701
sS'EZFTFBYSPFLP'
p2702
S'ftinsta roachyx'
p2703
sS'NWUBQYEZGUIA'
p2704
S'Edinburgh '
p2705
sS'WEBGIMTYVCWZ'
p2706
g2
sS'PPTBEWZJPCAR'
p2707
S'NewcastleEdinburgh '
p2708
sS'FYSYKODVFJEU'
p2709
g2
sS'JOFQHITCJDEC'
p2710
S'LondonUni of Glasgow med student '
p2711
sS'INRMCULDBKYG'
p2712
S'Edinburgh'
p2713
sS'CNUXDRZEUOFA'
p2714
S'Study in edinburgh Play korfball love to dance'
p2715
sS'CLXCQHVRLNOD'
p2716
S"I'm a fucking punmeister Looking for a drinking partner  someone to take me to Rotato for a jacket potato "
p2717
sS'JXHUMHBOKHAN'
p2718
S" Irish  and Living in Edinburgh accept the the things you can't changebe brave to change the things you canand be wise to know the difference"
p2719
sS'CBSJFEMWRSOM'
p2720
S'Business Student at the University of Edinburgh'
p2721
sS'RBQEOVMKLBXN'
p2722
S''
p2723
sS'GMTOGZRPQASL'
p2724
S'Edinburgh and AberdeenStudying a useless degree and I love it Apparently I look like the crescent moon emojiWe should hang out '
p2725
sS'WMARVVMLJWVP'
p2726
S'mum to a beautiful  year oldLove a Night out with the gals '
p2727
sS'KJAJIEUFMJHI'
p2728
g2
sS'QUDMBOISIBJT'
p2729
g2
sS'MMYALYSNBDDY'
p2730
g2
sS'PQASHGIJYVIG'
p2731
S'Edinburgh'
p2732
sS'YRLAQZGSRTXS'
p2733
S"Acting student edinburgh if you don't like messy eaters then i'm not your gal "
p2734
sS'SRQTZWNPSZXF'
p2735
S'Twitter nikitaw Snapchat nikxoInstagram nikitawiseman'
p2736
sS'GVOKNSKEOTTE'
p2737
S"I'm a fucking punmeister Looking for a drinking partner  someone to take me to Rotato for a jacket potato "
p2738
sS'EKXNXBMZYFWW'
p2739
S'I work with dance Art cats feminism travels nature and all that stuff Home parties are usually better a night out BAM'
p2740
sS'YTCBWFBKKNPS'
p2741
S'Sport Science StudentEdinburgh'
p2742
sS'CWVVGIKEWJJX'
p2743
S' nd y UoE Will go on a date with a guy who knows how to work in CAD'
p2744
sS'PGPWHCDMXRFO'
p2745
g2
sS'KQABYPAYBLUA'
p2746
g2
sS'ABZQQJHBNYLO'
p2747
S'A ridiculously sarcastic midget that loves beards '
p2748
sS'SVUMDSUGIPBA'
p2749
S'History student at Edinburgh University  '
p2750
sS'UFSXXTNXFXCX'
p2751
S"Dont expect me to jump into your bed cause you've swiped right im a lady not a whore "
p2752
sS'FDSMFSGLIDOD'
p2753
S'University of Edinburgh Primary EdIgabbieduncan'
p2754
sS'JNQGDMGITAKW'
p2755
S' Fife If we match send me a message Instagram kirstenhamilton'
p2756
sS'EUYEXJQWJPNU'
p2757
S''
p2758
sS'TFNYWFKXROMV'
p2759
S'Adult Nursing at Napier Yorkshire Gal'
p2760
sS'XENUNPFLHENA'
p2761
S"what do you mean wine isn't one of my five a day I also read a lot and drink an unhealthy amount of tea "
p2762
sS'KTAXTBLHHDYG'
p2763
S' Irish  Nurse  '
p2764
sS'PCNBPBXNKANU'
p2765
g2
sS'TZLOYNCMUDYX'
p2766
g2
sS'KOMVVVSJOFVZ'
p2767
S'Instagram lucygrace'
p2768
sS'DHEHWEIIGING'
p2769
g2
sS'WBCKPFQXQRGZ'
p2770
S''
p2771
sS'DHYDQITDPLEQ'
p2772
S"Trying out being an adult at the moment I've not killed anyone yet so I think it's going well I'm a nerd at heart spending my time watching movies and playing video games so trying to put off responsibility as long as I can I wish I could craft one of those epic 'about you' sections but I guess mediocrity will have to do "
p2773
sS'UGUGGVVUPHTV'
p2774
S'Plan on travelling the world and loving lifeThe position of handsome companion is open '
p2775
sS'ARFWETVLDADX'
p2776
g2
sS'OOBFKXLZFJYS'
p2777
S'Snapchat stephrobertsoon '
p2778
sS'OQFSMREVLHQM'
p2779
g2
sS'YENLTPSDIHXP'
p2780
S"I'm a fucking punmeister Looking for a drinking partner  someone to take me to Rotato for a jacket potato "
p2781
sS'IQGHUFBNUAFE'
p2782
g2
sS'FQERSQOQHCLV'
p2783
S'politics with stats student '
p2784
sS'QQSFZZINZXEY'
p2785
g2
sS'HZIHJXIGGZEJ'
p2786
S"I don't have an inside laugh I always wish there was more gin and cats That's pretty much it "
p2787
sS'NAITJVMLEIQY'
p2788
S"I'm Grace  and I love sports Mostly going to the gym which I'm a tad obsessed with specifically powerlifting I love TV shows such as pretty little liars and the last ship My music taste varies but I like most musicChat to me if you want to "
p2789
sS'CMQQHAXHIHTA'
p2790
S"I'm a fucking punmeister Looking for a drinking partner  someone to take me to Rotato for a jacket potato "
p2791
sS'IYWONRKLHPKT'
p2792
S' not Snapchatt amylownieee '
p2793
sS'FVHZOTKYUKQE'
p2794
S''
p2795
sS'YIHMKUGHCBUJ'
p2796
S"Hi I'm Vicky  from Livingston Single but here to meet new friends  I am quite shy but when I get to know you more I come out of my shellIf you want to talk I'll try my best I love animals and I love anime manga  anything to do with Japanese culture I also like games Pokemon too   a good laugh My dream is to travel a lot see the sights  I am also quite a thrill seeker  always up to try something new Also love horror movies  theme parks very family orientated"
p2797
sS'CMZAYCEHOTTZ'
p2798
g2
sS'OVCKGTQVQTXC'
p2799
S"I'm a fucking punmeister Looking for a drinking partner  someone to take me to Rotato for a jacket potato "
p2800
sS'BJDYVAMBWIEJ'
p2801
g2
sS'NROCRFDUEEYF'
p2802
S'I  am  Work full time In my spare time I like spending time with friends watching films going to the pub and volunteering with Girl Guiding I enjoy comedy watching rugby a wide variety of music going out for dinner and having a long lie in bed'
p2803
sS'JOLPEOXDFOEV'
p2804
S"Drama and Performance student at QMU I dream of having a pug one day Its the main goal in my life really The way to my heart is food literally any food and i'll be happy Twitter  Instagram sarahlbrownx"
p2805
sS'UVSFLPJDQPPM'
p2806
S'Interested in art tennis skiing and swimmingPug love is a necessityAnd a good sense of humour'
p2807
sS'UOQJAAZJFRYQ'
p2808
g2
sS'DGHBDLDKKQKT'
p2809
S'Beautician and massager in training   not  '
p2810
sS'KVZNHPECFWPS'
p2811
g2
sS'BHBVSURTXECN'
p2812
S'th year zoology student who loves giraffes and to travelLoves dancing cocktails family nights out and nights inI love a guy who can make me laugh If you want to know more message me '
p2813
sS'JPTPJSGEXFKK'
p2814
S'Add me on snap chat lindsayjohnsto  '
p2815
sS'OAHKZVXYBWYY'
p2816
S"I'm a fucking punmeister Looking for a drinking partner  someone to take me to Rotato for a jacket potato "
p2817
sS'POHUQELXAZJM'
p2818
g2
sS'ZAFUFQSXRNYH'
p2819
S'im abit shy at first  message me whenever '
p2820
sS'HKRIKXAMXGRT'
p2821
S"I am currently wasting my life away on video games pretentious cinematography hipster bullshit music and just generally being a nerd Whoever said I wasn't a cultured and sophisticated lady was obviously incorrect "
p2822
sS'QOZKQPSLAWIA'
p2823
S'Art student in Edinburgh'
p2824
sS'PKFOSXERZXCI'
p2825
g2
sS'JBJTJERCCNHV'
p2826
S'Studying Primary Teaching at Edinburgh uni '
p2827
sS'NHOCPRQKOANR'
p2828
g2
sS'ARQUFVMOLLSN'
p2829
S'Northern Irish gal living in Stirling '
p2830
sS'IJYNEMTTHTJZ'
p2831
S'Borders girl currently in Edinburgh studying Health  Fitness Hoping to travel within the next year '
p2832
sS'ROAVOZWYBUQU'
p2833
g2
sS'RDVAJMQKICSK'
p2834
g2
sS'JPSIPDWJSSDB'
p2835
S"I'm a fucking punmeister Looking for a drinking partner  someone to take me to Rotato for a jacket potato "
p2836
sS'VTKNTEIIWKTZ'
p2837
S"I'm a fucking punmeister Looking for a drinking partner  someone to take me to Rotato for a jacket potato "
p2838
sS'QFBRRSHUNARF'
p2839
S'Edinburgh Rugby enthusiast with a serious case of wanderlust Gap year X   Insta elliedonaldson '
p2840
sS'ZIXZDIZSLCDN'
p2841
S"Charlie it's not short for anythingEdinburghSculpture "
p2842
sS'SWARAVAOBUDY'
p2843
S"Swiss girl studying in Glasgowjust a heads up i'm really almost kinda decent at JudoLooking for someone to travel and do sportsy stuff with"
p2844
sS'UAZRSLZQAEEO'
p2845
S"I'm fat if you can get over it we'll  have a great time  Tattoos wine gigs comedy Netflix gymHate smoking Work far too much but will hopefully fit someone in "
p2846
sS'CLOIHWRHGDQE'
p2847
S"EdinburghNursery Practitioner I'm an easy going girl who enjoys meeting new people I enjoying spending time with friends and prefer to be busy when I'm not busy at work I'm either at the gym with mates or enjoying a good movie Looking for a date "
p2848
sS'JEMTCCVPACHI'
p2849
S'Edinburgh uniBusiness studentPart time receptionist Love sports and trying new things '
p2850
sS'DEYOFGVCNVAM'
p2851
S"Scotland fife also not  I'm  Anger jealousy bitterness tiredness hope lust love It is everywhere It is conceptual You just cannot see it"
p2852
sS'TWHICPPEETEC'
p2853
S"I'm a fucking punmeister Looking for a drinking partner  someone to take me to Rotato for a jacket potato "
p2854
sS'THQOEACVBJVE'
p2855
S"I'm a joker a smoker and a midnight toker blah blah blah"
p2856
sS'QAQJJBUWKTVZ'
p2857
g2
sS'XZAIWKKXPCES'
p2858
g2
sS'LAGPDQBDBGYT'
p2859
S"Down to earth designer looking for a like minded person Funny banter and intolerant of rude people From Newcastle but in Edinburgh most of my time studying at uni  Enjoy lifting heavy items and looking after myself So tell me what's your talent "
p2860
sS'GTYVCZLMLXIO'
p2861
g2
sS'SKYFLGIVWPCA'
p2862
S"A design student that's food  Michael Scott obsessed  Edinburgh mostly"
p2863
sS'HUNCLKQXMVKK'
p2864
S''
p2865
sS'PKXZAXMPQJXV'
p2866
S'To your good elf  '
p2867
sS'VJJSOCOPNGJZ'
p2868
S'Spent my summer living in Spain'
p2869
sS'JVSOYQDGVKXF'
p2870
S'Business student at Edinburgh UniversityFrom Manchester'
p2871
sS'MJMUOQNECESF'
p2872
S'nd year design student living in Edinburgh from Glasgow  love an adventure friends and gin'
p2873
sS'MBHMBAQIHCMD'
p2874
S"I'm a fucking punmeister Looking for a drinking partner  someone to take me to Rotato for a jacket potato "
p2875
sS'NMWVWKRMMQYW'
p2876
S'Economics student at University of Edinburgh'
p2877
sS'MQCTPPOJHPYC'
p2878
S' History Graduate Reading Netflix Travelling Game of Thrones Coffee Wine Laughter French Bulldogs Lil Sebastian Leslie Knope Baking Astronomy '
p2879
sS'MPNJMYHEHPAV'
p2880
S'Edinburgh girl '
p2881
sS'HDPUZFXBBPEY'
p2882
S'Looking for my Chuck Bass '
p2883
sS'ZGRMUINUULIH'
p2884
S"'Death is just life's next adventure'Food naps alcohol and rugby keep me happy snapchat  lauradickson"
p2885
sS'MSBEQCSNJDOC'
p2886
S"I'm a fucking punmeister Looking for a drinking partner  someone to take me to Rotato for a jacket potato "
p2887
sS'HWKPUKHHJBFR'
p2888
S'Apprentice Electrician'
p2889
sS'HUBXRURXDMYB'
p2890
g2
sS'GSQQRGNASRUY'
p2891
S'Just Gin and bear it  DStudentEvents management  Not afraid to say hi first Genuinely nice '
p2892
sS'GGJLRDCLQOAH'
p2893
S'Events management student music lover and Disney enthusiast Living in the moment '
p2894
sS'MBXQHEAPPOMD'
p2895
S"I'm a fucking punmeister Looking for a drinking partner  someone to take me to Rotato for a jacket potato "
p2896
sS'AWEIQBJWNFSZ'
p2897
S'BA Digital Media student at Stirling University Favourite band  The View'
p2898
sS'IYNUUANAEIEE'
p2899
S''
p2900
sS'XFBZCFEDUXBU'
p2901
g2
sS'ZRKWZULMBGGQ'
p2902
g2
sS'JQSBRIVOBFOP'
p2903
S"I don't have a witty bio hmu if you wanna talk  I might look scary but I promise I'm not Art and design student sharper than any other edge known to man"
p2904
sS'JJNGGHJPJIGA'
p2905
g2
sS'LYNCQKPCMGFY'
p2906
S"Charlie it's not short for anythingEdinburghSculpture "
p2907
sS'SFOCBZMSZWMH'
p2908
S"if you have a sense of humour tattoos love coffee and music you're already halfway there  singerproducer  From Hong Kong "
p2909
sS'GFPZLGNUUDSN'
p2910
S''
p2911
sS'UJCVLKQJTWXO'
p2912
S'AimeeMaryhill Nursery teacher '
p2913
sS'QEIIMIHYULLD'
p2914
S'GlasgowEdinburgh '
p2915
sS'OLBOJORANIKZ'
p2916
S"I'm a fucking punmeister Looking for a drinking partner  someone to take me to Rotato for a jacket potato "
p2917
sS'ELIQVVJYWAOK'
p2918
g2
sS'LIRQVFROJBKD'
p2919
g2
sS'BOLEPHZPSOZO'
p2920
S''
p2921
sS'ECBLMDHJINQO'
p2922
g2
sS'AXBQHWVULSWE'
p2923
g2
sS'ZJINCLDGDNLC'
p2924
S'Study in edinburgh Play korfball love to dance'
p2925
sS'AKLEIHUVAQXM'
p2926
S"UOD student AberdeenDundee I'm quite good at rapping "
p2927
sS'GXHSOFFOSJRN'
p2928
S'Edinburgh Snapchat  nevadaxFacebook  Nevada Fitzner '
p2929
sS'KCREIBDNVEPU'
p2930
S'I like a good pair of balls'
p2931
sS'VUVJWVWKJEMR'
p2932
S'all round good cuntsnapchat  ruthmk    '
p2933
sS'QORPSGSTLBZF'
p2934
S"I'm a fucking punmeister Looking for a drinking partner  someone to take me to Rotato for a jacket potato "
p2935
sS'XPSWHFUOZJSH'
p2936
g2
sS'KCNGENRGZKLT'
p2937
S'Katiebooobaaaby  '
p2938
sS'YAJYTWGCXNBS'
p2939
S' Edinburgh '
p2940
sS'ZLQBQLWSEFRI'
p2941
S' loves Netflix any kind if music art books and moviesFrom the isle of Lewis originally but moved to Edinburgh to study Criminology at Napier universityTraditional Gaelic singer'
p2942
sS'DUQFLJAWHGUR'
p2943
S'Instagram  mdrummond '
p2944
sS'XELWGGKJHKFL'
p2945
S'Beauty therapist Snapchat  joannapullar Instagram  joannajoyy'
p2946
sS'JEDFTCGJPXAR'
p2947
S' '
p2948
sS'MUAWONUUPCNX'
p2949
S'EdinburghMy hobbies include Netflix  Chill minesweeping drinks in George Street nightclubs and taking romantic walks with you to the cash machine'
p2950
sS'ECUBFZEIETGU'
p2951
S"I'm a th year student in edinburgh  I love travelling and sports As Lorelei would say I stop drinking coffee I stop doing the standing and walking and the wordsputtingintosentence doingI will always cheer for Germany or Bayern Munich in football so don't try to convince me otherwise and yes football not soccerNo I am not on tinder for one nightstands so you might as well swipe left"
p2952
sS'HDKRBLSVNLSW'
p2953
g2
sS'JMCHHQLPEMLE'
p2954
S''
p2955
sS'TRJBYKDCPCXQ'
p2956
S'snapchat Rachelgab'
p2957
sS'XIYUOKDNORBL'
p2958
S"Am a fun and outgoing person love my girlie's nights out weekends being on holiday  T In The Park   snapchat Lisagreen"
p2959
sS'MSHLIUKLUGRB'
p2960
S'Psychology PhD student From Edinburgh living in London Music lover'
p2961
sS'BXARWGFSYJLE'
p2962
S'Melissa    single  snapchat Melclark number ask for '
p2963
sS'LQCNROVOOXSO'
p2964
S'Edinburgh Uni PE teaching Dive coach too '
p2965
sS'VXVZBAFVRZDN'
p2966
g2
sS'JBKMILWDPKNK'
p2967
S"snapchat amyproud Instagram amyyproud I'm actually  just Facebook doesn't let me change itMost likely won't talk first "
p2968
sS'TLTLQSQOOJIY'
p2969
g2
sS'EBKVFKCWUWOT'
p2970
S" Kirsty  Scotland Giving up doesn't always mean you are weak sometimes it means that you are strong enough to let go "
p2971
sS'QWHKWLVMEWFS'
p2972
S"Edinburgh Eng Lit student and waitress I read lots of books and try not to throw wine all over people with mixed success ' "
p2973
sS'ZWLTMAYMAJVW'
p2974
S"Speak three languages  and love to travel I'm very tall almost ' Very sociable  I'm quite blunt and say what's on my mind which people either love or hate Eat smoke and drink too much  attractive I know but at least I admit it and we can't all be perfect Oh and yes I'm English and have a southern accent  GET OVER IT"
p2975
sS'UFXKQTJTVSSN'
p2976
S'Facebook  Brogan churchSnapchat Broganc'
p2977
sS'ODWLYZFLTTIT'
p2978
g2
sS'VKMLUIKFLUGS'
p2979
S'Tall blonde and vegetarian '
p2980
sS'SHFOVGMVXNDK'
p2981
S'          s     Just moved to Newcastle to start my internship  Love skiing filmsbeing outdoors and I never say noto a party x'
p2982
sS'TCUJXSEXMOVE'
p2983
g2
sS'FRRJDTGPDTXZ'
p2984
S"I'm a fucking punmeister Looking for a drinking partner  someone to take me to Rotato for a jacket potato "
p2985
sS'GIKZRFZEUBMJ'
p2986
S'Liverpool  EdinburghStudent NurseTea addictParty girl'
p2987
sS'GAXPBMTPWHFK'
p2988
S"Just looking for bDrinking party's and travellingSnapchat Helenoneillxo Instagram helenoneill"
p2989
sS'YNVHJYAEHORF'
p2990
S'Instagram mhari'
p2991
sS'BPOLBTZICUTY'
p2992
S'Snapchat  jimmyjamjew '
p2993
sS'DZWNXHPZDZLU'
p2994
g2
sS'ICAMSBGKRGDY'
p2995
S'LondonDorset '
p2996
sS'MHVQSUGZEIPM'
p2997
g2
sS'HCHKLEFYQKKL'
p2998
g2
sS'ZEGAWZYLPJJK'
p2999
g2
sS'NSTPFIRBORUY'
p3000
S"Don't know what to write so here goes I'm a shipbuilding fabrication apprentice in Glasgow I like going to the cinema total film buff Also I like going out for meals which is a good way to get to know each other Also I play a few instruments such as the tin whistle key board Thinking about learning the chanterbagpipes again "
p3001
sS'TQNUQRKVKEQJ'
p3002
S'Acting student living in Edinburgh Massive nerd and cat lover who owns dogsI get confused when people put their heights here'
p3003
sS'KMEHXHQBEZGT'
p3004
S"All you fellas listing your height tattoo status and beard status so I thought I'd do the same to ensure we're on the same page Yah I have tattoos No I can't grow a beard Brewdog anyone"
p3005
sS'LNVRGHBJJKTO'
p3006
g2
sS'BFMWQTUHTSJT'
p3007
S'born on August rd which makes me  LEO Vocally trained Music is my everything InkedInk obsessed Gamer girl Spontaneous Loves walks food excersise lazy days Dog called Charlie Snake called Binx Works as a carer Lives in Dunfermline English girl Looming for datingrelationship Creeps weirdos full of themselves guys need not apply If we match send a message other then just hey  '
p3008
sS'OZOYZEJJFGPL'
p3009
S'I study psychology at the University of Edinburgh and I like skiing and hiking Also enjoy reading pretty much anything scifi and too many tv series'
p3010
sS'SQPORTAXSSZW'
p3011
S"I'm a fucking punmeister Looking for a drinking partner  someone to take me to Rotato for a jacket potato "
p3012
sS'RXWBHUALCEGS'
p3013
S'Plan on travelling the world and loving lifeThe position of handsome companion is open '
p3014
sS'OKKQQKNYFFTT'
p3015
S"Travel obsessed pierced and inked After working in Romania Madagascar and Nepal I'm spending some time at home in Edinburgh to focus on my dance career and work out what the hell I'm doing with my life If you've heard of The LaFontaines we can probably be friends"
p3016
sS'PAEWRZYSHLUX'
p3017
S"HannahWant to know anything just ask I don't bitethat hardLoves Disney bye x"
p3018
sS'WTDNUMZDQLCW'
p3019
S'Av had  vodka cokes and am mwi'
p3020
sS'IUYHHVOQITBD'
p3021
S"I'm a fucking punmeister Looking for a drinking partner  someone to take me to Rotato for a jacket potato "
p3022
sS'EMYVWYRZUVMT'
p3023
S'th year Zoologist at Edinburgh Uni A man who dares to waste one hour of time has not discovered the value of life'
p3024
sS'ZGOPLQIKXLKY'
p3025
S' '
p3026
sS'JFXBJPINQKZS'
p3027
S"I'm a fucking punmeister Looking for a drinking partner  someone to take me to Rotato for a jacket potato "
p3028
sS'GFGVEXVPDOUJ'
p3029
S''
p3030
sS'JNPLOJESZYEN'
p3031
g2
sS'EDMCAMLJIRAG'
p3032
S' Accountancy graduate Live in Dunfermline work in Edinburgh as trainee tax accountant Disney Marvel and FIFA '
p3033
sS'DWUHRIIUZFKJ'
p3034
S'First year psychologysociology studentOriginally from Leeds England Always up for a laugh playing on Xbox or binge watching Netflix Also enjoys attempting to play the drums Feel free to say hello and message first '
p3035
sS'AXPMJBKEAGJS'
p3036
S"If you don't like sarcasm don't bother "
p3037
sS'DWUIPGNOQWIA'
p3038
S''
p3039
sS'SNJFOROUPQLI'
p3040
g2
sS'CSPTOMFYHWYQ'
p3041
S"Originally from Wales I'm a keen traveller coffee shop frequenter and rugby enthusiast I regularly attempt to cook and am trying to learn French"
p3042
sS'VNWRTYPJKGOG'
p3043
S'Teacher in Aberdeen '
p3044
sS'XZXMRLMJSRAT'
p3045
S'I need a writer friend apply within'
p3046
sS'TCLOAJFUGLPI'
p3047
S'Snapchat xmorganxInstagram xmorganxDunfermlineEdinburgh Scotland Nursing student at Edinburgh Napier university '
p3048
sS'MVVCETTRQVNQ'
p3049
S' fife '
p3050
sS'IFGRNSQBGEVI'
p3051
g2
sS'EFVJLIMLERVE'
p3052
S'If you know your  times table get in touch'
p3053
sS'KOZCTBLAYXOT'
p3054
S'French student  Internship in Edinburgh for  months'
p3055
sS'EFKRFWQLRAWL'
p3056
g2
sS'TZDJMMNAPVVA'
p3057
S'Farming girl    Snapchat  laurenlmoore '
p3058
sS'HGSWYOCRPJZS'
p3059
g2
sS'SHPZPXQSMQSC'
p3060
g2
sS'FKJYMPMCPJVO'
p3061
S"Scotland fife also not  I'm  Anger jealousy bitterness tiredness hope lust love It is everywhere It is conceptual You just cannot see it"
p3062
sS'VDDNVSKKPWQG'
p3063
S"I'm a fucking punmeister Looking for a drinking partner  someone to take me to Rotato for a jacket potato "
p3064
sS'PCDJVHRMMYFM'
p3065
S'EdinburghStranraer'
p3066
sS'KOFGKXRWHPXI'
p3067
S"I'm a fucking punmeister Looking for a drinking partner  someone to take me to Rotato for a jacket potato "
p3068
sS'RCUFLQYEDQZM'
p3069
g2
sS'UDKSQZASSRZV'
p3070
S'Instagram kirstinsands'
p3071
sS'QTYBVLRCKVUX'
p3072
S'Kenyan in Edinburgh Looking for some good chat '
p3073
sS'YXQDTBEMMSQP'
p3074
S'If your looking for a fuck about then just swipe left  '
p3075
sS'BQAZJMCBRLAR'
p3076
g2
sS'CXMANQXSVZCE'
p3077
g2
sS'GRUXTEJOVOZO'
p3078
g2
sS'GBZOPEZNMUDX'
p3079
S'Kenyan in Edinburgh Looking for some good chat '
p3080
sS'QSZEWPHLFUNI'
p3081
S"The goat on the rightWill always ask the DJ to play Kate Bush KNOPE As in 'nope keep swiping' but also Leslie KnopeBonus fact bigger than a monkey but smaller than most people"
p3082
sS'VEYPFXWOBQJZ'
p3083
S' '
p3084
sS'WHHXUWKRVMXI'
p3085
g2
sS'HHXGLUJLDKQF'
p3086
S'Occasionally a Honours student Sometimes interviewing angry bands Perpetually late  usually sleeping Loudmouth intersectional feminist whatever forever'
p3087
sS'DWKBQATCQHAP'
p3088
g2
sS'PVSVPNCNKQTF'
p3089
g2
sS'VKBYDJQMUPBZ'
p3090
g2
sS'TWSWKTRMNWUA'
p3091
S'Make me laugh '
p3092
sS'BHSREMBASUEZ'
p3093
S''
p3094
sS'ZFGOSAGAAFZZ'
p3095
g2
sS'FIRLSVFKHVHV'
p3096
S"Hey I'm Kirsty Im a full time chefpart time sudoku expert Potentially the biggest wrestling fangirl out "
p3097
sS'XGYCLKSGAOQG'
p3098
S'EdinburghStudying Nutrition and Food Science at QMUPlay rugby for Lismore WRFC '
p3099
sS'JVHPRHIIESXF'
p3100
g2
sS'RBBBEXNUDRQL'
p3101
S'Banter '
p3102
sS'XICHXDHBHXTQ'
p3103
g2
sS'LAFAKWPUUWDS'
p3104
S"Student vet nurse and work on the farm when I'm not at uni"
p3105
sS'PMNKPXZLLZBB'
p3106
S"IR student from Scotland with an excellent taste in cartoons I do the theatre thing sometimes and it's great but also I'm too lazy for it St Andrews"
p3107
sS'AGQAHZGQJIGZ'
p3108
g2
sS'JWCHWGJCYRVR'
p3109
g2
sS'USBTRQHWUWGJ'
p3110
S'Live on a farm in the middle of nowhere Fitness and game of thrones enthusiast with a mild peanut butter addiction Enjoy skiing baking weights training and attending young farmers shindigs If you dont appreciate a good game of monopoly we cant be friends  instagram emilynimmo facebook Emily Nimmo '
p3111
sS'PTOLZZCXABFQ'
p3112
g2
sS'VHCCAKACZVVZ'
p3113
S"Snuffles was my slave name you can call me snowball SingerShitty Songwriter Cat enthusiast MovieTV show lover Video game nerd AvA BMTH Don Bronco  FightstarCharlie Simpson is my spirit animal I probably won't message you first just sayin'"
p3114
sS'YKEMXGJBNTGN'
p3115
g2
sS'CSUKAGLADXDH'
p3116
S'Hit me up for fun and games xx'
p3117
sS'UEXBCYCDEHVT'
p3118
g2
sS'YGRHMHJXHAMZ'
p3119
S'student at HWU music and theatre lover singer and musician film fanatic globetrotter tattoo enthusiast can be quite a smartarse should you ever need oneThere is no i in TEAM but there is an i in PIE'
p3120
sS'WUGODMTNHLAN'
p3121
S'Studying chemical physics at Edinburgh uni Bilingual and love to travel for real though'
p3122
sS'GSLKZOHCIOCN'
p3123
g2
sS'XCQODUVAOYXB'
p3124
S"I'm a fucking punmeister Looking for a drinking partner  someone to take me to Rotato for a jacket potato "
p3125
sS'LUVFSKRPPRDJ'
p3126
S'Farmer and scientist Love all animals but sheep are my life '
p3127
sS'RBGYAOAUHOCW'
p3128
S'whoreforfoodI want noods not nudes'
p3129
sS'GIBVIRLDPJFY'
p3130
g2
sS'HZRGKWNIYYPZ'
p3131
g2
sS'LQXHAZIOHQOC'
p3132
S'Bsc Hon in physics Back in Edinburgh after a year teaching in ShanghaiI missed Percy Pigs a lot Peanut butter NCIS and Jumpers'
p3133
sS'LFQIZTPHUMAQ'
p3134
S"I'm a fucking punmeister Looking for a drinking partner  someone to take me to Rotato for a jacket potato "
p3135
sS'KBMOPLXIUIMW'
p3136
g2
sS'COIFVSWPKMBT'
p3137
g2
sS'IRYNKIPPPYRI'
p3138
S'Studying in Edinburgh Belgian lived in Dubai Simply love traveling '
p3139
sS'TJPEEQRCMHVH'
p3140
g2
sS'LZYYVKAXOXPI'
p3141
S'IrishStudent nurse '
p3142
sS'SPOYDYNYKSYA'
p3143
S'First year maths student Idk how to write an appealing bio so I guess u just gotta judge me by my face'
p3144
sS'QDNRXMTXFUCA'
p3145
S"Hi  I'm nd year at Edinburgh uni studying German and History would love to meet someone I could speak German with I love to dance Lindy hop Balboa and Blues  I am intelligent feminist and love to talk music and history as well as general randomness Think Asdf and Monty Python"
p3146
sS'YLUXJCCFLXNB'
p3147
S"I'm a fucking punmeister Looking for a drinking partner  someone to take me to Rotato for a jacket potato "
p3148
sS'QAAIAXFMHJPW'
p3149
S'Studying architecture at Edinburgh university Love to travel Big fan of silliness Terribly English Should never be allowed to drink at lunch'
p3150
sS'MDNIHHZDEWHU'
p3151
g2
sS'FCJVADIJUMQW'
p3152
S"Gtf I'm aff it Ur maws got a demin trackieDid yae aye "
p3153
sS'ZJBNGAXPTWMP'
p3154
S'Studying at Edinburgh for the semester'
p3155
sS'YXEFCZCEGGPL'
p3156
S''
p3157
sS'HLOFKCMWKASU'
p3158
S''
p3159
sS'CJIMXNDDIIBJ'
p3160
S'Edin Uni rd Year'
p3161
sS'VZOLIDJPKKPH'
p3162
S'I work with dance Art cats feminism travels nature and all that stuff Home parties are usually better a night out BAM'
p3163
sS'HTPPSRMMOWNV'
p3164
g2
sS'QCIFUVPUDSFD'
p3165
S'snapchat  prettylittleem Instagram  emmajohnston dancer masseuse '
p3166
sS'KFEHVIQDQPJZ'
p3167
g2
sS'EHWWTEIDAHBH'
p3168
S'media student at qmu  full time alcohol enthusiast '
p3169
sS'DCZKRTXLETTL'
p3170
S"I'm a fucking punmeister Looking for a drinking partner  someone to take me to Rotato for a jacket potato "
p3171
sS'WKTYFGYGHNOI'
p3172
S"Just an American girl livin' in an Edi world Yeah I usually make bad jokes "
p3173
sS'VUTLGWNUSZGM'
p3174
S"I'm a fucking punmeister Looking for a drinking partner  someone to take me to Rotato for a jacket potato "
p3175
sS'EWMHLNHUHUHB'
p3176
S"studying abroadfrom LA Environmental Engineering ' talk nerdy to me "
p3177
sS'WBNOAOVUGBNI'
p3178
g2
sS'BCNGKJOYFFHZ'
p3179
S"HannahWant to know anything just ask I don't bitethat hardLoves Disney bye x"
p3180
sS'UOHHGWPMNRMU'
p3181
S'insta  nateilatan'
p3182
sS'UPJMOGSGOVWI'
p3183
S'Welsh girl usually based in Edinburgh work in marketing gym promotions constantly travelling Work between US and UK'
p3184
sS'MPSRCZTPFONY'
p3185
g2
sS'IQLINPRCEYGH'
p3186
S"Studying primary teaching at Glasgow University  I know so many ginger facts it's actually quite sad "
p3187
sS'DGSASWZGRCPL'
p3188
S'nd year design student living in Edinburgh from Glasgow  love an adventure friends and gin'
p3189
sS'RXNRKMOXYBEQ'
p3190
g2
sS'FYNUUYCCJEHT'
p3191
S'Chloe  Coatbridge Celtic lass Work as a home carer and a bartender at Celtic ParkSnapchat missschloex If we match actually pop up '
p3192
sS'GIXJBHDLJPLR'
p3193
S'An English girl living in Scotland and studying PhilosophyPolitics at Edinburgh nd yearYorkshire born'
p3194
sS'RSZSZIEMWJEQ'
p3195
S"I'm a fucking punmeister Looking for a drinking partner  someone to take me to Rotato for a jacket potato "
p3196
sS'RQMQOSRBJDIC'
p3197
S'Sport and exercise student Stirling uni '
p3198
sS'QVUFWHMLKFWN'
p3199
g2
sS'YMXCICNQAJNW'
p3200
S"Hi  I'm nd year at Edinburgh uni studying German and History would love to meet someone I could speak German with I love to dance Lindy hop Balboa and Blues  I am intelligent feminist and love to talk music and history as well as general randomness Think Asdf and Monty Python"
p3201
sS'MJCRLSPXSCRQ'
p3202
S'Snapchat amyholmes '
p3203
sS'PXBKKNFLCUFL'
p3204
S'Books   films  Netflix  walks  museums  galleries  teacake  baking'
p3205
sS'TAXQAXNPECDZ'
p3206
S'Add me on snap chat Emms '
p3207
sS'YDCIJLYRAREI'
p3208
S'Live in Edinburgh Snapchat shannonrileyInstagram shannonriley'
p3209
sS'BJETKWWDUQXU'
p3210
S"If I had a pound for every time someone asked me if my hair was naturally ginger I'd have nothing No one talks to me "
p3211
sS'IBHYIBNEPTSB'
p3212
S"I'm a th year student in edinburgh  I love travelling and sports As Lorelei would say I stop drinking coffee I stop doing the standing and walking and the wordsputtingintosentence doingI will always cheer for Germany or Bayern Munich in football so don't try to convince me otherwise and yes football not soccerNo I am not on tinder for one nightstands so you might as well swipe left"
p3213
sS'LUGKFGJXMASA'
p3214
S"I'm a fucking punmeister Looking for a drinking partner  someone to take me to Rotato for a jacket potato "
p3215
sS'FSVQBCDNCMMJ'
p3216
S''
p3217
sS'YLZDPDUCXGXB'
p3218
S'I like dogs more than people'
p3219
sS'AOFMHHTTBORY'
p3220
S'Snapchat kayleighbradley Falkirk City of glasgow college studying social sciencesJake bugg'
p3221
sS'OKIASONVZGZS'
p3222
g2
sS'BVAMVXGUASNZ'
p3223
g2
sS'ZJUEQTFBSHWT'
p3224
g2
sS'VOQDDIPGHDSS'
p3225
S'Postgrad lover of chocolate and film addict with bad taste in pop music Add interesting quote'
p3226
sS'GOFKRSPVYXLD'
p3227
S'Warning this product may contain horrible dark humor and terrible sarcasm St AndrewsCairo'
p3228
sS'ADZETNFRRIRG'
p3229
S'Book nerd and coffee snob  Fun friendly and full figuredor fat depends if you want to sugar coat it or not either way I am who I am Positively Honest'
p3230
sS'UESJIQQZJJBE'
p3231
S''
p3232
sS'LGFEMWKMAWPP'
p3233
S"Not   next month lolJust on here to speak to people at the moment really unwell just now and anything more really doesn't interest me sorry to be a bore"
p3234
sS'PSNTXRXUKOHQ'
p3235
S''
p3236
sS'OGFKSZNGUBAI'
p3237
S'RGU graduate new to Edinburgh '
p3238
sS'IOZYYHTWXJMC'
p3239
g2
sS'DYNLLLFOQSLE'
p3240
g2
sS'FIIZBEXPAUWW'
p3241
g2
sS'CBOKGSMWLCGZ'
p3242
g2
sS'DGPMENPFUNOF'
p3243
S' Full time carer from Glenrothes '
p3244
sS'QTCXXWMZBOPP'
p3245
S'Stirling uni student nurse no worries '
p3246
sS'SYWSLXDIEDGX'
p3247
S"Just an American girl livin' in an Edi world Yeah I usually make bad jokes "
p3248
sS'OGLIZYUJOYMY'
p3249
S'cba'
p3250
sS'WUVDLEJJGCBH'
p3251
S"I'm a fucking punmeister Looking for a drinking partner  someone to take me to Rotato for a jacket potato "
p3252
sS'STUQIAOSDIYG'
p3253
S'Working full time No kids and I drive so no need for a chauffeur also the braces are gone now '
p3254
sS'SPBBKRFRFOTC'
p3255
S"I'm a fucking punmeister Looking for a drinking partner  someone to take me to Rotato for a jacket potato "
p3256
sS'JQWLSAVZHRRM'
p3257
S"My busyness is to create Doesn't even matter what  "
p3258
sS'EZYKUHRQMICQ'
p3259
S'Studying at Dundee UniFrom Glasgow  netflix I like witty people and large cups of tea and I tend to overuse the moon emoji'
p3260
sS'KWUZLOWYIROM'
p3261
g2
sS'DJQSSFMPOZJB'
p3262
S"I'm a fucking punmeister Looking for a drinking partner  someone to take me to Rotato for a jacket potato "
p3263
sS'LDZIYZLIGYTC'
p3264
S''
p3265
sS'LUNUHBHBIIHL'
p3266
g2
sS'GDVSCYWLIBGH'
p3267
S'snapchat claudiamoran'
p3268
sS'EEQEIKJGFNAI'
p3269
g2
sS'HVYXSEGPSAEW'
p3270
g2
sS'TQPDUKCQWDER'
p3271
S'Snapchat slmull Beauty therapist at the retreat health and beauty'
p3272
sS'JKIYQCYCTXKF'
p3273
g2
sS'TDVCXKQXFYKO'
p3274
g2
sS'SLXXFIVIWOAB'
p3275
S"I'm the type of girl who gets a tattoo and finds out it's a Jonas Brothers song three minutes laterWork at Boots I want to go to places I'd never dream of going to "
p3276
sS'RETPLSKVUOTI'
p3277
S' '
p3278
sS'EUEQBZELUNLF'
p3279
S'student at HWU music and theatre lover singer and musician film fanatic globetrotter tattoo enthusiast can be quite a smartarse should you ever need oneThere is no i in TEAM but there is an i in PIE'
p3280
sS'CTCKUOCEIEQP'
p3281
S'Snapchat chanteelleex '
p3282
sS'XCAGXLFLRNZZ'
p3283
S'snapchat Rachelgab'
p3284
sS'ZTKAUTAILRJV'
p3285
S'LivingstonEdinburghCurrently studying at Edinburgh College then hopefully off to Aberdeen Music television photography art travelling football  rugby sleeping writing  hope to one day live in Oz or the USA Add me on Snapchat if you want  krisberridgexo'
p3286
sS'JZWYPPJKFOAI'
p3287
S'Just meeting new people Nothing more nothing less '
p3288
sS'TJQSXWTBUEWM'
p3289
S"Lover of puns and good literature st year English Language and Literature at Uni of Edinburgh  I live off folkindie rock and dancing wildly to whatever I'm listening to I enjoy embarrassing my friends by dancing in public I also review artsy things and have a strong penchant for Internet shopping"
p3290
sS'AUOVHVABUCTH'
p3291
S'GlasgowEdinburgh '
p3292
sS'HXVJWJYSVXZX'
p3293
S"I'm a fucking punmeister Looking for a drinking partner  someone to take me to Rotato for a jacket potato "
p3294
sS'MCFHIVEROUVH'
p3295
g2
sS'VKTMHMVJSQRA'
p3296
g2
sS'IUTDSQDXKFJN'
p3297
S'Edinburgh Uni PE teaching Dive coach too '
p3298
sS'HCRMHMPNHDUL'
p3299
S'Student  Cheerleader  My favourite things are Ice Hockey and Event Planning Twitter  JenIsabellaxx'
p3300
sS'EXQTUKGOKXEM'
p3301
S''
p3302
sS'YNELIIGQRZGX'
p3303
S'Twitter amymcfInstagram amymcfarlane'
p3304
sS'OQJGDINWHPQW'
p3305
S'all graphic designy and vegany'
p3306
sS'BMIHRGQURPZJ'
p3307
S'Tinderella '
p3308
sS'HCGGJQMETMCL'
p3309
S''
p3310
sS'INPPLBTNLEQL'
p3311
S'AllanaEdinburgh Scotland UKWork travel play Snapchat allanaxxInstagram makeupallana'
p3312
sS'KVONIALDXOFN'
p3313
S"I'm a fucking punmeister Looking for a drinking partner  someone to take me to Rotato for a jacket potato "
p3314
sS'CYKENWPHVEHQ'
p3315
S'Snapchat vickyoxoInstagram vickygibsonx'
p3316
sS'CXFJUVWTTFAW'
p3317
S"I don't have an inside laugh I always wish there was more gin and cats That's pretty much it "
p3318
sS'QHSJGYLZMLHA'
p3319
S''
p3320
sS'QCFZGSKXLSWJ'
p3321
S"I'm a fucking punmeister Looking for a drinking partner  someone to take me to Rotato for a jacket potato "
p3322
sS'HNLHFBHLQRPG'
p3323
S''
p3324
sS'RCTPYKXXNUZW'
p3325
S'Snapchat jemmakane '
p3326
sS'DTNCGXEJQAXF'
p3327
S"I'm a fucking punmeister Looking for a drinking partner  someone to take me to Rotato for a jacket potato "
p3328
sS'IGVRWHIKDQGC'
p3329
S' not  '
p3330
sS'FZAJZXZBBMDM'
p3331
S' interested in human rights law and studying at UoE '
p3332
sS'FBJVBRJSSGHX'
p3333
S"Actually   in  months but Facebooks being a cunt TV shows music musicals and the internet are basically my lifeI'm socially awkward so if you don't start the conversation we probably won't talk"
p3334
sS'BEAUUJWHVNXO'
p3335
S''
p3336
sS'LRIANNPQLWSS'
p3337
g2
sS'NCFKZJYOSBWW'
p3338
S''
p3339
sS'ARLSIWEDNXQB'
p3340
S'Snapchat samhadden '
p3341
sS'GVORHEIZWDQI'
p3342
S"I'm a fucking punmeister Looking for a drinking partner  someone to take me to Rotato for a jacket potato "
p3343
sS'EVFOTWUUUXAG'
p3344
S" things about me  I'm an admin assistant I have  small tattoos  My favourite karaoke song to sing is sex on fire by Kings of Leon What to know more just ask Bye "
p3345
sS'GGZTYKMSZTUA'
p3346
S"Call me on    I study history so I'm great with dates "
p3347
sS'CNBXMVZFGLBN'
p3348
g2
sS'OWAAGZNOBOVR'
p3349
S"Edinburgh Law GraduateJack Daniels enthusiast' on a good hair dayHobbies include trying to get less awful at guitar and watching disney movies in the bathInstagram ines"
p3350
sS'GBTFBMETHIAA'
p3351
S'Student Edinburgh'
p3352
sS'TKUTRQOHDKRK'
p3353
S'Studying business in edinburgh'
p3354
sS'VAQBTDEUEDRP'
p3355
S'A firm believer that hangovers should not be dealt with aloneGeordie girl '
p3356
sS'TOYDNWPIZAFH'
p3357
S'Edinburgh Allergic to cats and bullshit Please give me none '
p3358
sS'DSCWWCXLKXSM'
p3359
g2
sS'TJLHVQLGDYND'
p3360
S'Yvonne tes bonneUSA to UK '
p3361
sS'GFLPZEJBRNML'
p3362
S"I'm a fucking punmeister Looking for a drinking partner  someone to take me to Rotato for a jacket potato "
p3363
sS'WCQGEDJWJDUE'
p3364
S' Illustration student Foodie Guernsey  Singapore Living in Edinburgh  '
p3365
sS'NBARSETXVLZX'
p3366
S"I'm a fucking punmeister Looking for a drinking partner  someone to take me to Rotato for a jacket potato "
p3367
sS'FODAAYZQTHAC'
p3368
S"Not   next month lolJust on here to speak to people at the moment really unwell just now and anything more really doesn't interest me sorry to be a bore"
p3369
sS'FKFVSLDZUIWI'
p3370
S''
p3371
s.