(dp0
S'HXYONSNQBNQI'
p1
S'Looking for friends and more than friends Feeling lonely far from homeIf you love long walks in the park or in the beach The women for you is not only for sex When swipe right and meet up  xx'
p2
sS'GWQKAPTUPQJW'
p3
S''
p4
sS'GEGCMTOFRFWD'
p5
S"I'm a fucking punmeister Looking for a drinking partner  someone to take me to Rotato for a jacket potato "
p6
sS'HEVLTPZZMRPN'
p7
S"I'm a fucking punmeister Looking for a drinking partner  someone to take me to Rotato for a jacket potato "
p8
sS'IJJBTNDWSFBW'
p9
S'Living in Edinburgh and living life to the full'
p10
sS'QZSATJUEPQTE'
p11
S''
p12
sS'JIROQLGAWADC'
p13
S"I identify with Spinelli from Recess on a spiritual level and I'm shamelessly emotionally attached to my bike Also my name is Zo but Tinder apparently can't handle diacritics What a shame "
p14
sS'BPJKLYPTQULC'
p15
S'History of Art Edinburgh '
p16
sS'JEMTCCVPACHI'
p17
S'Edinburgh uniBusiness studentPart time receptionist Love sports and trying new things '
p18
sS'HTBLSDRCMBUH'
p19
S'Currently studenting in edinburgh '
p20
sS'FEFDQBDBCLBO'
p21
S"I'm a fucking punmeister Looking for a drinking partner  someone to take me to Rotato for a jacket potato "
p22
sS'GMSANORAVJGD'
p23
S'Illustration student at Edinburg uni'
p24
sS'OTWOJVQILZYT'
p25
S"I'm a fucking punmeister Looking for a drinking partner  someone to take me to Rotato for a jacket potato "
p26
sS'PGQWROLCIKHH'
p27
S'I like long romantic walks to the bar'
p28
sS'MPEOTOXPBEEV'
p29
S"All you fellas listing your height tattoo status and beard status so I thought I'd do the same to ensure we're on the same page Yah I have tattoos No I can't grow a beard Brewdog anyone"
p30
sS'WMRRCJUVXCTB'
p31
S''
p32
sS'WEUNIPZSFMGJ'
p33
S'ft  and hate rude people '
p34
sS'FVESKFVEIGZP'
p35
S'Edinburgh The less you reveal the more people wonder Insta gbrutherford'
p36
sS'LFCCNMYQNRNQ'
p37
S'Books   films  Netflix  walks  museums  galleries  teacake  baking'
p38
sS'SHFOVGMVXNDK'
p39
S'          s     Just moved to Newcastle to start my internship  Love skiing filmsbeing outdoors and I never say noto a party x'
p40
sS'TSZBSNTUAXQI'
p41
S'Edinburgh Uni  PE'
p42
sS'XZKSFFLHIAFJ'
p43
S'LondonEdinburgh Part time barmaid full time female UoE ArabicFrench'
p44
sS'XIJPDPOGDEVM'
p45
g12
sS'CZVAPKYSPZUV'
p46
g12
sS'OMTWSISMFSRM'
p47
S'Civil Engineering student'
p48
sS'CLDQSOWOPLMV'
p49
S"I'm a fucking punmeister Looking for a drinking partner  someone to take me to Rotato for a jacket potato "
p50
sS'WBJXLMKCAVUY'
p51
S"Love the life you live  from Edinburgh Love tattoos and piercings Anything you want to know just ask Snapchat meganmclayDon't be afraid to message me first "
p52
sS'POVPPCVVEXTA'
p53
g12
sS'QOZVLRWVOBQO'
p54
S"if you have a sense of humour tattoos love coffee and music you're already halfway there  singerproducer  From Hong Kong "
p55
sS'XHNCIAUBLZBF'
p56
S''
p57
sS'ANVRRWVNTMRZ'
p58
S"If I had a pound for every time someone asked me if my hair was naturally ginger I'd have nothing No one talks to me "
p59
sS'QUDGAATJWZNC'
p60
g12
sS'EFCBIUEGLSHJ'
p61
S'Liverpool  EdinburghStudent NurseTea addictParty girl'
p62
sS'VBWPICUMCEZI'
p63
S"I'm a fucking punmeister Looking for a drinking partner  someone to take me to Rotato for a jacket potato "
p64
sS'FHWTHZDOZOFB'
p65
g12
sS'LCDPVVIPSZAA'
p66
S''
p67
sS'VSNARKBCSTAJ'
p68
S'Edinburgh student I like cheese and tequila Sometimes together '
p69
sS'RQVJKCSZFYII'
p70
S''
p71
sS'RWRNWBLTBXNZ'
p72
S'American studying in Edinburgh '
p73
sS'SDNKVFTKYXAC'
p74
g12
sS'FUORFXZOPHJJ'
p75
S''
p76
sS'HHJDDIUONKCK'
p77
S'Leeds  EdinburghBiological sciences studentMeat free I like travelling n being in the sea '
p78
sS'FZMFAHGKMBEZ'
p79
S' nd year actuarial student at HW  '
p80
sS'WFHNYVPXIKXZ'
p81
S'tattoos  piercingscatsTaylor Swift is God'
p82
sS'TRTZAJQTFTKZ'
p83
S'Instagram olivia '
p84
sS'JSCRHIWFRTSV'
p85
g12
sS'ROBXGBQXIHDU'
p86
S'Mech Eng student at Edinburgh'
p87
sS'WJRXKKFWEGVD'
p88
S'Nurse graduate RAF applicant Gym running kayaking Gin gin and more gin '
p89
sS'OSCLVSTURTZY'
p90
S"Edinburgh Can't ski Didn't go to uni Don't have snapchat  "
p91
sS'HWOSBNBZESJD'
p92
S"I love adventures and people who can make me laugh I'm always up for coffeewhisky with new people Looking for friends and drinkingexplorer buddies "
p93
sS'SMHDRLIIDNTV'
p94
S''
p95
sS'EIOFKSFJWBBZ'
p96
S''
p97
sS'CRMGPDNYEGDB'
p98
S''
p99
sS'HGKTMFVFWXZD'
p100
S"I'm a fucking punmeister Looking for a drinking partner  someone to take me to Rotato for a jacket potato "
p101
sS'TRYHBHADYCER'
p102
S''
p103
sS'OTUNEPZCLIVJ'
p104
S'ECA'
p105
sS'CDXFSNWEOPWW'
p106
S"Started fresh on tinder here Maybe this time round it won't be so disappointing rd year psychology student Born  raised in Glasgow Anything else yOu want to know then just ask meGive me your chat "
p107
sS'JBETIJQHGSZD'
p108
S'Date scenario take you out to laser tag proceed to be amazing win Celebratory drinks and bragging ruin all chances of second date Work hard sleep hard '
p109
sS'JDIYUTBHCYOZ'
p110
S''
p111
sS'MKFZAMEQNILC'
p112
S'Instagram  chloejessicaxoSnapchat  chloejessicaxx'
p113
sS'YVMNISYVKNAX'
p114
S''
p115
sS'XBXQHQATYSCM'
p116
S'BarcelonaEdinburghNot a onenight stand girl materialInterests '
p117
sS'SYWSLXDIEDGX'
p118
S"Just an American girl livin' in an Edi world Yeah I usually make bad jokes "
p119
sS'OOZEMQJUFILV'
p120
g12
sS'VYASZEOKEHGL'
p121
S"I'm a fucking punmeister Looking for a drinking partner  someone to take me to Rotato for a jacket potato "
p122
sS'SHNSFKCQVHTN'
p123
S'Philosophy and Theology  University of Edinburgh '
p124
sS'ERUTGGSEIJBA'
p125
S'German Lives in Singapore moving to Edinburgh Hit me up '
p126
sS'CKBQWIJKQFKY'
p127
S"Acting student edinburgh if you don't like messy eaters then i'm not your gal "
p128
sS'QXUSGSXDBHMH'
p129
S''
p130
sS'AZUHPSNUHTAS'
p131
S' University of Edinburgh for the year getting my MSc '
p132
sS'CJZNDJBDRZVE'
p133
S"I'm a fucking punmeister Looking for a drinking partner  someone to take me to Rotato for a jacket potato "
p134
sS'XQWBECWVSTZU'
p135
S"I'm new in Edinburgh and just want to meet new people "
p136
sS'BGAKQPZGYXAA'
p137
g12
sS'NQOWUWJLARTA'
p138
S"I'm a fucking punmeister Looking for a drinking partner  someone to take me to Rotato for a jacket potato "
p139
sS'TFIROJDUQZMK'
p140
S'From EdinburghJust give me a message to find out moreIgnore my interests'
p141
sS'WUTEGVHUNOMK'
p142
S"I'm a fucking punmeister Looking for a drinking partner  someone to take me to Rotato for a jacket potato "
p143
sS'MYVGVLMWQJBN'
p144
S' runner '
p145
sS'BORTXROGGMFL'
p146
S"I'm like a lightbulb I light up the room when you turn me on and if you stand on me you'll end up in hospital"
p147
sS'PTBZTNBHJCZG'
p148
g12
sS'AWMHTYRBWIWC'
p149
S'Ambitious and outgoing law student from Denmark studying at the University of Edinburgh for one semester Love singing dancing movies food and tea'
p150
sS'FUBZRGZGIGXV'
p151
S'LondonEdinburgh Studying Arabic and Persian '
p152
sS'BSNJQVDSOAVZ'
p153
S"Single because I didn't forward that chain email in Musician '"
p154
sS'RWNLHTFZPRSU'
p155
S'Starwars xbox my puppyyup'
p156
sS'WWISVZEIVKWX'
p157
S''
p158
sS'FVIHHTBSZQVH'
p159
g12
sS'RDWRYEMBUIQU'
p160
g12
sS'ANLQGJPBPVUK'
p161
S"I'm a fucking punmeister Looking for a drinking partner  someone to take me to Rotato for a jacket potato "
p162
sS'TBHXILINUXMR'
p163
g12
sS'LDQRXYFVBHWJ'
p164
g12
sS'DOGOPROYHODB'
p165
S'An English girl living in Scotland and studying PhilosophyPolitics at Edinburgh nd yearYorkshire born'
p166
sS'JLTZZHFFJAHF'
p167
S"I am DTF  Darn Tootin' Fun"
p168
sS'XNWKSXLYBWDP'
p169
S"I like to work out music and comedy I'm also a PhD student in architectural history Good cook like beer and hate girly drinks No hookups "
p170
sS'FNYAYHFAEJHK'
p171
S'Instagram  ejfieldxDo you ever drive on the motorway and see someone fit and wish you could give them your number somehow'
p172
sS'YKEMXGJBNTGN'
p173
g12
sS'OJDTADBQXCQY'
p174
S'Edinburgh Uni  Cambridge '
p175
sS'RTYCYCYKYOWX'
p176
g12
sS'AIFYKTIOOMVK'
p177
S"I'm a fucking punmeister Looking for a drinking partner  someone to take me to Rotato for a jacket potato "
p178
sS'HXJGYFIUDNUI'
p179
S''
p180
sS'OCUTIUORAAQV'
p181
S'Ambitious and outgoing law student from Denmark studying at the University of Edinburgh for one semester Love singing dancing movies food and tea'
p182
sS'PNOVBBXJDWHD'
p183
S'Hi  ArchitectLove sports'
p184
sS'PPXGXAFECFWX'
p185
S"I'm a fucking punmeister Looking for a drinking partner  someone to take me to Rotato for a jacket potato "
p186
sS'LCJNKKGBRZQQ'
p187
S"It's unfair that breakfast in bed is romantic but dinner in bed is a cry for help"
p188
sS'JMXZQTTJISXM'
p189
S'History of Art Edinburgh '
p190
sS'KYZGUYKWGRQC'
p191
g12
sS'LDMHVBGBGDVC'
p192
g12
sS'IREJVSGBSUYL'
p193
S'Radiography student Edinburgh '
p194
sS'GUZMDBWAMEXA'
p195
S"I'm a fucking punmeister Looking for a drinking partner  someone to take me to Rotato for a jacket potato "
p196
sS'PDZNFKEAZTYA'
p197
S'EdinburghTattoosSnapchat hollihunterx'
p198
sS'FWNEFFEIZQMX'
p199
g12
sS'JEICRXHVRFKH'
p200
g12
sS'EZMLOWXSJGWP'
p201
S'London  Edinburgh'
p202
sS'FEPTNBTJADSP'
p203
S"First year Nursing student at Edinburgh Uni I can't make you better if you get ill but I will do a stellar job of washing my hands"
p204
sS'UWSUOTQBQMBZ'
p205
S''
p206
sS'KOMVVVSJOFVZ'
p207
S'Instagram lucygrace'
p208
sS'XXTHASADDLTT'
p209
S'Snapchat  caznelly'
p210
sS'PJAAMENGIXQK'
p211
S"Bulgarian working in Manchester  'Life isn't about waiting for the storm to pass it is about learning how to dance in the rain'"
p212
sS'UITSEREHKFXD'
p213
g12
sS'EYALFIEZFENE'
p214
S'EdinburghStranraer'
p215
sS'QBFHSHSTTAHJ'
p216
S'Edin Uni rd Year'
p217
sS'ISJSAPOXWJGB'
p218
S"I'm a fucking punmeister Looking for a drinking partner  someone to take me to Rotato for a jacket potato "
p219
sS'HBFDNKTRZALD'
p220
S'Snapchat chanteelleex '
p221
sS'FGCBEEJRJPSL'
p222
S"I'm a fucking punmeister Looking for a drinking partner  someone to take me to Rotato for a jacket potato "
p223
sS'KQVCKFSEFXIW'
p224
S'Costume student at queen Margaret uni in Edinburgh Witty oneliner required for bio please leave suggestions in message form '
p225
sS'FREYEEADWRPR'
p226
S"I'm a fucking punmeister Looking for a drinking partner  someone to take me to Rotato for a jacket potato "
p227
sS'XTNWRUDFATNJ'
p228
S'Dundee gal studying Costume Design in Edinburgh Addicted to custard creams and I make a cracking cup of tea'
p229
sS'QZXWPSNFBERU'
p230
S"I'm a fucking punmeister Looking for a drinking partner  someone to take me to Rotato for a jacket potato "
p231
sS'HLOFKCMWKASU'
p232
S''
p233
sS'FEAPZLKGNIWH'
p234
S'Instagram  maddiealiceRGU'
p235
sS'DPUOJFPETYCU'
p236
S'PhD studentVeganFeministPansexualSapiosexual'
p237
sS'VSNRVKWZNITV'
p238
S"UoE Swedish bakar utmrkt kladdkaka sick dance moves with and without tequila in my systemJe parle franais je jure and  other languagesIf we match don't be shy"
p239
sS'NBMTSGVNJPBJ'
p240
g12
sS'XNZXGHGHXQWI'
p241
S'E D I N B U R G HSnapchat jessmcgovernx'
p242
sS'ZYYTDDFBFQTX'
p243
S'EdinburghLondon'
p244
sS'VZDPIZCTNPXB'
p245
S"I'm a fucking punmeister Looking for a drinking partner  someone to take me to Rotato for a jacket potato "
p246
sS'SWYKADSPWIKE'
p247
S'French Just looking for a funny or interesting chat Maybe more according to the chat'
p248
sS'BHBYKKXTOTSJ'
p249
S"I'm actually really cool "
p250
sS'TNEJEDSJPCWA'
p251
g12
sS'PEUSFJCMHXDA'
p252
g12
sS'JOPSGYQSMLJQ'
p253
S'Edinburgh  Psychology StudentBartender Travelling '
p254
sS'GQNEVSEPZEKJ'
p255
S''
p256
sS'WLEZYSBEWSAA'
p257
S''
p258
sS'EWFPEBDPLVQC'
p259
S"I'm a fucking punmeister Looking for a drinking partner  someone to take me to Rotato for a jacket potato "
p260
sS'AUOTXPUWPPAB'
p261
S"I'm a fucking punmeister Looking for a drinking partner  someone to take me to Rotato for a jacket potato "
p262
sS'YNOYABSRTUUF'
p263
g12
sS'LJNITQQFWXCU'
p264
g12
sS'FUXEGMKDNCGN'
p265
g12
sS'BRVASRUNLYZK'
p266
S"I'm a daydreamer and a nightthinker aka I go to bed at about am most nightsnd year theatre and film student  big tea lover and Christmas obsessedI'm not the kinda girl you will meet in a club I like hanging out in my flat or going out to a pub with my friends Slytherin and proud  I write scripts in my free time and I spend a lot of time with my friends who are all massive geeksnerds what ever you call them who I mum  but they keep me laughing which I love  "
p267
sS'OCYYLDQYGDUR'
p268
S''
p269
sS'TLSLUDDUWVWD'
p270
S"I'm a fucking punmeister Looking for a drinking partner  someone to take me to Rotato for a jacket potato "
p271
sS'YFEVRRKHYONL'
p272
g12
sS'UDNDBVDDNVAB'
p273
S''
p274
sS'JUQITCRUNURJ'
p275
S'th year Zoologist at Edinburgh Uni A man who dares to waste one hour of time has not discovered the value of life'
p276
sS'DIEWIEALAXTV'
p277
S'Love Toy Story and a good pair of socks '
p278
sS'UBPZQPGPAKLX'
p279
S''
p280
sS'YCTWPFKMXWKZ'
p281
S'Gettysburg College Basketball and track'
p282
sS'MHJSEXAOPVVF'
p283
g12
sS'ANTPCCQVMHHA'
p284
S''
p285
sS'VCYNVTHXFVVV'
p286
S''
p287
sS'ESCSTQQXDAJG'
p288
S"Don't really know how this works "
p289
sS'NIORQCDADMRK'
p290
S''
p291
sS'XYRLUEFYTPGU'
p292
S''
p293
sS'ECKCXDMKOVQI'
p294
S"Just a nice always smiling girl living in Edinburgh originally from Poland Looking for a chat a friend a remedy to boredomI like going out having fun singing enjoying life in general ' "
p295
sS'NYELCPSARNPI'
p296
S''
p297
sS'WUGODMTNHLAN'
p298
S'Studying chemical physics at Edinburgh uni Bilingual and love to travel for real though'
p299
sS'HQZWRASTTVEP'
p300
S''
p301
sS'EMTPAQZRGWOO'
p302
S"I'm a fucking punmeister Looking for a drinking partner  someone to take me to Rotato for a jacket potato "
p303
sS'FLOIAXUOOCFM'
p304
S'what is haaaappeninFrom Northern Ireland  living in Edinburgh'
p305
sS'TUPTMDFOEUPP'
p306
S''
p307
sS'FBAHGALMXDVO'
p308
g12
sS'ESIRXROHCQIK'
p309
S"I'm a fucking punmeister Looking for a drinking partner  someone to take me to Rotato for a jacket potato "
p310
sS'JCVAGLWSMXGX'
p311
S"I'm a newly qualified nurse living in Edinburgh Here's the gist folks I don't take life too seriously I require a nice spoonful of Nutella pretty much on a daily basis you will always catch me with a gt on a night out I eat my vegetables and I squat"
p312
sS'XULQRSCMLPOT'
p313
g12
sS'IKULVWEHMHZZ'
p314
S"I am DTF  Darn Tootin' Fun"
p315
sS'FRNHFTXEGZKP'
p316
S"Politics theatre UN coffee addict postgraduate law and history student traveller huge fan of old tv series as well as action and science fiction moviesHell isn't merely paved with good intentions it is walled and roofed with them  Aldous Huxley"
p317
sS'NBVGNSXGNOVK'
p318
g12
sS'TXQDRDDXJLYU'
p319
S''
p320
sS'FMVRPTOSUEPI'
p321
S'snapchat kirstenwindever'
p322
sS'ROUORHOEHWMW'
p323
S"My busyness is to create Doesn't even matter what  "
p324
sS'OCBMRNPHUROR'
p325
S"Currently living in the wrong place for someone who can't stand the coldBut when life hands you"
p326
sS'OOVZOUKICBCL'
p327
S'PhD studentVeganFeministPansexualSapiosexual'
p328
sS'ZXQZPAWXYMJV'
p329
g12
sS'HUPRVMROJJOB'
p330
S'Gin dogs and good food'
p331
sS'SGBKQKPGXCRF'
p332
S'Australian travelling in Europe and the UK  Current location Edinburgh '
p333
sS'BZKAZVSMRAZX'
p334
S"I'm actually really cool "
p335
sS'IEJQONSAVOYN'
p336
S''
p337
sS'ZRFGIOMWZXWF'
p338
S'Instagram  maddiealiceRGU'
p339
sS'PQJKFMOOSNLH'
p340
S''
p341
sS'GBYAKHRDVEIT'
p342
S"My mum thinks I'm cool"
p343
sS'NZAMVLSSYCWC'
p344
S'media student at qmu  full time alcohol enthusiast '
p345
sS'ZLTQZEAGZSJF'
p346
S'Hit me up for fun and games xx'
p347
sS'LCWQPZXPKJGY'
p348
S'english lit studenti like people places and thingsthe kind of girl you could take home to meet your parents until your dad inevitably leaves your mum to be with me instead '
p349
sS'TONYPTBYNRIW'
p350
S'Medic at Edinburgh Uni '
p351
sS'JVHPRHIIESXF'
p352
g12
sS'VGWAGINIVQYC'
p353
S"I'm a fucking punmeister Looking for a drinking partner  someone to take me to Rotato for a jacket potato "
p354
sS'FFGOEEGKAMWK'
p355
S"Edinburgh Law GraduateJack Daniels enthusiast' on a good hair dayHobbies include trying to get less awful at guitar and watching disney movies in the bathInstagram ines"
p356
sS'QAAIAXFMHJPW'
p357
S'Studying architecture at Edinburgh university Love to travel Big fan of silliness Terribly English Should never be allowed to drink at lunch'
p358
sS'JFYVMAWOCOSY'
p359
S''
p360
sS'IXXKVOSFBSAP'
p361
S'From italy Love photography Traveler '
p362
sS'HWCXNOWCVVHU'
p363
S'snapchat kirstenwindever'
p364
sS'WFLQAVIPVIEV'
p365
S'EdinburghLondon'
p366
sS'JQTMJNQAYYMN'
p367
S'Student Edinburgh '
p368
sS'OWSDWYIVGHHG'
p369
S'Studying in Edinburgh Belgian lived in Dubai Simply love traveling '
p370
sS'WLYADGKHVQMP'
p371
g12
sS'SEKXZCLQZPMP'
p372
S"DogspeopleI'm the blonde less attractive one "
p373
sS'PPTBEWZJPCAR'
p374
S'NewcastleEdinburgh '
p375
sS'EWCNREYAKWSC'
p376
S"EdinburghLondon Let's play carpenters first we get hammered then I nail you"
p377
sS'INRMCULDBKYG'
p378
S'Edinburgh'
p379
sS'VZWROUVCMWRJ'
p380
S'Canadian  just moved to EdinburghI just want someone who makes me laugh I make art snowboard and can do circus tricks'
p381
sS'DTOUAWFKTSNK'
p382
S'Spanish but in love with the rest of the world'
p383
sS'GRUNILJZWAUV'
p384
S"I'm a fucking punmeister Looking for a drinking partner  someone to take me to Rotato for a jacket potato "
p385
sS'HXFKUKVDYCHI'
p386
g12
sS'TZCYVGNDSUYX'
p387
S'Instagram  eloiseevans '
p388
sS'BLMWWVIXSDQN'
p389
S"LondonEdinburghSocial anthropology student Be nice Be fun Be friendly Don't be boring "
p390
sS'KBLIDNJOVGMQ'
p391
S''
p392
sS'SUMDIOUQGJQH'
p393
S"I'm a fucking punmeister Looking for a drinking partner  someone to take me to Rotato for a jacket potato "
p394
sS'HPWSBRHTZYZK'
p395
S''
p396
sS'CNUXDRZEUOFA'
p397
S'Study in edinburgh Play korfball love to dance'
p398
sS'FBSFWAAKKJEF'
p399
g12
sS'CLXCQHVRLNOD'
p400
S"I'm a fucking punmeister Looking for a drinking partner  someone to take me to Rotato for a jacket potato "
p401
sS'JXHUMHBOKHAN'
p402
S" Irish  and Living in Edinburgh accept the the things you can't changebe brave to change the things you canand be wise to know the difference"
p403
sS'VNTZSPJGJLXD'
p404
S"Don't really know how this works "
p405
sS'QXLZRNWFSXCW'
p406
S'Fine Art MA  ECA Brummie born and bred My neighbors think my accent is hilarious Instagram mollyhk'
p407
sS'CBSJFEMWRSOM'
p408
S'Business Student at the University of Edinburgh'
p409
sS'YUUTZOBANORL'
p410
g12
sS'VXWWPWXIMABT'
p411
S''
p412
sS'RLYMVCEAXGTZ'
p413
g12
sS'QBNXPJTMPBNQ'
p414
S"I'm a fucking punmeister Looking for a drinking partner  someone to take me to Rotato for a jacket potato "
p415
sS'YPAJNVXNRQUH'
p416
S'Basel BrusselsI vibe Insta eleanorroseshortland'
p417
sS'GMTOGZRPQASL'
p418
S'Edinburgh and AberdeenStudying a useless degree and I love it Apparently I look like the crescent moon emojiWe should hang out '
p419
sS'OOBHPUSCKQUV'
p420
g12
sS'CREHRAOJGYCG'
p421
S''
p422
sS'WTJBMMFAPRKI'
p423
S"I'm a fucking punmeister Looking for a drinking partner  someone to take me to Rotato for a jacket potato "
p424
sS'OGPBIBSRURHB'
p425
g12
sS'FNTDTATWIHQY'
p426
S'Edinburgh uni '
p427
sS'JUCEMWNISCDN'
p428
S' NCL Edinburgh Biology student bartender keen traveller dog lover '
p429
sS'TBJKMUDXXHFW'
p430
S'Illustration student at Edinburg uni'
p431
sS'YDALKNDJLOEQ'
p432
S"I'm a fucking punmeister Looking for a drinking partner  someone to take me to Rotato for a jacket potato "
p433
sS'COREZWWRSANS'
p434
S''
p435
sS'RPCJKABCWGQT'
p436
S'NewcastleEdinburgh '
p437
sS'KXLWUGCDBRKX'
p438
g12
sS'EXACGQLZMGVD'
p439
S'Are you a banana Because I find you appealing '
p440
sS'MGXTCIRNEBUX'
p441
S'Edinburgh'
p442
sS'JRYBYEPUHVNM'
p443
S'Living in Edinburgh and living life to the full'
p444
sS'DOMNVXBKXAIY'
p445
g12
sS'OPWINBODTTCX'
p446
S'GlasgowEdinburghStudying Civil Engineering at HeriotWatt '
p447
sS'YRLAQZGSRTXS'
p448
S"Acting student edinburgh if you don't like messy eaters then i'm not your gal "
p449
sS'FHYEJDQKSLHL'
p450
S'Forresedinburgh Criminology at Napier '
p451
sS'ZVJJTIOMRLJU'
p452
g12
sS'OYYPODLKFTBK'
p453
S'ft  and hate rude people '
p454
sS'HQLUKNMLUOFT'
p455
S' and '
p456
sS'VKALUKDKYJHQ'
p457
S''
p458
sS'KHIQXTSPFHQT'
p459
S"I'm a fucking punmeister Looking for a drinking partner  someone to take me to Rotato for a jacket potato "
p460
sS'GVOKNSKEOTTE'
p461
S"I'm a fucking punmeister Looking for a drinking partner  someone to take me to Rotato for a jacket potato "
p462
sS'DZXZQLEBOEFN'
p463
g12
sS'AKRMAXSUNZDS'
p464
g12
sS'UMRGTWUNSHRF'
p465
S'Lived in Finland and New Zealand nowadays in Edinburgh for uni  Excited about life '
p466
sS'DEDFREFBQCKD'
p467
S'Student Edinburgh'
p468
sS'MZAOSZPJGMTV'
p469
S''
p470
sS'HGWSEMCPKNRX'
p471
g12
sS'QNYDBZGXCSFC'
p472
S' nd year actuarial student at HW  '
p473
sS'YTCBWFBKKNPS'
p474
S'Sport Science StudentEdinburgh'
p475
sS'HDZMSRLPGIGW'
p476
S'I enjoy a nicely packed bowl placed on top of a bong Plainfield IL USA Let me be your American sweetheart Edinburgh for the next  weeks Lots to see drink smoke and explore here '
p477
sS'RMQWHOAXYMGW'
p478
S'ECA'
p479
sS'CWVVGIKEWJJX'
p480
S' nd y UoE Will go on a date with a guy who knows how to work in CAD'
p481
sS'EYRWXZAVBWSP'
p482
S'Aussie traveller '
p483
sS'PGPWHCDMXRFO'
p484
g12
sS'ODAVQYRDNVDG'
p485
S'Edinburgh '
p486
sS'ROCWSMTMBVLJ'
p487
S'if i had to choose between believing in aliens and believing in love i would choose the aliens except for space i also spend a lot of time thinking about dinosaursalso im swedish'
p488
sS'RLMEJCEKGZDH'
p489
S'Love Toy Story and a good pair of socks '
p490
sS'EVGSQFGPJJOS'
p491
S"I'm new in Edinburgh and just want to meet new people "
p492
sS'VMKYKSRLNDIU'
p493
S' runner '
p494
sS'ZHALBDQXJFTP'
p495
S''
p496
sS'OGNNKKMQTENL'
p497
S''
p498
sS'HFXZJSSYVRUP'
p499
S"UoE Swedish bakar utmrkt kladdkaka sick dance moves with and without tequila in my systemJe parle franais je jure and  other languagesIf we match don't be shy"
p500
sS'YAJYTWGCXNBS'
p501
S' Edinburgh '
p502
sS'WPZZNDJXLQTD'
p503
g12
sS'IHESIHOAFGGF'
p504
S'Events management student music lover and Disney enthusiast Living in the moment '
p505
sS'ZDUURJCUUDKF'
p506
S'Second year at Edinburgh university '
p507
sS'UIGGISXLNWLY'
p508
S"I never send x's nothing personalTry impress meHigh expectationsEither boogie hard or go home "
p509
sS'TXOGZDABPFKA'
p510
g12
sS'UQSXJZAYMNHU'
p511
g12
sS'OCGLQHUCJQQK'
p512
S''
p513
sS'KNPGXWCTMCMO'
p514
g12
sS'EUYEXJQWJPNU'
p515
S''
p516
sS'RLFPLSZIMBSD'
p517
S"I'm a fucking punmeister Looking for a drinking partner  someone to take me to Rotato for a jacket potato "
p518
sS'XPSWHFUOZJSH'
p519
g12
sS'BLUGXVXEFDSA'
p520
S'EdinburghStudying Nutrition and Food Science at QMUPlay rugby for Lismore WRFC '
p521
sS'QZRVBUBLPMCQ'
p522
S"I love adventures and people who can make me laugh I'm always up for coffeewhisky with new people Looking for friends and drinkingexplorer buddies "
p523
sS'OYGXWMIVCYZK'
p524
S'Studying in Edinburgh from Mallorca'
p525
sS'IJWRJPHCBXQQ'
p526
S"I'm a fucking punmeister Looking for a drinking partner  someone to take me to Rotato for a jacket potato "
p527
sS'DFMHCISWRKQK'
p528
S'East SussexEdinburghMaths student'
p529
sS'IJYPNJECMJET'
p530
S"I'm a fucking punmeister Looking for a drinking partner  someone to take me to Rotato for a jacket potato "
p531
sS'NBPWQRBORMEN'
p532
S'jo perrin X'
p533
sS'OKKQQKNYFFTT'
p534
S"Travel obsessed pierced and inked After working in Romania Madagascar and Nepal I'm spending some time at home in Edinburgh to focus on my dance career and work out what the hell I'm doing with my life If you've heard of The LaFontaines we can probably be friends"
p535
sS'YWIOOCQBNCIM'
p536
S''
p537
sS'GDNNFBUGOXAO'
p538
S'nd year Accounting student at Edinburgh UniFrom Fife'
p539
sS'QTLDXJODHKSA'
p540
S''
p541
sS'WBCKPFQXQRGZ'
p542
S''
p543
sS'UDKSQZASSRZV'
p544
S'Instagram kirstinsands'
p545
sS'CCUMGUJLJHQM'
p546
S"I'm a fucking punmeister Looking for a drinking partner  someone to take me to Rotato for a jacket potato "
p547
sS'DHYDQITDPLEQ'
p548
S"Trying out being an adult at the moment I've not killed anyone yet so I think it's going well I'm a nerd at heart spending my time watching movies and playing video games so trying to put off responsibility as long as I can I wish I could craft one of those epic 'about you' sections but I guess mediocrity will have to do "
p549
sS'VMPRJHGJCUUG'
p550
g12
sS'RKTAITHBINKD'
p551
S'Are you a banana Because I find you appealing '
p552
sS'RYVVNIYAHOIG'
p553
S'Starwars xbox my puppyyup'
p554
sS'ARFWETVLDADX'
p555
g12
sS'ELGJULUZDTHG'
p556
g12
sS'OQFSMREVLHQM'
p557
g12
sS'SAZJTUKXEDIA'
p558
S''
p559
sS'POOUTNXWFKAZ'
p560
S"So I'm a bit of a traveler and excited to explore more of the world really into having a drink and getting my boogie on at the weekend Love animals  minus the spiders I honestly just want someone to cuddle up with and watch tv with "
p561
sS'KVBBJVQZIEHR'
p562
S"I'm a fucking punmeister Looking for a drinking partner  someone to take me to Rotato for a jacket potato "
p563
sS'FQERSQOQHCLV'
p564
S'politics with stats student '
p565
sS'HZIHJXIGGZEJ'
p566
S"I don't have an inside laugh I always wish there was more gin and cats That's pretty much it "
p567
sS'NAITJVMLEIQY'
p568
S"I'm Grace  and I love sports Mostly going to the gym which I'm a tad obsessed with specifically powerlifting I love TV shows such as pretty little liars and the last ship My music taste varies but I like most musicChat to me if you want to "
p569
sS'VQEQAFXCCAVT'
p570
S''
p571
sS'NYBKAFEIZUEC'
p572
S' '
p573
sS'IYWONRKLHPKT'
p574
S' not Snapchatt amylownieee '
p575
sS'FVHZOTKYUKQE'
p576
S''
p577
sS'SGBJLXIFFYJF'
p578
S'Instagram olivia '
p579
sS'AASNGQEFMFSY'
p580
S"I'm a fucking punmeister Looking for a drinking partner  someone to take me to Rotato for a jacket potato "
p581
sS'DZDDJQSCTPEB'
p582
g12
sS'CMZAYCEHOTTZ'
p583
g12
sS'IPJSXHLSUBPD'
p584
g12
sS'TIUVNLFPBXTQ'
p585
S'          s     Just moved to Newcastle to start my internship  Love skiing filmsbeing outdoors and I never say noto a party x'
p586
sS'HVRXSVLRYYUR'
p587
S''
p588
sS'SYGFFTXWQECN'
p589
S'Science graduate currently living and working in Edinburgh  '
p590
sS'TOHDWPVZKTOI'
p591
g12
sS'KOCMXQNQRMGB'
p592
S"DogspeopleI'm the blonde less attractive one "
p593
sS'OVCKGTQVQTXC'
p594
S"I'm a fucking punmeister Looking for a drinking partner  someone to take me to Rotato for a jacket potato "
p595
sS'BJDYVAMBWIEJ'
p596
g12
sS'UVSFLPJDQPPM'
p597
S'Interested in art tennis skiing and swimmingPug love is a necessityAnd a good sense of humour'
p598
sS'HVFCESKAMVOM'
p599
S' Half Italian Edinburgh'
p600
sS'MCSXWMCFWMCF'
p601
S''
p602
sS'IRCGPZTLITOL'
p603
S'Studying law and French at the University of Edinburgh'
p604
sS'KUVIMEZLKKBS'
p605
S'Work at Edinburgh airport as a CSASnapchat  Kaylamouns'
p606
sS'REQUZWWUMGQF'
p607
S"I'm a fucking punmeister Looking for a drinking partner  someone to take me to Rotato for a jacket potato "
p608
sS'HOFAASVXVFER'
p609
g12
sS'JMEWWKYUBVDK'
p610
g12
sS'LXBEOPXIHVLK'
p611
S'Lived in Finland and New Zealand nowadays in Edinburgh for uni  Excited about life '
p612
sS'MXKZFKGCMCNW'
p613
S'Instagram kirstinsands'
p614
sS'KBPKXVJBQGFS'
p615
S''
p616
sS'OQUMWJAHCFVP'
p617
S"I'm a fucking punmeister Looking for a drinking partner  someone to take me to Rotato for a jacket potato "
p618
sS'PTQTIXFIZBJI'
p619
S'I go to uni for the SnowsportsI bake a lot too '
p620
sS'OAHKZVXYBWYY'
p621
S"I'm a fucking punmeister Looking for a drinking partner  someone to take me to Rotato for a jacket potato "
p622
sS'MYAKTCTQMWMD'
p623
S"I'm a fucking punmeister Looking for a drinking partner  someone to take me to Rotato for a jacket potato "
p624
sS'RKSUBJYTAJCJ'
p625
g12
sS'HUMAWWQVQXKP'
p626
S"Weybridge  SurreyPortsmouth UniElegant trippy chaotic flavourAbout meExtremely fond of facials and hair and facial hair Great at giving head Massages I love gin Apologies my Instagram doesn't have endless amount of selfies but there is the odd one in there to prove I'm a solid "
p627
sS'VJCVJZSMWRAX'
p628
S'Northern Ireland Edinburgh Napier Skiing Hockey Travelling  '
p629
sS'IRWJNJVYTJBY'
p630
S'Philosophy and Theology  University of Edinburgh '
p631
sS'QOZKQPSLAWIA'
p632
S'Art student in Edinburgh'
p633
sS'PZCMEMTLCVJW'
p634
g12
sS'HUYUCJZLYXLN'
p635
S"Single because I didn't forward that chain email in Musician '"
p636
sS'XHDAGKLTKIOA'
p637
g12
sS'HTUKFZDHVEUV'
p638
S''
p639
sS'POOFDLMBYPGI'
p640
S''
p641
sS'LERXZFCAPAQY'
p642
S'Irish living in Edinburgh '
p643
sS'JBJTJERCCNHV'
p644
S'Studying Primary Teaching at Edinburgh uni '
p645
sS'NHOCPRQKOANR'
p646
g12
sS'SJTLETRVXXVH'
p647
g12
sS'XNYOKYPJAVWW'
p648
S'EdinburghYorkArt Student '
p649
sS'FXTIIWNCPBKL'
p650
S'Instagram  chloejessicaxoSnapchat  chloejessicaxx'
p651
sS'IJYNEMTTHTJZ'
p652
S'Borders girl currently in Edinburgh studying Health  Fitness Hoping to travel within the next year '
p653
sS'DWQPCUSOVOPD'
p654
S"I'm a fucking punmeister Looking for a drinking partner  someone to take me to Rotato for a jacket potato "
p655
sS'QBFKQYIVFERN'
p656
S'Studying in Edinburgh from Mallorca'
p657
sS'ROAVOZWYBUQU'
p658
g12
sS'HLEKVKOAUVZY'
p659
S"Edinburgh Can't ski Didn't go to uni Don't have snapchat  "
p660
sS'JPSIPDWJSSDB'
p661
S"I'm a fucking punmeister Looking for a drinking partner  someone to take me to Rotato for a jacket potato "
p662
sS'VTKNTEIIWKTZ'
p663
S"I'm a fucking punmeister Looking for a drinking partner  someone to take me to Rotato for a jacket potato "
p664
sS'HIYHZXYKIHYC'
p665
S'EdinburghGlasgow Strathclyde Uni '
p666
sS'GAIAYDISGOWY'
p667
S'American studying in Edinburgh '
p668
sS'GBTFBMETHIAA'
p669
S'Student Edinburgh'
p670
sS'ZIXZDIZSLCDN'
p671
S"Charlie it's not short for anythingEdinburghSculpture "
p672
sS'XOZGBSEQCBPN'
p673
S"Loves to paint act and sing can't be bothered to make money outta them If you can't handle tattoos you can't handle me Rather dislike beards love tall tall guys and any height of girl Dying of the flu at the moment so I can appreciate the type of Netflix and chill where you feed me soup "
p674
sS'AEVZJUXVITBW'
p675
S'Whut'
p676
sS'XNWVASBTEPRB'
p677
S" polyamorous anarcho queer feminist I'm in a serious relationship but we see other people outside it I'm currently looking for casual fun and to meet new people and make friends No jembles please          "
p678
sS'SBLFWUDTZLRL'
p679
S'You are now about to witness the power of street knowledge '
p680
sS'TZMYFKAGURBY'
p681
S"Just a nice always smiling girl living in Edinburgh originally from Poland Looking for a chat a friend a remedy to boredomI like going out having fun singing enjoying life in general ' "
p682
sS'FBVOCLDWKZUV'
p683
g12
sS'FJYYXOHQFSYL'
p684
S'Canadian  just moved to EdinburghI just want someone who makes me laugh I make art snowboard and can do circus tricks'
p685
sS'YENLTPSDIHXP'
p686
S"I'm a fucking punmeister Looking for a drinking partner  someone to take me to Rotato for a jacket potato "
p687
sS'YXFEOEZAEOEI'
p688
S''
p689
sS'WGZLFXRZNGOH'
p690
S"Edinburgh Eng Lit student and waitress I read lots of books and try not to throw wine all over people with mixed success ' "
p691
sS'NIVFYRTVAYYZ'
p692
S'Undefeated Lord of the Rings trivia championActresswhisky enthusiast'
p693
sS'GPOCBPRKTZHC'
p694
S'GlasgowEdinburghStudying Civil Engineering at HeriotWatt '
p695
sS'EKXNXBMZYFWW'
p696
S'I work with dance Art cats feminism travels nature and all that stuff Home parties are usually better a night out BAM'
p697
sS'GGJLRDCLQOAH'
p698
S'Events management student music lover and Disney enthusiast Living in the moment '
p699
sS'BYTEZEWNWCQG'
p700
S''
p701
sS'IWTFPQXEYEAT'
p702
S"' string bean studying at Edinburgh College of ArtWill usually be found dancing around to music covered in glitter "
p703
sS'GICMCTXDJFQZ'
p704
S"' string bean studying at Edinburgh College of ArtWill usually be found dancing around to music covered in glitter "
p705
sS'BBHSRNUXCKCX'
p706
S'I like long romantic walks to the bar'
p707
sS'TWHICPPEETEC'
p708
S"I'm a fucking punmeister Looking for a drinking partner  someone to take me to Rotato for a jacket potato "
p709
sS'NSGLVWQWSSQB'
p710
g12
sS'MJMUOQNECESF'
p711
S'nd year design student living in Edinburgh from Glasgow  love an adventure friends and gin'
p712
sS'YSYVBZYTFLXM'
p713
S''
p714
sS'UQJJWWLGEHTB'
p715
S'Live in Edinburgh studying drama                                     Snapchat  leahmac'
p716
sS'XZAIWKKXPCES'
p717
g12
sS'XQTHGDROJIPE'
p718
S''
p719
sS'GGRAKOUKDQTR'
p720
S"I'm a fucking punmeister Looking for a drinking partner  someone to take me to Rotato for a jacket potato "
p721
sS'LAGPDQBDBGYT'
p722
S"Down to earth designer looking for a like minded person Funny banter and intolerant of rude people From Newcastle but in Edinburgh most of my time studying at uni  Enjoy lifting heavy items and looking after myself So tell me what's your talent "
p723
sS'AYJNUTTDZDSG'
p724
g12
sS'PBEIVFJBXRQK'
p725
S'Olivia  New York born Looking to get to know Edinburgh through good company and good food '
p726
sS'NLFUEWJTASCD'
p727
S"I'm a fucking punmeister Looking for a drinking partner  someone to take me to Rotato for a jacket potato "
p728
sS'MNKAFXJWWMKH'
p729
g12
sS'ZJBNGAXPTWMP'
p730
S'Studying at Edinburgh for the semester'
p731
sS'YTZDYWEAUSFY'
p732
S"I'm a fucking punmeister Looking for a drinking partner  someone to take me to Rotato for a jacket potato "
p733
sS'MYUMRJYZIYGC'
p734
S"I'm a fucking punmeister Looking for a drinking partner  someone to take me to Rotato for a jacket potato "
p735
sS'URVJWWUPHOVW'
p736
S'EdinburghGlasgow Strathclyde Uni '
p737
sS'OEWXOMWCTOKT'
p738
S'A wee X file I like cartoons and science fiction '
p739
sS'KOFGKXRWHPXI'
p740
S"I'm a fucking punmeister Looking for a drinking partner  someone to take me to Rotato for a jacket potato "
p741
sS'PUIHTLNOHKCT'
p742
g12
sS'UWLDNRXSUXAU'
p743
S''
p744
sS'PKXZAXMPQJXV'
p745
S'To your good elf  '
p746
sS'YQHMYKJOTDIR'
p747
S'I like dogs more than people'
p748
sS'JVSOYQDGVKXF'
p749
S'Business student at Edinburgh UniversityFrom Manchester'
p750
sS'ITEEOWDPPBYT'
p751
S' Edinburgh'
p752
sS'AJQODVINECGL'
p753
g12
sS'LOSOJSMXCBUP'
p754
S'Hi                              '
p755
sS'NZPZGFKARVWZ'
p756
S'psychology student at edinburgh uni bios are shit so just come chat to me ae '
p757
sS'WUNIBCLQMBPB'
p758
S"I'm a fucking punmeister Looking for a drinking partner  someone to take me to Rotato for a jacket potato "
p759
sS'MBHMBAQIHCMD'
p760
S"I'm a fucking punmeister Looking for a drinking partner  someone to take me to Rotato for a jacket potato "
p761
sS'NMWVWKRMMQYW'
p762
S'Economics student at University of Edinburgh'
p763
sS'XTEASPEOEORA'
p764
S"Music  Mixtapes  Vibing  National Geographic  Landscapes  Tea  Morning Flavoured Lattes  Muffins  Netflix  Cinema  Yoga  ' "
p765
sS'RYXOXEKIPMAS'
p766
S'Leeds  EdinburghBiological sciences studentMeat free I like travelling n being in the sea '
p767
sS'MVOHLPFSROXF'
p768
S"LondonEdinburghSocial anthropology student Be nice Be fun Be friendly Don't be boring "
p769
sS'HVSVKVSPBPNA'
p770
S'BelfastDundee  Law with German  RowerLifeguard '
p771
sS'PDNVWIIZPKTA'
p772
g12
sS'IYNUUANAEIEE'
p773
S''
p774
sS'HDPUZFXBBPEY'
p775
S'Looking for my Chuck Bass '
p776
sS'NNDGRIWSTJFV'
p777
S"I'm a fucking punmeister Looking for a drinking partner  someone to take me to Rotato for a jacket potato "
p778
sS'RWMVGZSLPHTN'
p779
S''
p780
sS'ZGRMUINUULIH'
p781
S"'Death is just life's next adventure'Food naps alcohol and rugby keep me happy snapchat  lauradickson"
p782
sS'MSBEQCSNJDOC'
p783
S"I'm a fucking punmeister Looking for a drinking partner  someone to take me to Rotato for a jacket potato "
p784
sS'TQSRWWTBGNFH'
p785
S'Yvonne tes bonneUSA to UK '
p786
sS'VNVUFVEFLOFM'
p787
S'Edinburgh uniBusiness studentPart time receptionist Love sports and trying new things '
p788
sS'BPEYJSSEFXCV'
p789
S" polyamorous anarcho queer feminist I'm in a serious relationship but we see other people outside it I'm currently looking for casual fun and to meet new people and make friends No jembles please          "
p790
sS'TOZWWPPJMHAF'
p791
g12
sS'XCKBMTFQDSPW'
p792
S"I'm a fucking punmeister Looking for a drinking partner  someone to take me to Rotato for a jacket potato "
p793
sS'UTAYEXLADSMN'
p794
S'Ayla  student scoutAnything else just ask'
p795
sS'GSQQRGNASRUY'
p796
S'Just Gin and bear it  DStudentEvents management  Not afraid to say hi first Genuinely nice '
p797
sS'ASQNXNCFSISM'
p798
S"I'm a fucking punmeister Looking for a drinking partner  someone to take me to Rotato for a jacket potato "
p799
sS'MBXQHEAPPOMD'
p800
S"I'm a fucking punmeister Looking for a drinking partner  someone to take me to Rotato for a jacket potato "
p801
sS'GVMQZUCRTJTG'
p802
g12
sS'FMFFVWEPAGIL'
p803
S"I'm a fucking punmeister Looking for a drinking partner  someone to take me to Rotato for a jacket potato "
p804
sS'BPKILUFWMSOJ'
p805
g12
sS'DJEVEQKJBXIO'
p806
S' nd y UoE Will go on a date with a guy who knows how to work in CAD'
p807
sS'EZOEJQECNOJW'
p808
S'Edinburgh '
p809
sS'ZUTGRZWCKKIH'
p810
S'Edinburgh Allergic to cats and bullshit Please give me none '
p811
sS'DGKOPDYCLLKX'
p812
S"I'm a fucking punmeister Looking for a drinking partner  someone to take me to Rotato for a jacket potato "
p813
sS'LQXNWXWOMQKX'
p814
S'Ig sofiaellenadolfina snap sofiadolfina floorball'
p815
sS'EMYVWYRZUVMT'
p816
S'th year Zoologist at Edinburgh Uni A man who dares to waste one hour of time has not discovered the value of life'
p817
sS'HUVIDOCFKPZE'
p818
S"I'm a fucking punmeister Looking for a drinking partner  someone to take me to Rotato for a jacket potato "
p819
sS'QAIXMFWWIZSD'
p820
S''
p821
sS'BRDDXTGQCJWQ'
p822
S''
p823
sS'JJNGGHJPJIGA'
p824
g12
sS'LYNCQKPCMGFY'
p825
S"Charlie it's not short for anythingEdinburghSculpture "
p826
sS'SFOCBZMSZWMH'
p827
S"if you have a sense of humour tattoos love coffee and music you're already halfway there  singerproducer  From Hong Kong "
p828
sS'OEXNYVUQJJAF'
p829
g12
sS'GFPZLGNUUDSN'
p830
S''
p831
sS'UYHLNFJKARHA'
p832
S'McGill Faculty of Law Living in Edinburgh Scotland until June I live to travel'
p833
sS'NVLAXMLEIYBM'
p834
S"Snapchat hannahwootten Insta HannwoottenEdinburgh Hairdresser Tattoos Have a little boy he's my world If we match message me "
p835
sS'NXSXSKHQQITF'
p836
S' NCL Edinburgh Biology student bartender keen traveller dog lover '
p837
sS'WWLXNZOTOFSD'
p838
S'what is haaaappeninFrom Northern Ireland  living in Edinburgh'
p839
sS'QEIIMIHYULLD'
p840
S'GlasgowEdinburgh '
p841
sS'OLBOJORANIKZ'
p842
S"I'm a fucking punmeister Looking for a drinking partner  someone to take me to Rotato for a jacket potato "
p843
sS'WCQRMPFJUYHU'
p844
S'East SussexEdinburghMaths student'
p845
sS'PGRSWEHCGYSM'
p846
S'Edinburgh Uni Medic Occasional blonde moments '
p847
sS'GRIUTBMXBJOJ'
p848
g12
sS'SLILPMKDYMQW'
p849
S''
p850
sS'KSLZDVDEOQTR'
p851
S"I never send x's nothing personalTry impress meHigh expectationsEither boogie hard or go home "
p852
sS'MEFWJASTRKQL'
p853
S"I'm a fucking punmeister Looking for a drinking partner  someone to take me to Rotato for a jacket potato "
p854
sS'PDTJFUSUVIIP'
p855
S"Traveling Europe until the th Let's get a drink and see how awkward a date could be"
p856
sS'ZJINCLDGDNLC'
p857
S'Study in edinburgh Play korfball love to dance'
p858
sS'LBJHOYSYZMFX'
p859
g12
sS'WTGVLBMJHVKI'
p860
S'From Edinburgh Dundee Uni'
p861
sS'DQRWLHPJPCGG'
p862
S'Civil Engineering student'
p863
sS'VTFCXRKDVWIJ'
p864
S'Instagram lucygrace'
p865
sS'THFEQXBALZBQ'
p866
S"Started fresh on tinder here Maybe this time round it won't be so disappointing rd year psychology student Born  raised in Glasgow Anything else yOu want to know then just ask meGive me your chat "
p867
sS'SFWZPVMBQUFO'
p868
S'ChesterEdinburghnd year vet medGenuinely want to meet my husband on here'
p869
sS'XVACMBYTWEBU'
p870
S'Belfast  Edinburgh'
p871
sS'EQJRDPCZTGFC'
p872
S'Probably somewhere between ECA and my hometown of Oxford'
p873
sS'TBVAKFBHZQNH'
p874
S''
p875
sS'WWSAXWGJZDMX'
p876
S'st year University of Edinburgh  London gal'
p877
sS'VZOLIDJPKKPH'
p878
S'I work with dance Art cats feminism travels nature and all that stuff Home parties are usually better a night out BAM'
p879
sS'IIUDPJGVFVMB'
p880
S'From italy Love photography Traveler '
p881
sS'QQGDSLCSIEAL'
p882
S'Edinburgh student I like cheese and tequila Sometimes together '
p883
sS'UHICXSATYEUS'
p884
S'nd year Accounting student at Edinburgh UniFrom Fife'
p885
sS'KCNGENRGZKLT'
p886
S'Katiebooobaaaby  '
p887
sS'JQXCVEHJLOZC'
p888
S"I'm a fucking punmeister Looking for a drinking partner  someone to take me to Rotato for a jacket potato "
p889
sS'LVBAAGBLFQXT'
p890
g12
sS'EKKDGKTTEZZE'
p891
S"I'm a fucking punmeister Looking for a drinking partner  someone to take me to Rotato for a jacket potato "
p892
sS'OBDEVVLQPFGL'
p893
S"Student skiier paddler Taylor Swift enthusiast ' of not taking life very seriously I like mountains and being outside "
p894
sS'JEDFTCGJPXAR'
p895
S' '
p896
sS'CXCFPUNDWFEP'
p897
g12
sS'CXFJUVWTTFAW'
p898
S"I don't have an inside laugh I always wish there was more gin and cats That's pretty much it "
p899
sS'NPLDHSCMDWCO'
p900
S"EdinburghLondon Let's play carpenters first we get hammered then I nail you"
p901
sS'WSITTYHEGVWC'
p902
S' Edinburgh '
p903
sS'AIILVYYIXTDN'
p904
S"I'm a fucking punmeister Looking for a drinking partner  someone to take me to Rotato for a jacket potato "
p905
sS'XIQQVTIUIPHM'
p906
S"DerryEdinburgh Love having a bitta craic can be pretty sarcastic at times I reckon I'm pretty friendly though modest too so feel free to send me a wee message "
p907
sS'DOZWBYMZFEIB'
p908
g12
sS'CSUKAGLADXDH'
p909
S'Hit me up for fun and games xx'
p910
sS'YDRXBURCSALG'
p911
S' interested in human rights law and studying at UoE '
p912
sS'DEMTMYXVROSW'
p913
S'st year University of Edinburgh  London gal'
p914
sS'SYKAFAVZHIBJ'
p915
g12
sS'FXOPJVWDKSCI'
p916
S''
p917
sS'BFWHWBLCXUTI'
p918
g12
sS'OYKVLEWONION'
p919
g12
sS'FVJCQCAGQXVU'
p920
g12
sS'ECUBFZEIETGU'
p921
S"I'm a th year student in edinburgh  I love travelling and sports As Lorelei would say I stop drinking coffee I stop doing the standing and walking and the wordsputtingintosentence doingI will always cheer for Germany or Bayern Munich in football so don't try to convince me otherwise and yes football not soccerNo I am not on tinder for one nightstands so you might as well swipe left"
p922
sS'BOLEPHZPSOZO'
p923
S''
p924
sS'XZYJBEPMOMYD'
p925
S''
p926
sS'JMCHHQLPEMLE'
p927
S''
p928
sS'MYDMIQHEQMWF'
p929
S'Whut'
p930
sS'KFEHVIQDQPJZ'
p931
g12
sS'ZZILULPKBMKE'
p932
g12
sS'NKLSXZHJQEQN'
p933
S'BCUWelsh '
p934
sS'NJSKBMRUZURT'
p935
S"I'm a fucking punmeister Looking for a drinking partner  someone to take me to Rotato for a jacket potato "
p936
sS'CYZYVYHMCTON'
p937
S"I AM NOT A PSYCHO'I'm  and Looking for someone who wants to drink some beers and will let me use their bath"
p938
sS'FMKJAVJHAELO'
p939
S'Journalism student Edinburgh'
p940
sS'QKFSVNTBOVMK'
p941
S''
p942
sS'NPIXCDBSIGUK'
p943
S"I'm a fucking punmeister Looking for a drinking partner  someone to take me to Rotato for a jacket potato "
p944
sS'MSHLIUKLUGRB'
p945
S'Psychology PhD student From Edinburgh living in London Music lover'
p946
sS'HDSPIUCNMKVX'
p947
S"I'm a fucking punmeister Looking for a drinking partner  someone to take me to Rotato for a jacket potato "
p948
sS'LQCNROVOOXSO'
p949
S'Edinburgh Uni PE teaching Dive coach too '
p950
sS'QQYCGVVFZBWG'
p951
S"I'm a fucking punmeister Looking for a drinking partner  someone to take me to Rotato for a jacket potato "
p952
sS'UMEOFTPEFQDR'
p953
S''
p954
sS'CLDFZCNJZBBD'
p955
S''
p956
sS'VFWUQRJNZMNR'
p957
S' I love cooking reggae and rock climbing but most of all I just really love pie'
p958
sS'DCZKRTXLETTL'
p959
S"I'm a fucking punmeister Looking for a drinking partner  someone to take me to Rotato for a jacket potato "
p960
sS'AUUNPDUPMCTI'
p961
S"I'm a fucking punmeister Looking for a drinking partner  someone to take me to Rotato for a jacket potato "
p962
sS'IAVYGLDMWETO'
p963
S' I love cooking reggae and rock climbing but most of all I just really love pie'
p964
sS'ECYEUGZZCYFG'
p965
S"I'm a fucking punmeister Looking for a drinking partner  someone to take me to Rotato for a jacket potato "
p966
sS'BMVEQFWRIWJI'
p967
S'Half MalaysianHalf Scottish '
p968
sS'OJMFRGEWNMPJ'
p969
S'Edinburgh Uni Medic Occasional blonde moments '
p970
sS'VDKIFBWPKSEQ'
p971
S'French Just looking for a funny or interesting chat Maybe more according to the chat'
p972
sS'PZYCZEWDTICE'
p973
S'Norwegian   Student '
p974
sS'CIBGJYODUSUL'
p975
S'Australian fugitive on the run in Edinburgh graceless'
p976
sS'FTGHRSIWCCAR'
p977
g12
sS'JDKBCLAJPCOH'
p978
S'jo perrin X'
p979
sS'ESFDGDGUALJN'
p980
S"I'm a fucking punmeister Looking for a drinking partner  someone to take me to Rotato for a jacket potato "
p981
sS'BUNOFZSERFXR'
p982
S'nd year law student at the university of edinburghvegetarianwine and gigs are my favouritei play guitarIG  tanyawalterss'
p983
sS'VFXMCAPXCSFF'
p984
S''
p985
sS'MPGVQPVTALRH'
p986
g12
sS'WMOMRAAPCEND'
p987
S"Hi i'm Elley  studying costume design at ECA "
p988
sS'UQLWTEBNTZZJ'
p989
g12
sS'XESHSGPWUBSC'
p990
S"I'm a fucking punmeister Looking for a drinking partner  someone to take me to Rotato for a jacket potato "
p991
sS'OPBRQIZEGUBU'
p992
S"I'm a fucking punmeister Looking for a drinking partner  someone to take me to Rotato for a jacket potato "
p993
sS'ZSBPWHPFOKII'
p994
S''
p995
sS'QWHKWLVMEWFS'
p996
S"Edinburgh Eng Lit student and waitress I read lots of books and try not to throw wine all over people with mixed success ' "
p997
sS'QPFZEDJEYXAZ'
p998
S'Edinburgh uni Napier students need not apply '
p999
sS'MQXIGEBWHTLP'
p1000
S'Social Sciences student Bi making my way through life enjoying it when I can '
p1001
sS'WAZYZTFMQOUL'
p1002
S'Dundee gal studying Costume Design in Edinburgh Addicted to custard creams and I make a cracking cup of tea'
p1003
sS'PXLXQAQVEJBP'
p1004
S'Belfast  Edinburgh'
p1005
sS'FJKSNGZPNITY'
p1006
S'Currently studenting in edinburgh '
p1007
sS'KVRMQGABSUOV'
p1008
S'Art student at ECA Fancy dress is the way forward '
p1009
sS'JWWWAGEOTVML'
p1010
g12
sS'VUTLGWNUSZGM'
p1011
S"I'm a fucking punmeister Looking for a drinking partner  someone to take me to Rotato for a jacket potato "
p1012
sS'FZLEKSYDBODE'
p1013
S'Snapchat  caznelly'
p1014
sS'TYPFLTJICMYZ'
p1015
S'Live in Edinburgh work in London '
p1016
sS'NJJSEZXYYICX'
p1017
S''
p1018
sS'JTZVPOYBJSTH'
p1019
S"I'm a fucking punmeister Looking for a drinking partner  someone to take me to Rotato for a jacket potato "
p1020
sS'RMBAGULVTFVT'
p1021
S'Social Sciences student Bi making my way through life enjoying it when I can '
p1022
sS'TVVKVYINOZBZ'
p1023
g12
sS'FRRJDTGPDTXZ'
p1024
S"I'm a fucking punmeister Looking for a drinking partner  someone to take me to Rotato for a jacket potato "
p1025
sS'KAMYBOEVDIVQ'
p1026
S'Northern Ireland Edinburgh Napier Skiing Hockey Travelling  '
p1027
sS'FCKPHWJTCGYZ'
p1028
S'LondonEdinburgh Studying Arabic and Persian '
p1029
sS'GIKZRFZEUBMJ'
p1030
S'Liverpool  EdinburghStudent NurseTea addictParty girl'
p1031
sS'JGJGJLKCNRXS'
p1032
g12
sS'JJDXHTFTVPMJ'
p1033
g12
sS'JQGWFCNYADRA'
p1034
S''
p1035
sS'WAIEHYKEDVAC'
p1036
g12
sS'YHDCLVPTEAMY'
p1037
S"I'm a fucking punmeister Looking for a drinking partner  someone to take me to Rotato for a jacket potato "
p1038
sS'PNGPNKIPDWPV'
p1039
S'Edinburgh'
p1040
sS'OIMYTSHNTDSP'
p1041
g12
sS'TAUIWSPNVGHG'
p1042
S"I'm a fucking punmeister Looking for a drinking partner  someone to take me to Rotato for a jacket potato "
p1043
sS'LWDXPNOTEFVA'
p1044
S"Love the life you live  from Edinburgh Love tattoos and piercings Anything you want to know just ask Snapchat meganmclayDon't be afraid to message me first "
p1045
sS'FVQBGFVYFAZK'
p1046
S'Edinburgh '
p1047
sS'HCHKLEFYQKKL'
p1048
g12
sS'CSPTOMFYHWYQ'
p1049
S"Originally from Wales I'm a keen traveller coffee shop frequenter and rugby enthusiast I regularly attempt to cook and am trying to learn French"
p1050
sS'PTDQSDKIXNVA'
p1051
S'Rebecca  Living in Edinburgh Early Education and Childcare student '
p1052
sS'TOBBESOWGTON'
p1053
S' Edinburgh'
p1054
sS'TQNUQRKVKEQJ'
p1055
S'Acting student living in Edinburgh Massive nerd and cat lover who owns dogsI get confused when people put their heights here'
p1056
sS'IZIHCEBVGIHP'
p1057
S"'Death is just life's next adventure'Food naps alcohol and rugby keep me happy snapchat  lauradickson"
p1058
sS'TFNYWFKXROMV'
p1059
S'Adult Nursing at Napier Yorkshire Gal'
p1060
sS'XRQTUCAOONZD'
p1061
S"Socialist and feminist Love the arts mostly music Oh should mention that I'm looking for friends so no funny bussiness "
p1062
sS'QSNAMNCDFKYN'
p1063
S'Edinburgh Snapchat  nevadaxFacebook  Nevada Fitzner '
p1064
sS'XFBXJENXCOMN'
p1065
S''
p1066
sS'KMEHXHQBEZGT'
p1067
S"All you fellas listing your height tattoo status and beard status so I thought I'd do the same to ensure we're on the same page Yah I have tattoos No I can't grow a beard Brewdog anyone"
p1068
sS'VOICJJSHIKWU'
p1069
S'I am a tea addict who dabbles in property '
p1070
sS'YNDXDJAPEEHL'
p1071
S''
p1072
sS'UBIQAUEDDGOA'
p1073
S''
p1074
sS'QXIOJQRODJKH'
p1075
S'UoESailing singing drinking socialising etc '
p1076
sS'KIXAIPKJAATD'
p1077
S''
p1078
sS'XYEDGXKDIXLU'
p1079
g12
sS'ZGBCZVZPGXMI'
p1080
S''
p1081
sS'CUPJUCKUXZTK'
p1082
S"Just want to travel Don't message first but will reply xYes I do have snapchat so just ask "
p1083
sS'SYAEINQDTQZT'
p1084
S'From EdinburghJust give me a message to find out moreIgnore my interests'
p1085
sS'JVZXCKUCLCZA'
p1086
S''
p1087
sS'JVAHYXVXHCOZ'
p1088
S'Looking for my Chuck Bass '
p1089
sS'WCQJLPVHBSPR'
p1090
S"I'm a fucking punmeister Looking for a drinking partner  someone to take me to Rotato for a jacket potato "
p1091
sS'MWWFVBPREUHX'
p1092
S''
p1093
sS'OZOYZEJJFGPL'
p1094
S'I study psychology at the University of Edinburgh and I like skiing and hiking Also enjoy reading pretty much anything scifi and too many tv series'
p1095
sS'BFVMDCTYUESB'
p1096
S"My mum thinks I'm cool"
p1097
sS'LDINYIMRDPPU'
p1098
g12
sS'SQPORTAXSSZW'
p1099
S"I'm a fucking punmeister Looking for a drinking partner  someone to take me to Rotato for a jacket potato "
p1100
sS'ZVRKEEXTZPRE'
p1101
S'English language student at Edinburgh Uni Like music and books and cooking and getting drunk'
p1102
sS'PNGDGHRZSLSV'
p1103
S"I'm a fucking punmeister Looking for a drinking partner  someone to take me to Rotato for a jacket potato "
p1104
sS'XGXLONTEDLYQ'
p1105
g12
sS'HFVHCJBYOBAT'
p1106
S'If you have a dog then you get an instant swipe right '
p1107
sS'MHXTNAAGHQTP'
p1108
S''
p1109
sS'AQYZVFFMBKEL'
p1110
g12
sS'LGDQUNEKPRIM'
p1111
S'EdinburghMy hobbies include Netflix  Chill minesweeping drinks in George Street nightclubs and taking romantic walks with you to the cash machine'
p1112
sS'KLDMPDPYSILA'
p1113
S''
p1114
sS'OJIHTSDYTQXD'
p1115
S"I'm a fucking punmeister Looking for a drinking partner  someone to take me to Rotato for a jacket potato "
p1116
sS'NXBLVINXTYBF'
p1117
g12
sS'IUYHHVOQITBD'
p1118
S"I'm a fucking punmeister Looking for a drinking partner  someone to take me to Rotato for a jacket potato "
p1119
sS'CXVMMBWAKHPK'
p1120
S'Art student in Edinburgh'
p1121
sS'DVHXFILVGLOJ'
p1122
S"Student skiier paddler Taylor Swift enthusiast ' of not taking life very seriously I like mountains and being outside "
p1123
sS'JNDWOCQDUPGJ'
p1124
S''
p1125
sS'HUAOIMAKZSBH'
p1126
S''
p1127
sS'ZGOPLQIKXLKY'
p1128
S' '
p1129
sS'CAHIAAXDKKMJ'
p1130
S'Borders girl currently in Edinburgh studying Health  Fitness Hoping to travel within the next year '
p1131
sS'ICOHIQTHJYFS'
p1132
S'I love footballgym i work as a hairdresser and accountant '
p1133
sS'KKHYHJAIOTXR'
p1134
S''
p1135
sS'XNAMBUZBNYKB'
p1136
S'Half Hong Kong half Scottish  ex firefighter and now studying accounting  just moved to Edinburgh '
p1137
sS'JFXBJPINQKZS'
p1138
S"I'm a fucking punmeister Looking for a drinking partner  someone to take me to Rotato for a jacket potato "
p1139
sS'ERSNFTOWDNDM'
p1140
S"I'm a fucking punmeister Looking for a drinking partner  someone to take me to Rotato for a jacket potato "
p1141
sS'GFGVEXVPDOUJ'
p1142
S''
p1143
sS'PUHSIMCURDZB'
p1144
g12
sS'AVTQSUILCETN'
p1145
S''
p1146
sS'ZMFSROIPZNWD'
p1147
S'Final year student from nireland '
p1148
sS'EKWAERLRYWEN'
p1149
g12
sS'DWUHRIIUZFKJ'
p1150
S'First year psychologysociology studentOriginally from Leeds England Always up for a laugh playing on Xbox or binge watching Netflix Also enjoys attempting to play the drums Feel free to say hello and message first '
p1151
sS'FANDODTUOJWZ'
p1152
S'Gym  Dance  Cook  Bake  Love  Travel  Be crazy  Be happyPeople should smile more Personal Trainer Student'
p1153
sS'DWUIPGNOQWIA'
p1154
S''
p1155
sS'SMNBHJGHEIZQ'
p1156
g12
sS'RNVZOUQBIJEW'
p1157
S''
p1158
sS'QRXEKOFCEPON'
p1159
S'Studying at UCL for a bit'
p1160
sS'AWENCRBOMYWL'
p1161
S"I'm a fucking punmeister Looking for a drinking partner  someone to take me to Rotato for a jacket potato "
p1162
sS'XBOFVFYKAOPS'
p1163
S''
p1164
sS'XVYFFKISWKWU'
p1165
S''
p1166
sS'VKNZMHQMYOPH'
p1167
S'Just meeting new people Nothing more nothing less '
p1168
sS'MCACWWTJMALC'
p1169
g12
sS'ZUWGOKJQJGEY'
p1170
S'Gettysburg College Basketball and track'
p1171
sS'ZZGHXLYNUQND'
p1172
S"I'm like a lightbulb I light up the room when you turn me on and if you stand on me you'll end up in hospital"
p1173
sS'VLTGVVBCHBSV'
p1174
S'UoE Economics '
p1175
sS'VUMXCTDGZOZM'
p1176
g12
sS'SNJFOROUPQLI'
p1177
g12
sS'KZBQCQXWXMRG'
p1178
g12
sS'NWUBQYEZGUIA'
p1179
S'Edinburgh '
p1180
sS'UFHISUHSAEBI'
p1181
g12
sS'BQJIMBRJLGEX'
p1182
S"I'm a fucking punmeister Looking for a drinking partner  someone to take me to Rotato for a jacket potato "
p1183
sS'TGFVVLKYPCSK'
p1184
g12
sS'THOFTPJDJDIE'
p1185
g12
sS'UCQRAVFCYIBO'
p1186
S"I'm in love with David Attenborough "
p1187
sS'SPBBKRFRFOTC'
p1188
S"I'm a fucking punmeister Looking for a drinking partner  someone to take me to Rotato for a jacket potato "
p1189
sS'KMQCZIHJKHMZ'
p1190
g12
sS'ITGNIVAQPQSS'
p1191
g12
sS'IFGRNSQBGEVI'
p1192
g12
sS'GQYJQYPDNPVQ'
p1193
S'HK in Edinburgh '
p1194
sS'ABUNYDICXPVZ'
p1195
S''
p1196
sS'TTJSZPZERXIX'
p1197
S"I'm a fucking punmeister Looking for a drinking partner  someone to take me to Rotato for a jacket potato "
p1198
sS'BIIJFVLNHWUB'
p1199
S"I'm a fucking punmeister Looking for a drinking partner  someone to take me to Rotato for a jacket potato "
p1200
sS'KOZCTBLAYXOT'
p1201
S'French student  Internship in Edinburgh for  months'
p1202
sS'QORPSGSTLBZF'
p1203
S"I'm a fucking punmeister Looking for a drinking partner  someone to take me to Rotato for a jacket potato "
p1204
sS'JOOAANFYHWHA'
p1205
S"I'm in love with David Attenborough "
p1206
sS'KXYWYFBTDDYH'
p1207
g12
sS'FIFJSXXQSVSD'
p1208
S''
p1209
sS'FTZYKNLQNQOE'
p1210
S'Just happy Instagram louhunter'
p1211
sS'CFPMKCZQHFKN'
p1212
S''
p1213
sS'YVYFPMUQNYCU'
p1214
S'Journalism student Edinburgh'
p1215
sS'BTFQRUGRIMFX'
p1216
S'Student at Edinburgh University ScottishGamer on PS'
p1217
sS'JQDWXRHKEINB'
p1218
g12
sS'FZAJZXZBBMDM'
p1219
S' interested in human rights law and studying at UoE '
p1220
sS'SEBGNIJVPWOU'
p1221
S'psychology student at edinburgh uni bios are shit so just come chat to me ae '
p1222
sS'RRDYPRNFXVNB'
p1223
S''
p1224
sS'TZDJMMNAPVVA'
p1225
S'Farming girl    Snapchat  laurenlmoore '
p1226
sS'HGSWYOCRPJZS'
p1227
g12
sS'NBKIVXFGBAKV'
p1228
S"I'm a fucking punmeister Looking for a drinking partner  someone to take me to Rotato for a jacket potato "
p1229
sS'YQPUGNKMGAWI'
p1230
S'I study psychology at the University of Edinburgh and I like skiing and hiking Also enjoy reading pretty much anything scifi and too many tv series'
p1231
sS'SHZNCPHXIMZV'
p1232
S'Studying architecture at Edinburgh university Love to travel Big fan of silliness Terribly English Should never be allowed to drink at lunch'
p1233
sS'FZTFQKSPRHCL'
p1234
S'I am a vet nurse staying in Edinburgh Animals are better than people '
p1235
sS'VVHSZPCWTUBA'
p1236
S'Edinburgh and AberdeenStudying a useless degree and I love it Apparently I look like the crescent moon emojiWe should hang out '
p1237
sS'RSHPFYPNCHND'
p1238
S"EdinburghScottish ' redhead Not looking for a serious relationship Likes tall men uniforms beautiful women music dancing outdoors going out staying in watching Netflix being comfy getting dressed up laughing being spontaneous playing practical jokes tattoos  more I also have a very high sex drive bit of a wild child love house parties You only live once and I going to live it to the full so I'd love to find a few sexy people to join me and be my partners in crime "
p1239
sS'WAWAVANSLUSC'
p1240
S''
p1241
sS'OJTWSNBLJJSW'
p1242
S'HK in Edinburgh '
p1243
sS'PCDJVHRMMYFM'
p1244
S'EdinburghStranraer'
p1245
sS'NFXTOIRKCCGK'
p1246
S"Bulgarian working in Manchester  'Life isn't about waiting for the storm to pass it is about learning how to dance in the rain'"
p1247
sS'JSPNULPIGRJO'
p1248
S'Give me bestworst your chat up line '
p1249
sS'UNRVIVNNDKFA'
p1250
g12
sS'SPZCAQENZWLW'
p1251
g12
sS'UOHHGWPMNRMU'
p1252
S'insta  nateilatan'
p1253
sS'UDSYVNBTIWFS'
p1254
S'LondonEdinburgh Part time barmaid full time female UoE ArabicFrench'
p1255
sS'ZEXYHFLFXNSE'
p1256
S''
p1257
sS'RCSCMMWFXSZP'
p1258
g12
sS'EIGVMJCXPYUN'
p1259
S'hi im from perth  I love all sports especially horse riding and skiing'
p1260
sS'XKHUDQLLEHEY'
p1261
S''
p1262
sS'LRNKVVFIUHGC'
p1263
S''
p1264
sS'YWMPRLOXEHKF'
p1265
S''
p1266
sS'ZLQBQLWSEFRI'
p1267
S' loves Netflix any kind if music art books and moviesFrom the isle of Lewis originally but moved to Edinburgh to study Criminology at Napier universityTraditional Gaelic singer'
p1268
sS'DLQOVGRKUOPX'
p1269
g12
sS'HCGGJQMETMCL'
p1270
S''
p1271
sS'YEARRGYGFRUS'
p1272
g12
sS'XYRIBSRTWSWA'
p1273
g12
sS'GRUXTEJOVOZO'
p1274
g12
sS'GBZOPEZNMUDX'
p1275
S'Kenyan in Edinburgh Looking for some good chat '
p1276
sS'QSZEWPHLFUNI'
p1277
S"The goat on the rightWill always ask the DJ to play Kate Bush KNOPE As in 'nope keep swiping' but also Leslie KnopeBonus fact bigger than a monkey but smaller than most people"
p1278
sS'VEYPFXWOBQJZ'
p1279
S' '
p1280
sS'DNEFYTWEEPSR'
p1281
S"I'm a fucking punmeister Looking for a drinking partner  someone to take me to Rotato for a jacket potato "
p1282
sS'WZTPPXMSKZBH'
p1283
g12
sS'WVIQSDKPDTFU'
p1284
S'French student  Internship in Edinburgh for  months'
p1285
sS'WXJQUMGZOIBM'
p1286
S''
p1287
sS'DWKBQATCQHAP'
p1288
g12
sS'MVLZXDAJYEXZ'
p1289
S"your bloody mary's lacking in tabasco "
p1290
sS'EXHKHXQZWTFP'
p1291
S'Live in Edinburgh and work for the farm assurance office Go to young farmers and have had ponies since I was a toddler'
p1292
sS'VKBYDJQMUPBZ'
p1293
g12
sS'QYRDAZUPWUQC'
p1294
g12
sS'RWOZDYIUQAAS'
p1295
S"I'm a fucking punmeister Looking for a drinking partner  someone to take me to Rotato for a jacket potato "
p1296
sS'JGOPZBZQFCLZ'
p1297
S''
p1298
sS'BHSREMBASUEZ'
p1299
S''
p1300
sS'VOZBLYUXANHT'
p1301
S'Medic at Edinburgh '
p1302
sS'ACDEIFSTJBRH'
p1303
S'Medic at Edinburgh '
p1304
sS'UXKCSDYTIYAV'
p1305
S'Basel BrusselsI vibe Insta eleanorroseshortland'
p1306
sS'AVDKEVDJLKVN'
p1307
S'Edinburgh Instagram katiehmferguson '
p1308
sS'VEACMEQTOHKO'
p1309
S"I'm a fucking punmeister Looking for a drinking partner  someone to take me to Rotato for a jacket potato "
p1310
sS'KCEFOBQPDDNF'
p1311
S''
p1312
sS'FAABMJRJLQEU'
p1313
S'Studying Primary Teaching at Edinburgh uni '
p1314
sS'XGYCLKSGAOQG'
p1315
S'EdinburghStudying Nutrition and Food Science at QMUPlay rugby for Lismore WRFC '
p1316
sS'JXOKPFOJSZRO'
p1317
S'Metal Vikings gigs festivals and cats are my things  studying business with French  German in Edinburgh'
p1318
sS'DDYCDTBHBTVG'
p1319
S'Linguistics and Literature student                                                                 I speak Spanish                                                                                       Pizza and beer enthusiast                                                                        Bon Iver fangirl                                                                                    Cuddle slut  Just say hi '
p1320
sS'VTQRJMLZAXRE'
p1321
S'BelfastDundee  Law with German  RowerLifeguard '
p1322
sS'ZHGCFIEKURZA'
p1323
S'Edinburgh The less you reveal the more people wonder Insta gbrutherford'
p1324
sS'OEWEFNKQIOJW'
p1325
S'Edinburgh chick'
p1326
sS'XICHXDHBHXTQ'
p1327
g12
sS'SYOTCVEVSROI'
p1328
S'BCUWelsh '
p1329
sS'IPDQKCMTBKGZ'
p1330
S" Irish  and Living in Edinburgh accept the the things you can't changebe brave to change the things you canand be wise to know the difference"
p1331
sS'ZXPGLILRVETN'
p1332
S'Snapchat  ellebelle '
p1333
sS'AGQAHZGQJIGZ'
p1334
g12
sS'QZUDYAYUXXLT'
p1335
S''
p1336
sS'OIRBMAQZULSA'
p1337
S''
p1338
sS'USBTRQHWUWGJ'
p1339
S'Live on a farm in the middle of nowhere Fitness and game of thrones enthusiast with a mild peanut butter addiction Enjoy skiing baking weights training and attending young farmers shindigs If you dont appreciate a good game of monopoly we cant be friends  instagram emilynimmo facebook Emily Nimmo '
p1340
sS'POYDJEEPIIVH'
p1341
S"philosophy student at UoE avid jazz n folk loverif you don't like cats or cakes swipe left now "
p1342
sS'EHJCASEBPOFQ'
p1343
S' Edinburgh uni psychology student '
p1344
sS'ITPDQUEBIADJ'
p1345
g12
sS'CMQQHAXHIHTA'
p1346
S"I'm a fucking punmeister Looking for a drinking partner  someone to take me to Rotato for a jacket potato "
p1347
sS'CQKLENZWBIXG'
p1348
g12
sS'GSTIGRTLZAYD'
p1349
S'Business student at Edinburgh UniversityFrom Manchester'
p1350
sS'QWPFCFCOWKED'
p1351
S''
p1352
sS'SJJMNSVWJLGZ'
p1353
S"I'm a fucking punmeister Looking for a drinking partner  someone to take me to Rotato for a jacket potato "
p1354
sS'HZLWQMGKVDHM'
p1355
g12
sS'RSZRMJLXAATI'
p1356
S"Tinder c'est mon dada "
p1357
sS'ZTNVFVMAMZXU'
p1358
S"It's unfair that breakfast in bed is romantic but dinner in bed is a cry for help"
p1359
sS'GELTEPWPLIBH'
p1360
S''
p1361
sS'SYXLCGDUHKAZ'
p1362
g12
sS'MUIZGNZXYDTD'
p1363
S'Student nurse in Edinburgh '
p1364
sS'MRLWSXOBGBQR'
p1365
S'Business Student at the University of Edinburgh'
p1366
sS'UGAVVYDZCADW'
p1367
S"I'm a fucking punmeister Looking for a drinking partner  someone to take me to Rotato for a jacket potato "
p1368
sS'ZTJUURMWBEED'
p1369
S'Probably somewhere between ECA and my hometown of Oxford'
p1370
sS'MTVEJQPLIJFA'
p1371
S"Canadian gal who moved from the family igloo to haggis land I like binge watching breaking bad in bed being nocturnal camping the ocean rainy days hot drinks indie music and naps Let's get together throw a Catalina wine mixer and do activities Also I can name all  original Pokemon If that doesn't impress you I don't know what will Ps If you have a beard I will love u eva I'm so alone"
p1372
sS'MBZBSIFKGNAF'
p1373
S'Hi there '
p1374
sS'YGRHMHJXHAMZ'
p1375
S'student at HWU music and theatre lover singer and musician film fanatic globetrotter tattoo enthusiast can be quite a smartarse should you ever need oneThere is no i in TEAM but there is an i in PIE'
p1376
sS'SCGNDDEEMJSO'
p1377
S''
p1378
sS'JTWIGJAEPKJV'
p1379
g12
sS'MDDFYGSJBUQY'
p1380
S"' English Lit student at UoE"
p1381
sS'XHOERGINMKRI'
p1382
g12
sS'AMNUCDHCINDP'
p1383
S'Edinburgh chick'
p1384
sS'ABTOPLNIKFIE'
p1385
S"Loves to paint act and sing can't be bothered to make money outta them If you can't handle tattoos you can't handle me Rather dislike beards love tall tall guys and any height of girl Dying of the flu at the moment so I can appreciate the type of Netflix and chill where you feed me soup "
p1386
sS'KHJSZIRLHVFI'
p1387
g12
sS'XCQODUVAOYXB'
p1388
S"I'm a fucking punmeister Looking for a drinking partner  someone to take me to Rotato for a jacket potato "
p1389
sS'EFBRSMOPFJUQ'
p1390
S'Just Gin and bear it  DStudentEvents management  Not afraid to say hi first Genuinely nice '
p1391
sS'JSUCPIKJJKXA'
p1392
S'From Edinburgh Dundee Uni'
p1393
sS'GIBVIRLDPJFY'
p1394
g12
sS'IJXWRLSYSTXP'
p1395
S' University of Edinburgh for the year getting my MSc '
p1396
sS'HZRGKWNIYYPZ'
p1397
g12
sS'LQXHAZIOHQOC'
p1398
S'Bsc Hon in physics Back in Edinburgh after a year teaching in ShanghaiI missed Percy Pigs a lot Peanut butter NCIS and Jumpers'
p1399
sS'DUEUIRXWSFEY'
p1400
S"I'm a fucking punmeister Looking for a drinking partner  someone to take me to Rotato for a jacket potato "
p1401
sS'LCYAGMAZILLV'
p1402
S'English language student at Edinburgh Uni Like music and books and cooking and getting drunk'
p1403
sS'YQIRNLBVNSSK'
p1404
S'Half MalaysianHalf Scottish '
p1405
sS'MGAKXWIYNMNC'
p1406
S"Just want to travel Don't message first but will reply xYes I do have snapchat so just ask "
p1407
sS'LFQIZTPHUMAQ'
p1408
S"I'm a fucking punmeister Looking for a drinking partner  someone to take me to Rotato for a jacket potato "
p1409
sS'AHHKIWVZPTEL'
p1410
g12
sS'KBMOPLXIUIMW'
p1411
g12
sS'UCGWXRVFOVZO'
p1412
S"I'm a fucking punmeister Looking for a drinking partner  someone to take me to Rotato for a jacket potato "
p1413
sS'FXXOJXYMGQEF'
p1414
S"I'm a fucking punmeister Looking for a drinking partner  someone to take me to Rotato for a jacket potato "
p1415
sS'IRYNKIPPPYRI'
p1416
S'Studying in Edinburgh Belgian lived in Dubai Simply love traveling '
p1417
sS'TJPEEQRCMHVH'
p1418
g12
sS'WNASVDUUWVHN'
p1419
S'Ig sofiaellenadolfina snap sofiadolfina floorball'
p1420
sS'MUAWONUUPCNX'
p1421
S'EdinburghMy hobbies include Netflix  Chill minesweeping drinks in George Street nightclubs and taking romantic walks with you to the cash machine'
p1422
sS'PBIMEDLJCDLV'
p1423
g12
sS'QDNRXMTXFUCA'
p1424
S"Hi  I'm nd year at Edinburgh uni studying German and History would love to meet someone I could speak German with I love to dance Lindy hop Balboa and Blues  I am intelligent feminist and love to talk music and history as well as general randomness Think Asdf and Monty Python"
p1425
sS'YLUXJCCFLXNB'
p1426
S"I'm a fucking punmeister Looking for a drinking partner  someone to take me to Rotato for a jacket potato "
p1427
sS'JGHNQWDUXDJO'
p1428
g12
sS'PWOBXUWPUFKM'
p1429
S"I don't know why the photos are up more than once Instagram amberpNewly blondeIf you like girls with tattoos and a dirty sense of humour I'm your girlI'm also a mum he's  just in case you hate children he's my best friend and I love him even more than bacon Happy Swiping "
p1430
sS'FCTCAACLQOHY'
p1431
g12
sS'DHIKHSWTAPJI'
p1432
S"I'm a fucking punmeister Looking for a drinking partner  someone to take me to Rotato for a jacket potato "
p1433
sS'MAJICCBWHYCE'
p1434
S'Edinburgh  Psychology StudentBartender Travelling '
p1435
sS'NJVPAYFVUQCE'
p1436
g12
sS'TYZGFTZMXZWB'
p1437
S"I'm a fucking punmeister Looking for a drinking partner  someone to take me to Rotato for a jacket potato "
p1438
sS'GOGLKRPCMSJM'
p1439
S''
p1440
sS'MDNIHHZDEWHU'
p1441
g12
sS'BEAUUJWHVNXO'
p1442
S''
p1443
sS'RMCBOPHPCQGX'
p1444
S''
p1445
sS'XUIBLHXRZDXQ'
p1446
S'Forresedinburgh Criminology at Napier '
p1447
sS'JBJBHFKXTIFZ'
p1448
S"I'm a fucking punmeister Looking for a drinking partner  someone to take me to Rotato for a jacket potato "
p1449
sS'YXEFCZCEGGPL'
p1450
S''
p1451
sS'KHUTDFJLHAZL'
p1452
S''
p1453
sS'AQLUYWXDKWOD'
p1454
S''
p1455
sS'BHQJLQQXUYLD'
p1456
S'Norwegian   Student '
p1457
sS'CJIMXNDDIIBJ'
p1458
S'Edin Uni rd Year'
p1459
sS'JGJXTJLRHFDD'
p1460
S'Living and studying in Edinburgh '
p1461
sS'PXFLARPDAKNN'
p1462
S"Weybridge  SurreyPortsmouth UniElegant trippy chaotic flavourAbout meExtremely fond of facials and hair and facial hair Great at giving head Massages I love gin Apologies my Instagram doesn't have endless amount of selfies but there is the odd one in there to prove I'm a solid "
p1463
sS'BYUWEBYBYZIC'
p1464
g12
sS'SRAVZLBZMCXG'
p1465
S"EdinburghScottish ' redhead Not looking for a serious relationship Likes tall men uniforms beautiful women music dancing outdoors going out staying in watching Netflix being comfy getting dressed up laughing being spontaneous playing practical jokes tattoos  more I also have a very high sex drive bit of a wild child love house parties You only live once and I going to live it to the full so I'd love to find a few sexy people to join me and be my partners in crime "
p1466
sS'TJKNSEXAYYLZ'
p1467
g12
sS'FCUJBNMALNVH'
p1468
S"I'm a fucking punmeister Looking for a drinking partner  someone to take me to Rotato for a jacket potato "
p1469
sS'HTPPSRMMOWNV'
p1470
g12
sS'UKBEOKFATBQU'
p1471
S"I'm a fucking punmeister Looking for a drinking partner  someone to take me to Rotato for a jacket potato "
p1472
sS'LEFNHGJPNAYC'
p1473
S'Undefeated Lord of the Rings trivia championActresswhisky enthusiast'
p1474
sS'SGMDKRDTEZRJ'
p1475
S"I'm a fucking punmeister Looking for a drinking partner  someone to take me to Rotato for a jacket potato "
p1476
sS'AMQAMYGQFKAB'
p1477
g12
sS'JMRKPUGNWZWA'
p1478
S"I'm a fucking punmeister Looking for a drinking partner  someone to take me to Rotato for a jacket potato "
p1479
sS'ICXLGVNZJQDL'
p1480
g12
sS'QSPYUIOSYMPY'
p1481
S' Medical sciences studentEdinbrah Looking for a soulmate obvz'
p1482
sS'EHWWTEIDAHBH'
p1483
S'media student at qmu  full time alcohol enthusiast '
p1484
sS'ICMBSIIDHVQP'
p1485
S''
p1486
sS'WKRWIWTIBLYA'
p1487
g12
sS'MPGUPJCXJWKO'
p1488
g12
sS'WKTYFGYGHNOI'
p1489
S"Just an American girl livin' in an Edi world Yeah I usually make bad jokes "
p1490
sS'GVORHEIZWDQI'
p1491
S"I'm a fucking punmeister Looking for a drinking partner  someone to take me to Rotato for a jacket potato "
p1492
sS'WRXCVWPKGDSH'
p1493
S''
p1494
sS'MUBSSPSAFWXX'
p1495
S'Love sports love travels'
p1496
sS'VDDNVSKKPWQG'
p1497
S"I'm a fucking punmeister Looking for a drinking partner  someone to take me to Rotato for a jacket potato "
p1498
sS'ULLXVFYGTCEM'
p1499
S'Lacking balls and panache since '
p1500
sS'EWMHLNHUHUHB'
p1501
S"studying abroadfrom LA Environmental Engineering ' talk nerdy to me "
p1502
sS'USHSEBOODVXK'
p1503
S"Travel obsessed pierced and inked After working in Romania Madagascar and Nepal I'm spending some time at home in Edinburgh to focus on my dance career and work out what the hell I'm doing with my life If you've heard of The LaFontaines we can probably be friends"
p1504
sS'BNCBDRQPVGVD'
p1505
S'I love footballgym i work as a hairdresser and accountant '
p1506
sS'ZWLPDXBRSSFU'
p1507
S"Hi Norwegian studying physiotherapy in EdinburghMusic  footballI'm looking for someone with a PS or Xbox with COD so I can come over and shoot something "
p1508
sS'TQQGTWKMMTBH'
p1509
S'Love sports love travels'
p1510
sS'HXADZCZAWBDW'
p1511
g12
sS'XNHTRINKFFNM'
p1512
S'Live in Edinburgh and work for the farm assurance office Go to young farmers and have had ponies since I was a toddler'
p1513
sS'WBNOAOVUGBNI'
p1514
g12
sS'QOBLBGLKSEUM'
p1515
S''
p1516
sS'SLLSBXXIIANO'
p1517
S'ChesterEdinburghnd year vet medGenuinely want to meet my husband on here'
p1518
sS'LJZKMWHVVMKL'
p1519
S'Irish living in Edinburgh '
p1520
sS'LDDIJTKALVGF'
p1521
g12
sS'TGEEEXKSEUDF'
p1522
g12
sS'URSGBJRZCOAW'
p1523
S'Edinburgh Uni  Cambridge '
p1524
sS'TQWIIYZTDPJD'
p1525
S'english lit studenti like people places and thingsthe kind of girl you could take home to meet your parents until your dad inevitably leaves your mum to be with me instead '
p1526
sS'PADTRYCMBBSV'
p1527
S'USA University of Edinburgh Postgrad I like a side of vodka with my orange juice at breakfast Netflix connoisseur Talk nerdy to me   '
p1528
sS'QOTLKJLKNMWM'
p1529
S"Don't take yourself too seriously "
p1530
sS'UAGNEROCRGXV'
p1531
S"I'm a fucking punmeister Looking for a drinking partner  someone to take me to Rotato for a jacket potato "
p1532
sS'UPJMOGSGOVWI'
p1533
S'Welsh girl usually based in Edinburgh work in marketing gym promotions constantly travelling Work between US and UK'
p1534
sS'XTRJSFIOYZPO'
p1535
S''
p1536
sS'GRSBXUGJSFIA'
p1537
S''
p1538
sS'DGSASWZGRCPL'
p1539
S'nd year design student living in Edinburgh from Glasgow  love an adventure friends and gin'
p1540
sS'TIQEIIUPVNHX'
p1541
g12
sS'ZHSWWKXUKUSA'
p1542
S'McGill Faculty of Law Living in Edinburgh Scotland until June I live to travel'
p1543
sS'RXNRKMOXYBEQ'
p1544
g12
sS'XAXBEKMXSHPO'
p1545
S''
p1546
sS'GIXJBHDLJPLR'
p1547
S'An English girl living in Scotland and studying PhilosophyPolitics at Edinburgh nd yearYorkshire born'
p1548
sS'ARWXDWBVAJVI'
p1549
S''
p1550
sS'KRETGWJIJVYO'
p1551
S''
p1552
sS'IXFWHAPGLHLW'
p1553
S''
p1554
sS'RSZSZIEMWJEQ'
p1555
S"I'm a fucking punmeister Looking for a drinking partner  someone to take me to Rotato for a jacket potato "
p1556
sS'OWUHLTWZWTVX'
p1557
S' not Snapchatt amylownieee '
p1558
sS'GWECCFQFRIXH'
p1559
g12
sS'DVJQRZQTYBLO'
p1560
S'RGU graduate new to Edinburgh '
p1561
sS'YMXCICNQAJNW'
p1562
S"Hi  I'm nd year at Edinburgh uni studying German and History would love to meet someone I could speak German with I love to dance Lindy hop Balboa and Blues  I am intelligent feminist and love to talk music and history as well as general randomness Think Asdf and Monty Python"
p1563
sS'MIGIEZVDDPJX'
p1564
g12
sS'HLSNOCWKYETA'
p1565
g12
sS'TWDSKQURZVWF'
p1566
S''
p1567
sS'MXIESSGHCTEJ'
p1568
S'soft indie grunge'
p1569
sS'FMXIZUGGMTZH'
p1570
g12
sS'ZFBLHLIUHTDE'
p1571
S'Live in Edinburgh studying drama                                     Snapchat  leahmac'
p1572
sS'PXBKKNFLCUFL'
p1573
S'Books   films  Netflix  walks  museums  galleries  teacake  baking'
p1574
sS'LCHEJKZCZRVQ'
p1575
S"I'm a fucking punmeister Looking for a drinking partner  someone to take me to Rotato for a jacket potato "
p1576
sS'CZXSOEEUSHIO'
p1577
S' '
p1578
sS'BJETKWWDUQXU'
p1579
S"If I had a pound for every time someone asked me if my hair was naturally ginger I'd have nothing No one talks to me "
p1580
sS'PQASHGIJYVIG'
p1581
S'Edinburgh'
p1582
sS'FATHRLTFLANU'
p1583
S'Last year of uni  Speak a few languages Love to dance Can salsa and bachataLove cookingWork in retail and training on the sideHoping to be an officer soon '
p1584
sS'AYLKQVYJNODL'
p1585
S'Studying law and French at the University of Edinburgh'
p1586
sS'NWPRVRHMUJTU'
p1587
g12
sS'IBHYIBNEPTSB'
p1588
S"I'm a th year student in edinburgh  I love travelling and sports As Lorelei would say I stop drinking coffee I stop doing the standing and walking and the wordsputtingintosentence doingI will always cheer for Germany or Bayern Munich in football so don't try to convince me otherwise and yes football not soccerNo I am not on tinder for one nightstands so you might as well swipe left"
p1589
sS'LUGKFGJXMASA'
p1590
S"I'm a fucking punmeister Looking for a drinking partner  someone to take me to Rotato for a jacket potato "
p1591
sS'WIDGEUJESJIA'
p1592
S''
p1593
sS'FSVQBCDNCMMJ'
p1594
S''
p1595
sS'IWWULFJAPHCE'
p1596
g12
sS'QBQNVVITQDHB'
p1597
S''
p1598
sS'JCLCDXRLNPYZ'
p1599
S' '
p1600
sS'YLZDPDUCXGXB'
p1601
S'I like dogs more than people'
p1602
sS'DMISRKMLDKKC'
p1603
g12
sS'TMMWBASEVPUH'
p1604
S'Laughter is the best medicine Jayac is so amazingsexy D  I will not kill him if I find this'
p1605
sS'KSJBEVIYRTDM'
p1606
S'I love fiddle folk and French and alliteration '
p1607
sS'OKIASONVZGZS'
p1608
g12
sS'BVAMVXGUASNZ'
p1609
g12
sS'XVRNCNOSXNEF'
p1610
g12
sS'UULKZSTWITPZ'
p1611
S''
p1612
sS'QTYBVLRCKVUX'
p1613
S'Kenyan in Edinburgh Looking for some good chat '
p1614
sS'VBFQPOQLPNUZ'
p1615
S'Studying chemical physics at Edinburgh uni Bilingual and love to travel for real though'
p1616
sS'FUGPFUXJIRDZ'
p1617
g12
sS'UESJIQQZJJBE'
p1618
S''
p1619
sS'LGFEMWKMAWPP'
p1620
S"Not   next month lolJust on here to speak to people at the moment really unwell just now and anything more really doesn't interest me sorry to be a bore"
p1621
sS'HUCTAHAHAOWX'
p1622
S"I'm a fucking punmeister Looking for a drinking partner  someone to take me to Rotato for a jacket potato "
p1623
sS'RJKPNBIOBWLJ'
p1624
g12
sS'PSNTXRXUKOHQ'
p1625
S''
p1626
sS'RQFNXGBBMQAT'
p1627
S'German studying in the Netherlands on exchange in the UK'
p1628
sS'KBGLLUFNADPR'
p1629
S'Chemistry student at University of EdinburghLove my dug more than anyone else '
p1630
sS'OGFKSZNGUBAI'
p1631
S'RGU graduate new to Edinburgh '
p1632
sS'XDRGVUEUTIHX'
p1633
S'tattoos  piercingscatsTaylor Swift is God'
p1634
sS'DJUVYFPPPLAK'
p1635
S'edinburghfootballlaw student '
p1636
sS'OHZBSZPJBHLD'
p1637
S'Edinburgh Instagram katiehmferguson '
p1638
sS'ODQMWOCBMRXV'
p1639
S''
p1640
sS'WUPQBNNMKPTB'
p1641
S"I'm a fucking punmeister Looking for a drinking partner  someone to take me to Rotato for a jacket potato "
p1642
sS'IHUCNCYMVROS'
p1643
g12
sS'IOZYYHTWXJMC'
p1644
g12
sS'OOMJDSKGNUJU'
p1645
S"Half Turkish festival and events student  bartender in Edinburgh steak connoisseur and gaming addict  aim to organise E one day  Little lass in the pool is my cousin ain't she a sweetie  oh also guys that have 'netflix' in their bios can u not "
p1646
sS'JIGZSAEBYMPX'
p1647
S' Half Italian Edinburgh'
p1648
sS'FIIZBEXPAUWW'
p1649
g12
sS'CBOKGSMWLCGZ'
p1650
g12
sS'USDVIZZXZNQN'
p1651
g12
sS'GHBQJAZOGSKB'
p1652
S"I'm a fucking punmeister Looking for a drinking partner  someone to take me to Rotato for a jacket potato "
p1653
sS'RJFRNZUKPXRH'
p1654
g12
sS'LMPAAXLEYFDU'
p1655
g12
sS'MZEXELUYQNZU'
p1656
S'Bsc Hon in physics Back in Edinburgh after a year teaching in ShanghaiI missed Percy Pigs a lot Peanut butter NCIS and Jumpers'
p1657
sS'WEAQCETWCFQQ'
p1658
S"I'm a fucking punmeister Looking for a drinking partner  someone to take me to Rotato for a jacket potato "
p1659
sS'PZKSFAXCCJYB'
p1660
S"I'm studying chemical engineering at Edinburgh I like to communicate using sounds rather than words sometimes"
p1661
sS'OWAAGZNOBOVR'
p1662
S"Edinburgh Law GraduateJack Daniels enthusiast' on a good hair dayHobbies include trying to get less awful at guitar and watching disney movies in the bathInstagram ines"
p1663
sS'PFMZJESNMOTB'
p1664
S'Living and studying in Edinburgh '
p1665
sS'VNAPMRCWUJKP'
p1666
S"I'm a fucking punmeister Looking for a drinking partner  someone to take me to Rotato for a jacket potato "
p1667
sS'WUVDLEJJGCBH'
p1668
S"I'm a fucking punmeister Looking for a drinking partner  someone to take me to Rotato for a jacket potato "
p1669
sS'ILWOTFCWCJZN'
p1670
S'German Lives in Singapore moving to Edinburgh Hit me up '
p1671
sS'WCSEAFOCYNFI'
p1672
S"Drummer English geek and the one on the left pulling the stupid face Decided Yorkshire wasn't quite cold enough so shall be heading up to Edinburgh Uni in September"
p1673
sS'JXWCWUKVVHRW'
p1674
S''
p1675
sS'LGOWBJBXSWBL'
p1676
S"I'm a fucking punmeister Looking for a drinking partner  someone to take me to Rotato for a jacket potato "
p1677
sS'VZNMHFCLXSUN'
p1678
g12
sS'JQWLSAVZHRRM'
p1679
S"My busyness is to create Doesn't even matter what  "
p1680
sS'PQRWESDHBAJX'
p1681
g12
sS'IQRFOKMQHRHG'
p1682
S'From Edinburgh  Snapchat ashleighx'
p1683
sS'WIHEYXQMZLNV'
p1684
g12
sS'KOZTAWZGQODP'
p1685
S"I'm a fucking punmeister Looking for a drinking partner  someone to take me to Rotato for a jacket potato "
p1686
sS'CUQRMWQVRFKR'
p1687
S"I'm a fucking punmeister Looking for a drinking partner  someone to take me to Rotato for a jacket potato "
p1688
sS'AJQHRNNYOJUA'
p1689
g12
sS'KWUZLOWYIROM'
p1690
g12
sS'DJQSSFMPOZJB'
p1691
S"I'm a fucking punmeister Looking for a drinking partner  someone to take me to Rotato for a jacket potato "
p1692
sS'AHBLPPFSKLPI'
p1693
S'soft indie grunge'
p1694
sS'ZTXQYAULXNMU'
p1695
S'Gym  Dance  Cook  Bake  Love  Travel  Be crazy  Be happyPeople should smile more Personal Trainer Student'
p1696
sS'LGAHUQXGWMDP'
p1697
g12
sS'MPEHLLXVOOLA'
p1698
S'UoE Economics '
p1699
sS'LUNUHBHBIIHL'
p1700
g12
sS'ESZLIENWOPZC'
p1701
S'edinburghfootballlaw student '
p1702
sS'YJLZEINUKESE'
p1703
g12
sS'GDVSCYWLIBGH'
p1704
S'snapchat claudiamoran'
p1705
sS'EEQEIKJGFNAI'
p1706
g12
sS'HVYXSEGPSAEW'
p1707
g12
sS'OOKLLNJNUEDN'
p1708
g12
sS'IQASGNYGOKLI'
p1709
S'Live on a farm in the middle of nowhere Fitness and game of thrones enthusiast with a mild peanut butter addiction Enjoy skiing baking weights training and attending young farmers shindigs If you dont appreciate a good game of monopoly we cant be friends  instagram emilynimmo facebook Emily Nimmo '
p1710
sS'TNVKUXDQSTHO'
p1711
S"I'm a fucking punmeister Looking for a drinking partner  someone to take me to Rotato for a jacket potato "
p1712
sS'LWWBIAXCGKAT'
p1713
S"I'm a fucking punmeister Looking for a drinking partner  someone to take me to Rotato for a jacket potato "
p1714
sS'MXPGARWFZKYG'
p1715
S'Half Hong Kong half Scottish  ex firefighter and now studying accounting  just moved to Edinburgh '
p1716
sS'IWBOHYHCWABS'
p1717
S''
p1718
sS'FKWFKLWCCRQD'
p1719
S'Edinburgh UniBeen stuck on the last level of snail mail for  years HelpSometimes I put paper in the general waste '
p1720
sS'KTJTHGTPWUQK'
p1721
g12
sS'DHLIFXNBXOKL'
p1722
g12
sS'MKMAJDSFMEDS'
p1723
S"I'm a fucking punmeister Looking for a drinking partner  someone to take me to Rotato for a jacket potato "
p1724
sS'ALWYTHKHZCTY'
p1725
g12
sS'UQNKBXZZXCQR'
p1726
S'Edinburgh uni '
p1727
sS'TJRMBTYUCEQB'
p1728
S'Business student living it up in the big city '
p1729
sS'MXIDWJNBTRGU'
p1730
S"I'm a fucking punmeister Looking for a drinking partner  someone to take me to Rotato for a jacket potato "
p1731
sS'BWCBOKSUPSOI'
p1732
S'Welsh girl usually based in Edinburgh work in marketing gym promotions constantly travelling Work between US and UK'
p1733
sS'TKIOWQMZKJGD'
p1734
g12
sS'RETPLSKVUOTI'
p1735
S' '
p1736
sS'UZZEUMWDQBAJ'
p1737
S"Environmental student that's a bit of a film nerd "
p1738
sS'UKGQPNLKYLCS'
p1739
g12
sS'DVYZOTYBEHBD'
p1740
S''
p1741
sS'FWALZABYXEEK'
p1742
g12
sS'EUEQBZELUNLF'
p1743
S'student at HWU music and theatre lover singer and musician film fanatic globetrotter tattoo enthusiast can be quite a smartarse should you ever need oneThere is no i in TEAM but there is an i in PIE'
p1744
sS'CTCKUOCEIEQP'
p1745
S'Snapchat chanteelleex '
p1746
sS'PYJTJDACEUWE'
p1747
S'Physics Edinburgh '
p1748
sS'KUYBRCLZANSL'
p1749
S''
p1750
sS'UDGHXRVQDJQW'
p1751
S''
p1752
sS'EBIXCCBPLMRD'
p1753
g12
sS'JZWYPPJKFOAI'
p1754
S'Just meeting new people Nothing more nothing less '
p1755
sS'GXHSOFFOSJRN'
p1756
S'Edinburgh Snapchat  nevadaxFacebook  Nevada Fitzner '
p1757
sS'TJQSXWTBUEWM'
p1758
S"Lover of puns and good literature st year English Language and Literature at Uni of Edinburgh  I live off folkindie rock and dancing wildly to whatever I'm listening to I enjoy embarrassing my friends by dancing in public I also review artsy things and have a strong penchant for Internet shopping"
p1759
sS'AUOVHVABUCTH'
p1760
S'GlasgowEdinburgh '
p1761
sS'HXVJWJYSVXZX'
p1762
S"I'm a fucking punmeister Looking for a drinking partner  someone to take me to Rotato for a jacket potato "
p1763
sS'MCFHIVEROUVH'
p1764
g12
sS'YUIYSEGBECBP'
p1765
S'London  Edinburgh'
p1766
sS'RIOTBJSQVPIE'
p1767
S"' English Lit student at UoE"
p1768
sS'PVSVPNCNKQTF'
p1769
g12
sS'ROWSRANWAKOR'
p1770
S"I like spending time with friends and family going out for dinner going to the cinema and cooking I've done ice skating since I was a little and like playingwatching most sports "
p1771
sS'VAQBTDEUEDRP'
p1772
S'A firm believer that hangovers should not be dealt with aloneGeordie girl '
p1773
sS'KCITTLMNWDAO'
p1774
S'Student  Cheerleader  My favourite things are Ice Hockey and Event Planning Twitter  JenIsabellaxx'
p1775
sS'YGVZEXKWBEKS'
p1776
g12
sS'VKTMHMVJSQRA'
p1777
g12
sS'IUTDSQDXKFJN'
p1778
S'Edinburgh Uni PE teaching Dive coach too '
p1779
sS'HCRMHMPNHDUL'
p1780
S'Student  Cheerleader  My favourite things are Ice Hockey and Event Planning Twitter  JenIsabellaxx'
p1781
sS'EXQTUKGOKXEM'
p1782
S''
p1783
sS'RVKIFYLOHARQ'
p1784
S'edinburgh uni student tottenham hotspur fan dog personi like good grammar and cheesey chatup lines'
p1785
sS'HTDJETDAYQLR'
p1786
S"I'm a fucking punmeister Looking for a drinking partner  someone to take me to Rotato for a jacket potato "
p1787
sS'HZRXPIBRVLUI'
p1788
S''
p1789
sS'TOYDNWPIZAFH'
p1790
S'Edinburgh Allergic to cats and bullshit Please give me none '
p1791
sS'YOPGQTOHHFLS'
p1792
g12
sS'BKQQUFUIMZJO'
p1793
S"I'm a fucking punmeister Looking for a drinking partner  someone to take me to Rotato for a jacket potato "
p1794
sS'JFXOKAEVTDHW'
p1795
S''
p1796
sS'ASBIMVZPERSR'
p1797
g12
sS'HILRLHCXDNWF'
p1798
S''
p1799
sS'JBOYUNQHMMMG'
p1800
g12
sS'AHZYBTEDGFHT'
p1801
S'Australian fugitive on the run in Edinburgh graceless'
p1802
sS'VRDSFUBWSXEG'
p1803
S'Radiography student Edinburgh '
p1804
sS'WKLGJCTRLBAR'
p1805
S"I'm a daydreamer and a nightthinker aka I go to bed at about am most nightsnd year theatre and film student  big tea lover and Christmas obsessedI'm not the kinda girl you will meet in a club I like hanging out in my flat or going out to a pub with my friends Slytherin and proud  I write scripts in my free time and I spend a lot of time with my friends who are all massive geeksnerds what ever you call them who I mum  but they keep me laughing which I love  "
p1806
sS'RXTXLDRSYJMS'
p1807
g12
sS'KVONIALDXOFN'
p1808
S"I'm a fucking punmeister Looking for a drinking partner  someone to take me to Rotato for a jacket potato "
p1809
sS'CTZHUCHFJDHB'
p1810
S''
p1811
sS'JWRLUJMXAZGE'
p1812
S'A firm believer that hangovers should not be dealt with aloneGeordie girl '
p1813
sS'TWSWKTRMNWUA'
p1814
S'Make me laugh '
p1815
sS'RGEUDNGEWDMT'
p1816
S'Art student at ECA Fancy dress is the way forward '
p1817
sS'QHSJGYLZMLHA'
p1818
S''
p1819
sS'VWZYZBBEGAUQ'
p1820
g12
sS'DDMHMNAKCQJZ'
p1821
S'EdinburghTattoosSnapchat hollihunterx'
p1822
sS'UZXOQUWEASYH'
p1823
g12
sS'HNLHFBHLQRPG'
p1824
S''
p1825
sS'LFWEBALHWOZH'
p1826
S"I'm a fucking punmeister Looking for a drinking partner  someone to take me to Rotato for a jacket potato "
p1827
sS'JKCMXGLGVACQ'
p1828
g12
sS'LLLOSLWZAFRU'
p1829
g12
sS'DTNCGXEJQAXF'
p1830
S"I'm a fucking punmeister Looking for a drinking partner  someone to take me to Rotato for a jacket potato "
p1831
sS'LJCAMKQRDVJC'
p1832
g12
sS'YWOLZGOEJIRS'
p1833
S"I'm a fucking punmeister Looking for a drinking partner  someone to take me to Rotato for a jacket potato "
p1834
sS'GMSQBQOPGQBY'
p1835
S"I AM NOT A PSYCHO'I'm  and Looking for someone who wants to drink some beers and will let me use their bath"
p1836
sS'LLHOEFPHFLLK'
p1837
S''
p1838
sS'UJKWOPGZOYVW'
p1839
S'Studying at Edinburgh for the semester'
p1840
sS'PYOUDWIYRPDS'
p1841
S''
p1842
sS'YEYKIANGXIUH'
p1843
g12
sS'DRZOWQIZQWDW'
p1844
S'Fine Art MA  ECA Brummie born and bred My neighbors think my accent is hilarious Instagram mollyhk'
p1845
sS'JYFZIHXCMAGI'
p1846
S''
p1847
sS'FRMABJCDLQLL'
p1848
S''
p1849
sS'JNCRXJNRBOIH'
p1850
S'Edinburgh '
p1851
sS'ODEQIJQEVVXV'
p1852
S'Indian classical dancer who gets Marx'
p1853
sS'EGABCUNXGZFW'
p1854
S'Snap me  Sarahwilson '
p1855
sS'NCFKZJYOSBWW'
p1856
S''
p1857
sS'YRYJDIODFRMC'
p1858
S'E D I N B U R G HSnapchat jessmcgovernx'
p1859
sS'UVFIEAVRSAUM'
p1860
S'From EdinburghTechnical Theatre student in GlasgowEasy going and cheery but apparently  can be to honest for my own good sometimes'
p1861
sS'OGUPQINUQLZF'
p1862
S'I enjoy a nicely packed bowl placed on top of a bong Plainfield IL USA Let me be your American sweetheart Edinburgh for the next  weeks Lots to see drink smoke and explore here '
p1863
sS'MBZEPKXQFNTF'
p1864
S"Katie  Born and bread in North Yorkshire  I'm studying Anthropology at The University of Edinburgh I love music more than anything I drink a lot of tequila I am also a vegetarian  "
p1865
sS'GGRUYLXGCXKZ'
p1866
S'Business student living it up in the big city '
p1867
sS'KJTGOKNXWHTS'
p1868
S'German studying in the Netherlands on exchange in the UK'
p1869
sS'WSTGRGFAWKOS'
p1870
S''
p1871
sS'PUVFKWUZBDDI'
p1872
S'nd year law student at the university of edinburghvegetarianwine and gigs are my favouritei play guitarIG  tanyawalterss'
p1873
sS'ZPHICPHARSMJ'
p1874
g12
sS'GGZTYKMSZTUA'
p1875
S"Call me on    I study history so I'm great with dates "
p1876
sS'JNPLOJESZYEN'
p1877
g12
sS'DRRNQYIJXBCE'
p1878
S'UoESailing singing drinking socialising etc '
p1879
sS'AWUMQWXFABRM'
p1880
S''
p1881
sS'PHLEIBYKETOD'
p1882
g12
sS'TBRSCEVUUVQE'
p1883
S"Half Turkish festival and events student  bartender in Edinburgh steak connoisseur and gaming addict  aim to organise E one day  Little lass in the pool is my cousin ain't she a sweetie  oh also guys that have 'netflix' in their bios can u not "
p1884
sS'MXSRCBGHULNG'
p1885
g12
sS'QCFZGSKXLSWJ'
p1886
S"I'm a fucking punmeister Looking for a drinking partner  someone to take me to Rotato for a jacket potato "
p1887
sS'VVZGFINARMXG'
p1888
S'Edinburgh Uni  PE'
p1889
sS'EFLIKEGJKXQS'
p1890
S'From Edinburgh  Snapchat ashleighx'
p1891
sS'QZCKGQGMVDWM'
p1892
S' Illustration student Foodie Guernsey  Singapore Living in Edinburgh  '
p1893
sS'AHRJESQNLPWF'
p1894
S'Instagram  eloiseevans '
p1895
sS'HBVVGPKIIMPM'
p1896
S''
p1897
sS'FFVIRTZFVQIS'
p1898
S'Student nurse in Edinburgh '
p1899
sS'SANWPZHTMLVZ'
p1900
S'Indian classical dancer who gets Marx'
p1901
sS'HBSDJDVXDYMT'
p1902
S'Instagram  ejfieldxDo you ever drive on the motorway and see someone fit and wish you could give them your number somehow'
p1903
sS'LRGWTWAMKYPV'
p1904
S' '
p1905
sS'TJLHVQLGDYND'
p1906
S'Yvonne tes bonneUSA to UK '
p1907
sS'GFLPZEJBRNML'
p1908
S"I'm a fucking punmeister Looking for a drinking partner  someone to take me to Rotato for a jacket potato "
p1909
sS'WCQGEDJWJDUE'
p1910
S' Illustration student Foodie Guernsey  Singapore Living in Edinburgh  '
p1911
sS'ILYCHIAEEMCB'
p1912
g12
sS'MNGRUAWFDSZM'
p1913
S''
p1914
sS'QATXWFGVPGKE'
p1915
S''
p1916
sS'FODAAYZQTHAC'
p1917
S"Not   next month lolJust on here to speak to people at the moment really unwell just now and anything more really doesn't interest me sorry to be a bore"
p1918
sS'IKFJGZLFSJGV'
p1919
S'Edinburgh UniBeen stuck on the last level of snail mail for  years HelpSometimes I put paper in the general waste '
p1920
sS'EWYHWUPNXQYN'
p1921
g12
sS'FKFVSLDZUIWI'
p1922
S''
p1923
sS'KIUGODRSBJKJ'
p1924
g12
sS'RQTCPURSLNQA'
p1925
S'From Glasgow studying in EdinburghArt student  th yearBit of a movie geekGot a motorbike Giraffes are kinda my thing '
p1926
sS'NBARSETXVLZX'
p1927
S"I'm a fucking punmeister Looking for a drinking partner  someone to take me to Rotato for a jacket potato "
p1928
sS'JTCBLIACUHRG'
p1929
g12
sS'DBCMKHQWNOQZ'
p1930
S''
p1931
s.