(dp0
S'NLPEVNMHYQZD'
p1
S"I'm a fucking punmeister Looking for a drinking partner  someone to take me to Rotato for a jacket potato "
p2
sS'OMVTNWLZREYJ'
p3
S'Business Student in Edinburgh '
p4
sS'OUSJPXCUEJON'
p5
S'Irish lassie studying medicine at Edinburgh uni Anything you wana know just ask  '
p6
sS'GMEDJVHXJCDB'
p7
S'PE Student at University of EdinburghTwitter  KaraMillerInstagram  karamiller'
p8
sS'JMZLQKRLQFMB'
p9
S"With his shitty mother Who let's face it doesn't think you're smart enough Pretty Let's face it doesn't think you're pretty enough Because no one is No one ever will beI tried to send something sexy to your house but the mailman told me to get out of the mail boxI have seen every Disney animated movie madeApparently I have a sophisticated mindPartial to festive hot chocolateI startle easilyMusic business studentI enjoy crappy pickup lines and punsAvid movie watcher"
p10
sS'DPYSJWFIGEZU'
p11
S'Studio Assistant and Postgraduate Student'
p12
sS'TNVBEWMRQZEM'
p13
S"Vet student at Edinburgh UniLover of films books a good night out and singing in the showerIf you don't love dogs there's probably no point"
p14
sS'AFDDOCWWWLPH'
p15
S'Edinburgh'
p16
sS'GJVLZLUEWIHH'
p17
S"With his shitty mother Who let's face it doesn't think you're smart enough Pretty Let's face it doesn't think you're pretty enough Because no one is No one ever will beI tried to send something sexy to your house but the mailman told me to get out of the mail boxI have seen every Disney animated movie madeApparently I have a sophisticated mindPartial to festive hot chocolateI startle easilyMusic business studentI enjoy crappy pickup lines and punsAvid movie watcher"
p18
sS'YRXVSUFCUSCO'
p19
S''
p20
sS'ZCROJMPKIRDG'
p21
S"With his shitty mother Who let's face it doesn't think you're smart enough Pretty Let's face it doesn't think you're pretty enough Because no one is No one ever will beI tried to send something sexy to your house but the mailman told me to get out of the mail boxI have seen every Disney animated movie madeApparently I have a sophisticated mindPartial to festive hot chocolateI startle easilyMusic business studentI enjoy crappy pickup lines and punsAvid movie watcher"
p22
sS'NFATOGCPQGLW'
p23
S'Gap year student '
p24
sS'UXILYRTJGPYL'
p25
g20
sS'BXGWUKQQOSDZ'
p26
g20
sS'WGXBRPNWUHED'
p27
S"Give me a rate We might go on a date If it's not fate You can be my mate "
p28
sS'NLFKUFLJSUGM'
p29
S"I'm a fucking punmeister Looking for a drinking partner  someone to take me to Rotato for a jacket potato "
p30
sS'YCDVGDFRRYRP'
p31
S'Architecture and design student '
p32
sS'GDLYTBVZXIEU'
p33
S'Uni of Edinburgh History Student pretty crap at dates tho'
p34
sS'YFIRDZUPQUMK'
p35
S"With his shitty mother Who let's face it doesn't think you're smart enough Pretty Let's face it doesn't think you're pretty enough Because no one is No one ever will beI tried to send something sexy to your house but the mailman told me to get out of the mail boxI have seen every Disney animated movie madeApparently I have a sophisticated mindPartial to festive hot chocolateI startle easilyMusic business studentI enjoy crappy pickup lines and punsAvid movie watcher"
p36
sS'CNTJUXVHDWJV'
p37
g20
sS'YCELEKWPSEUD'
p38
S'Lithuanian Business Management student at Qmu'
p39
sS'LQLOESUDMSEI'
p40
S"Live On The Edge  Thats my motto Life's too short not toMy family and friends are amazing actually couldn't live without themNot your usual Girly girl yea i like getting dolled up for a night out but i love lounging about in my trackies lolLove a night out but love a good night in tooIm a fitness adrenaline  sport finatic Love the gym  loads of sports including footieLove the great outdoors  adore Scotland Facebook  Stacey McCallum"
p41
sS'QGDJLKCHIYGC'
p42
g20
sS'JMYURVUIFKOR'
p43
S"Life's too short eat dessert first "
p44
sS'WMVSTASSRCMS'
p45
S"I'm a fucking punmeister Looking for a drinking partner  someone to take me to Rotato for a jacket potato "
p46
sS'BRJUHPXWWLIF'
p47
S"With his shitty mother Who let's face it doesn't think you're smart enough Pretty Let's face it doesn't think you're pretty enough Because no one is No one ever will beI tried to send something sexy to your house but the mailman told me to get out of the mail boxI have seen every Disney animated movie madeApparently I have a sophisticated mindPartial to festive hot chocolateI startle easilyMusic business studentI enjoy crappy pickup lines and punsAvid movie watcher"
p48
sS'BEZXWBJQJIUD'
p49
g20
sS'TBWHRLQCTILG'
p50
S'rd year student  Wine loving vegetarian '
p51
sS'DDNNYHPCHFGN'
p52
S"I'm a fucking punmeister Looking for a drinking partner  someone to take me to Rotato for a jacket potato "
p53
sS'LFQIDJFWMQVI'
p54
S"If your dreams don't scare you  they aren't big enough "
p55
sS'IZYHBPUMFATY'
p56
g20
sS'FNXDBIIRNXTF'
p57
S'yr Fashiontextile student in edinburgh '
p58
sS'BINNBCRQZOJJ'
p59
S'Business student Edinburgh '
p60
sS'AGCCUMXSORMI'
p61
g20
sS'VEXATOPUMWLS'
p62
S"American visiting Edinburgh for the week In search the city's best scone "
p63
sS'HQONSBTSHZXQ'
p64
g20
sS'XPBABWMZUNHO'
p65
S'Ps beards give me the fear '
p66
sS'WFQEFGDALMMW'
p67
S'NorwayEdinburgh'
p68
sS'JXEDPZWGSDPK'
p69
S'EnglishSwissI speak  languages love travelling art yoga and poetry Based between Edinburgh London and Geneva'
p70
sS'AWDFIZDUBUYY'
p71
g20
sS'CTLDFHXGAODM'
p72
S"With his shitty mother Who let's face it doesn't think you're smart enough Pretty Let's face it doesn't think you're pretty enough Because no one is No one ever will beI tried to send something sexy to your house but the mailman told me to get out of the mail boxI have seen every Disney animated movie madeApparently I have a sophisticated mindPartial to festive hot chocolateI startle easilyMusic business studentI enjoy crappy pickup lines and punsAvid movie watcher"
p73
sS'SIZIGJYEZTUH'
p74
S'Snapchat  razzapee '
p75
sS'LIWBAOGWUHNL'
p76
g20
sS'WZRBWAHCGQAE'
p77
S'University of Edinburgh'
p78
sS'RPBYFIXNALIK'
p79
S'New Yorker writer tequila enthusiast Looking for an adventuredrinkingsnuggle buddy I look good in your flannel '
p80
sS'LYVIHWFNDXVB'
p81
g20
sS'OHDOBKXAVDKT'
p82
S'Now recruiting for a winter snuggle buddy '
p83
sS'IXPXCCLDUFKK'
p84
S"Hello I'm Kerry just recently joined this So will see how it goes  Give me a message if you fancy a blether No creeps please "
p85
sS'GZHRHNZMBPFU'
p86
g20
sS'ZWGNFVBXRKYT'
p87
S'Irish in Edinburgh  '
p88
sS'OHVTCNXMLKVK'
p89
g20
sS'WSMAJHLJBPQH'
p90
g20
sS'BHVZNJLSDSSZ'
p91
S'Tenners bet i could beat you in a race '
p92
sS'WYEZBMBZBABD'
p93
S'Londoner Edinburgh UniShakira is my spirit animal  Instagram aliciamlp'
p94
sS'FKKRSLQYMDFY'
p95
g20
sS'TAFDTDPZHOLI'
p96
S"My name is Emily Rose yes like the horror movie I'm EnglishCypriot Studying Psychology I like tattoos and listen to any music instagram  emilyrosech"
p97
sS'AKIZWFMFXXUP'
p98
g20
sS'WXIUTNTHIDWU'
p99
S'University of Edinburgh  postgraduate University of York  Philosophy'
p100
sS'RVNWOTRKGVNU'
p101
g20
sS'CDCZOCEUPCPZ'
p102
S'Law student Edinburgh unaaaay xoxo'
p103
sS'DUYDMGYMIDLN'
p104
g20
sS'KDCPTLXVNPJL'
p105
g20
sS'IJWDUISZNUMK'
p106
S'Architecture and design student '
p107
sS'WWNMJZNTIYJL'
p108
g20
sS'MKOJBGHLQKGA'
p109
S"With his shitty mother Who let's face it doesn't think you're smart enough Pretty Let's face it doesn't think you're pretty enough Because no one is No one ever will beI tried to send something sexy to your house but the mailman told me to get out of the mail boxI have seen every Disney animated movie madeApparently I have a sophisticated mindPartial to festive hot chocolateI startle easilyMusic business studentI enjoy crappy pickup lines and punsAvid movie watcher"
p110
sS'RCFBBTZXEWIB'
p111
g20
sS'QHKXNIIOZKGX'
p112
g20
sS'XAEVDHCWYAZH'
p113
g20
sS'RSECHUNRDZXE'
p114
S'adventure and netflix pls'
p115
sS'ACYZJAGPQJOL'
p116
g20
sS'YMHDJMTPFGDE'
p117
S'Pretty fly for a white guyGlitter is always a good ideaI like big dogs'
p118
sS'JRNWRWXFSAMA'
p119
g20
sS'ZKWHSOZUYJPX'
p120
S''
p121
sS'NYMKWOSFYWHK'
p122
S"With his shitty mother Who let's face it doesn't think you're smart enough Pretty Let's face it doesn't think you're pretty enough Because no one is No one ever will beI tried to send something sexy to your house but the mailman told me to get out of the mail boxI have seen every Disney animated movie madeApparently I have a sophisticated mindPartial to festive hot chocolateI startle easilyMusic business studentI enjoy crappy pickup lines and punsAvid movie watcher"
p123
sS'DIYZTRWVGFNW'
p124
S'My Kryptonite is my shyness '
p125
sS'MQCVAUGYXPJF'
p126
S'Architecture and design student '
p127
sS'YNZOIUUIRCRO'
p128
S'Architecture and design student '
p129
sS'UIWONCMOLEQF'
p130
S"I'm a fucking punmeister Looking for a drinking partner  someone to take me to Rotato for a jacket potato "
p131
sS'OSORWXLGTJHG'
p132
S'Architecture and design student '
p133
sS'GHKVCNOUGORU'
p134
g20
sS'GHAMEAIAHTWO'
p135
S"With his shitty mother Who let's face it doesn't think you're smart enough Pretty Let's face it doesn't think you're pretty enough Because no one is No one ever will beI tried to send something sexy to your house but the mailman told me to get out of the mail boxI have seen every Disney animated movie madeApparently I have a sophisticated mindPartial to festive hot chocolateI startle easilyMusic business studentI enjoy crappy pickup lines and punsAvid movie watcher"
p136
sS'YFJILGSBTOVS'
p137
S'Instagram  nsneddsnapchat  nicolessneddon'
p138
sS'HFJKNBBLMXPL'
p139
S'English Lit at University of Edinburgh '
p140
sS'IFYLCQCPCDAX'
p141
S'Architecture and design student '
p142
sS'TMTIVBKTALFO'
p143
S"  bexxjack    bexxxjack   ft  'a like the playstation do you like the  playstation''huv ye heard aw the new rapper music av heard it an a like it'"
p144
sS'TTQZLYNVMWUM'
p145
S'Brighton'
p146
sS'TQTORHZTTMFQ'
p147
S'Edinburgh '
p148
sS'SWUJYQDQUDQG'
p149
S'Architecture and design student '
p150
sS'LZOMSMTUDSZB'
p151
S'Roses are red Violets are blueI like sour cream and chive Pringles and grilled halloumi '
p152
sS'VLFCIOATXRVX'
p153
S'Edinburgh med skl '
p154
sS'SHFICNHVMAPC'
p155
S'ItalianJapanese rd year History and Economics at St Andrews'
p156
sS'KZFZZIBUSAPI'
p157
g20
sS'HVKQULCMFALG'
p158
S'Instagram jennyxxSnapchat jennycTwitter JennyCuthbertLove a man with a beard Fife '
p159
sS'YPJFQXERGDTB'
p160
g20
sS'ALGLIMFKQBPW'
p161
g20
sS'YMURYEZGFYFQ'
p162
g20
sS'FUETKKMVUJRI'
p163
S'Insta kirstydLove health  fitness crossfit cooking sports Saturday nights out  '
p164
sS'FTJZBXPIMVMS'
p165
g20
sS'GYQREMFGASNQ'
p166
S"With his shitty mother Who let's face it doesn't think you're smart enough Pretty Let's face it doesn't think you're pretty enough Because no one is No one ever will beI tried to send something sexy to your house but the mailman told me to get out of the mail boxI have seen every Disney animated movie madeApparently I have a sophisticated mindPartial to festive hot chocolateI startle easilyMusic business studentI enjoy crappy pickup lines and punsAvid movie watcher"
p167
sS'JRVBVMTHZNDF'
p168
S'From Ireland studying nursing in Edinburgh '
p169
sS'OOFNJTGOLRAO'
p170
S'Architecture and design student '
p171
sS'LITJDINFXVAR'
p172
g20
sS'LNHXTZZOGAAS'
p173
S'Pretty much a massive nerd '
p174
sS'CAXOBZATNBPS'
p175
g20
sS'EOLFXEXASLLG'
p176
S"Some people call me the space cowboy Some call me the gangster of love Some people call me Maurice  But please don't because my name is Charlie and that's incorrect"
p177
sS'MVVSFEAYEHPN'
p178
S"With his shitty mother Who let's face it doesn't think you're smart enough Pretty Let's face it doesn't think you're pretty enough Because no one is No one ever will beI tried to send something sexy to your house but the mailman told me to get out of the mail boxI have seen every Disney animated movie madeApparently I have a sophisticated mindPartial to festive hot chocolateI startle easilyMusic business studentI enjoy crappy pickup lines and punsAvid movie watcher"
p179
sS'NLHFWBJWCBMY'
p180
g20
sS'MATQMFRDNXHZ'
p181
S'Second year brewing and distilling at heriot watt university '
p182
sS'SEWVCXXMAAXA'
p183
S'Fried chicken and chill '
p184
sS'RFRZFXATHEAY'
p185
g20
sS'FBIDISGEZAQV'
p186
S'Healthy living Music Hiking Films Dancing Books Tea and coffee Cooking Guitar Travelling Cycling '
p187
sS'VVLUJJMBOZKG'
p188
S'I paid this owl to make me look good '
p189
sS'XLWLXZEFZLVM'
p190
S"I'm a fucking punmeister Looking for a drinking partner  someone to take me to Rotato for a jacket potato "
p191
sS'CDRIYGOUKZGJ'
p192
S"I'm a fucking punmeister Looking for a drinking partner  someone to take me to Rotato for a jacket potato "
p193
sS'HKFBXODLHFZD'
p194
g20
sS'HMEIEWYEGLEM'
p195
S"my name's actually chlo lolfrenchamerican lifeguard singer volleyball player "
p196
sS'MSHTWGCYBUHQ'
p197
S'Architecture and design student '
p198
sS'HPWLTDYRLUSW'
p199
g20
sS'JLPJLJUAVXVB'
p200
S'Wine them dine them and  them That Professional Cookery student twat thing from Edinburgh  DC or die'
p201
sS'SOYIULETYALA'
p202
S"I'm a fucking punmeister Looking for a drinking partner  someone to take me to Rotato for a jacket potato "
p203
sS'BQTZIWHAFENZ'
p204
g20
sS'USVKNLWYLDVU'
p205
g20
sS'IPQWVCDRFNNR'
p206
S"Laurie  love my job and going to the gym If you're sarcastic and are a lover of puns we're already pals Love a laugh and meeting new people "
p207
sS'ZPLRSIFFLCQF'
p208
g20
sS'UIKKSKXKWBDH'
p209
S'Geography Edinburgh  Yorkshire '
p210
sS'JQCWOXNZRRBP'
p211
g20
sS'DFEJPYILVMEW'
p212
g20
sS'IGUGVQFUISAM'
p213
S'I am looking for someone to share in an adventure Lover of films tattoos country music and wine '
p214
sS'QYWQZLBICJTP'
p215
S'If you like Morrissey we can be friends I like ghouls and I dislike knees Student nurse '
p216
sS'JKHMFEIPWUOO'
p217
S'Dance sunshine and snacks are all I need '
p218
sS'TFHAABJBLPLF'
p219
S'I am a very shy person with a big heartI studied health and social care in queen Margaret uni  I am at Edinburgh college studying nursingDream is to become a paramedic somedaySnapchat teaganc'
p220
sS'BLRGAOCKFUYD'
p221
S"Originally from the US just trying out this on the recommendation of a friend I'm a laid back taveller Game of Thrones enthusiast equestrian dog obsessed bacon eater sports fan velociraptor handler in training geek and history nerd Not looking for casual hookups  sorry Just looking to meet new people  Also so it's not a surprise I'm '  cm"
p222
sS'NEIVYSRLTZOM'
p223
g20
sS'IPFFGRDAOLJL'
p224
g20
sS'UOPWGWHKQOAV'
p225
S"Swipe left if you're not going to chatI have two beautiful and amazing kids who are my world  "
p226
sS'XFDQBACYVOOT'
p227
g20
sS'QZQAWGICLDLE'
p228
S"I'm a fucking punmeister Looking for a drinking partner  someone to take me to Rotato for a jacket potato "
p229
sS'UYUXCGSDJSTF'
p230
S"I'm American with family in ScotlandOutgoing and friendly feel free to get to know me Chicago Native "
p231
sS'OCXBRMWBAHRC'
p232
S' Edinburgh Scotland Theatre nurse'
p233
sS'JIZUFUBZJEGL'
p234
g20
sS'LSVGTRAHYBXT'
p235
S"With his shitty mother Who let's face it doesn't think you're smart enough Pretty Let's face it doesn't think you're pretty enough Because no one is No one ever will beI tried to send something sexy to your house but the mailman told me to get out of the mail boxI have seen every Disney animated movie madeApparently I have a sophisticated mindPartial to festive hot chocolateI startle easilyMusic business studentI enjoy crappy pickup lines and punsAvid movie watcher"
p236
sS'DEYGDWPZJPTA'
p237
g20
sS'BWMVIYKWJRJC'
p238
S'Edinburgh Uni'
p239
sS'TXRSVKRHUQAL'
p240
S'portree '
p241
sS'XKLQCBTBEMHJ'
p242
S'Linlithgow Snapchat lauraaaamartin'
p243
sS'KUCQGJXQVHBU'
p244
S'Architecture and design student '
p245
sS'CUIRAQQZPPVY'
p246
S'SwimmerWater Polo playerStudying at Edinburgh UniWorking part time in sports development '
p247
sS'IJLVTPYPKBBW'
p248
S"rd year student completely ditzy and always up for a laugh SnapchatInstagram  speshjess  A woman wants a polite bad boy a guy that'll open the door for her but still smacks her ass as she walks past"
p249
sS'VNRKDJCUOISI'
p250
S"I'm a fucking punmeister Looking for a drinking partner  someone to take me to Rotato for a jacket potato "
p251
sS'RGSCVPHGYXGT'
p252
g20
sS'HWZJULCNXKOY'
p253
S'Edinburgh Uni Lover of all things gin '
p254
sS'XSENDMILOBVO'
p255
S'Uni of Edinburgh masters student Love sport cooking coffee gin travelling dogs science and charity work '
p256
sS'IGKAEBAOSVNQ'
p257
g20
sS'DBSJGHTDBPXD'
p258
g20
sS'PYWVOBLMAUDW'
p259
S"With his shitty mother Who let's face it doesn't think you're smart enough Pretty Let's face it doesn't think you're pretty enough Because no one is No one ever will beI tried to send something sexy to your house but the mailman told me to get out of the mail boxI have seen every Disney animated movie madeApparently I have a sophisticated mindPartial to festive hot chocolateI startle easilyMusic business studentI enjoy crappy pickup lines and punsAvid movie watcher"
p260
sS'SCIORTLIECQS'
p261
S"With his shitty mother Who let's face it doesn't think you're smart enough Pretty Let's face it doesn't think you're pretty enough Because no one is No one ever will beI tried to send something sexy to your house but the mailman told me to get out of the mail boxI have seen every Disney animated movie madeApparently I have a sophisticated mindPartial to festive hot chocolateI startle easilyMusic business studentI enjoy crappy pickup lines and punsAvid movie watcher"
p262
sS'JRZCNUXECFZD'
p263
S"I'd say I'm not a twat but it would be a lie "
p264
sS'QABICIJMDIIC'
p265
S"rd year pharmacology student If I was your gf I'd never let you go I can take places you ain't never been before Baby take a chance or you'll never ever know "
p266
sS'KMCHPMZQAFYL'
p267
S"If your gonna ask me for a shag don't even bother messaging meLooking for a long term relationship not fun Or even just a pal cause I've no friends   Only if your genuinely serious about a relationship or friendship message me Fed up of being used and messed aboutadd my snapchat niamhmabelxo Follow my instagram niamhh"
p268
sS'HUGBYAFWFXLZ'
p269
S'UofE politics student Fife '
p270
sS'JTUIHTAKUCJU'
p271
g20
sS'EKGDRUSZPLAE'
p272
S'Originally Irish but living in EdinburghFirst year at qmu '
p273
sS'POQIZLFCYQHC'
p274
S"I'm a fucking punmeister Looking for a drinking partner  someone to take me to Rotato for a jacket potato "
p275
sS'MYIUVEZLEKOT'
p276
S' Country lass at heart                                                                                                                                                                                                                                Shinty for Strathglass and EUSC                    Animal biology in Napier                                                               A rugby and cider kinda gal '
p277
sS'SDQVSWECWAIK'
p278
S'rd Year StudentEdinburgh Likely listening to The  '
p279
sS'DYRDTHPQOEVQ'
p280
S'Looking for a father for my nine beautiful childrenSnapchat joanofclark'
p281
sS'QOEYGDEPRZMZ'
p282
g20
sS'YRVWCVEDVZPS'
p283
S'Studying television production TV show addict music lover '
p284
sS'RPNBUVTTOKMH'
p285
S"  LanarkAlmost a qualified nursery teacherLove a good night outSpeak to me I don't bitesnapchatabbiemckay"
p286
sS'RKCXKGYLJRFQ'
p287
S''
p288
sS'TKCMMQFPAOUK'
p289
S"I'm a fucking punmeister Looking for a drinking partner  someone to take me to Rotato for a jacket potato "
p290
sS'NTKUZQZRXQAQ'
p291
g20
sS'YUHTIVNAYSED'
p292
g20
sS'PGNLXBARUQBC'
p293
S' hairdresser Howdon '
p294
sS'AEIXGDOQXZJE'
p295
S"It's very complicated but basically they told me that I am the center of the universehttpbilyanahristovaemwordpresscom"
p296
sS'NYWWUNOZVIKX'
p297
S'Hey Mr you better be tall '
p298
sS'MUJWAWIDZMOW'
p299
S"My underwear never matchesMy socks are always oddI am always lateI drink too muchI don't think before I speakImpulsive"
p300
sS'RAPQANOJUUZG'
p301
g20
sS'GYDIGWWUAAKZ'
p302
S"First year student from Rep Of Ireland but not dublin I love the outdoors reading bluesjazzrock and just hanging out having the craic really Prefer a day out and a night in My newest venture is taking up going to the gym Bonus points if you have or like dogs ' curvy hourglass  I'm assuming that matters "
p303
sS'UTCSYUVCNIFU'
p304
S'Architecture and design student '
p305
sS'YICDMBIOBAFY'
p306
g20
sS'OSLEKPYGFVNO'
p307
S'Doing my second degree in LLB LawI like long romantic walks to the fridge'
p308
sS'BNEWICHBDEMP'
p309
S'nd year Edinburgh student artificially ginger and a bit of a nerd '
p310
sS'TILUKPSLYIWL'
p311
S"I'm a fucking punmeister Looking for a drinking partner  someone to take me to Rotato for a jacket potato "
p312
sS'HTDEBHCBXYAG'
p313
S'Instagram  laurenoneilllll '
p314
sS'LAVVOWCZRUOG'
p315
g20
sS'UDGYIOZJNWMM'
p316
g20
sS'MOTYAFJJRXKH'
p317
S"I'm a fucking punmeister Looking for a drinking partner  someone to take me to Rotato for a jacket potato "
p318
sS'RCKEZJZJXKIT'
p319
g20
sS'IXXVELDFKVGQ'
p320
S'Edinburgh uni'
p321
sS'WHKDSGXGWLLV'
p322
S"performing in my fourth year performance of The Marriage of Bette and Boo so won't be able to reply much this weekendCurrently living in Edinburgh and in my fourth year studying Acting  English at Napier  If you want to know anything just ask  "
p323
sS'VAVQBUJHWXPS'
p324
S'Architecture and design student '
p325
sS'PRSNBBIZHMBH'
p326
g20
sS'AFQAFBKVOYFY'
p327
g20
sS'MWMIBZWDGSPS'
p328
g20
sS'IGDRGZOHVDOY'
p329
S'From Donegal in th year at RGU'
p330
sS'YTWMGPPCMCDP'
p331
S'Lusaka London Edinburgh '
p332
sS'GXSGWLVUTPPZ'
p333
S'Northern Irish Business and Finance student at University of Edinburgh '
p334
sS'RNJUJXTOGRXN'
p335
S'I will like you if you have a dog'
p336
sS'YICIIVDKDFGQ'
p337
S'Architecture and design student '
p338
sS'BMQPKDLACMBM'
p339
g20
sS'GEWBBPMNBFZN'
p340
S'Architecture and design student '
p341
sS'DDEMYAUNMHMQ'
p342
S'Yorkshire lass studying Mechanical Engineering at Edinburgh'
p343
sS'MPIZGCLTTKFH'
p344
S'snapchat    emmahornexinstagram   emmahornexage              from            falkirk always up for a giggle family means more than the world'
p345
sS'UUEDPPEWWYKQ'
p346
g20
sS'BLKBIYTNNIZG'
p347
S'American  studying abroad in Edinburgh'
p348
sS'HFVECPTGXNLR'
p349
g20
sS'KOACFZPNWWHK'
p350
S"With his shitty mother Who let's face it doesn't think you're smart enough Pretty Let's face it doesn't think you're pretty enough Because no one is No one ever will beI tried to send something sexy to your house but the mailman told me to get out of the mail boxI have seen every Disney animated movie madeApparently I have a sophisticated mindPartial to festive hot chocolateI startle easilyMusic business studentI enjoy crappy pickup lines and punsAvid movie watcher"
p351
sS'YADAKJBUMFEX'
p352
S"I'm a fucking punmeister Looking for a drinking partner  someone to take me to Rotato for a jacket potato "
p353
sS'KYVWCPUDHUKT'
p354
g20
sS'HEHXZOTBDBXG'
p355
S"I'm a fucking punmeister Looking for a drinking partner  someone to take me to Rotato for a jacket potato "
p356
sS'JKBCWDPQREMO'
p357
S"I'm a fucking punmeister Looking for a drinking partner  someone to take me to Rotato for a jacket potato "
p358
sS'DIVQIGTIWMPI'
p359
S"With his shitty mother Who let's face it doesn't think you're smart enough Pretty Let's face it doesn't think you're pretty enough Because no one is No one ever will beI tried to send something sexy to your house but the mailman told me to get out of the mail boxI have seen every Disney animated movie madeApparently I have a sophisticated mindPartial to festive hot chocolateI startle easilyMusic business studentI enjoy crappy pickup lines and punsAvid movie watcher"
p360
sS'RKQAJPJCCASO'
p361
S'Edinburgh  Durham'
p362
sS'INVIXMQUSUGA'
p363
S'ScottishActivity instructor Rock climbing Up for a good laughwhy not give me a message  '
p364
sS'GCTYQTFRPRMJ'
p365
S'Bristol Uni graduateJust wanna drink wine and take naps '
p366
sS'PZQVNYVJVLMH'
p367
S" years oldProud mum to two beautiful young boys Jayden  Tyler They are my life No one will ever come before them So if you Can't accept I have two beautiful little boys Then swipe left Bit of a adrenaline junkie love my theme parksAlso love football Hibernian fcFrom Edinburgh Snapchat SamanthacowiexxInstagram Samanthacowiexx"
p368
sS'YEDLOCTGATVF'
p369
S"With his shitty mother Who let's face it doesn't think you're smart enough Pretty Let's face it doesn't think you're pretty enough Because no one is No one ever will beI tried to send something sexy to your house but the mailman told me to get out of the mail boxI have seen every Disney animated movie madeApparently I have a sophisticated mindPartial to festive hot chocolateI startle easilyMusic business studentI enjoy crappy pickup lines and punsAvid movie watcher"
p370
sS'RPONPWJMNQXW'
p371
S"Ashleigh Maree  single  Australian living in the UK  travel  Facebook  Ashleigh Maree Instagram  ashleighhmaree                                               Talk to me  I don't bite "
p372
sS'WXIRURYTUEPX'
p373
g20
sS'OXCOOEPXYNTY'
p374
S' EdinburghSc  Twitter  Instagram Rowanhand'
p375
sS'WMIXFWSGVXKN'
p376
g20
sS'NRAWUIHYKVBK'
p377
g20
sS'DCPNGSETUESY'
p378
S'Not interested in hookup nor dating only looking for friends who enjoy outdoor activities Also I am building a dating app that is way better than tinder Drop me a line if you are cool  outdoorsy and have a big heart and I will introduce you to my amazing single friends'
p379
sS'RINZQUPBJJYR'
p380
g20
sS'MUBRVALPMURV'
p381
S"I'm a fucking punmeister Looking for a drinking partner  someone to take me to Rotato for a jacket potato "
p382
sS'ENTDUDBZQLHL'
p383
S"With his shitty mother Who let's face it doesn't think you're smart enough Pretty Let's face it doesn't think you're pretty enough Because no one is No one ever will beI tried to send something sexy to your house but the mailman told me to get out of the mail boxI have seen every Disney animated movie madeApparently I have a sophisticated mindPartial to festive hot chocolateI startle easilyMusic business studentI enjoy crappy pickup lines and punsAvid movie watcher"
p384
sS'CYOAMVDBOIBL'
p385
S'Et si on allait boire un verre ensemble   '
p386
sS'YLIUECDYLWZK'
p387
S'Child nursing studentCheckout chick extraordinaireThe Office fanaticWine addictKate in a nutshell'
p388
sS'RCGCEUJUGUQI'
p389
S"Hannah Weldon Just your typical girl from Alloa loving for the weekend and partying with my friends Obsessed with The Courteeners If staying in every weekend to Netflix  Chill is your thing it's a big  from me"
p390
sS'QWPEFQCMSJUM'
p391
S'Architecture and design student '
p392
sS'YXFPTHTOTYQM'
p393
S'Yorkshire pudding working down south I like giraffes and the pub and foodYes I am the little mermaid'
p394
sS'XDROUOUGDCRI'
p395
S"I'm a fucking punmeister Looking for a drinking partner  someone to take me to Rotato for a jacket potato "
p396
sS'PKDBYGIIODMD'
p397
S"English literature student I like music and tequila I love people with a good sense of humour and bonus points if you can make me laugh Dogs are definitely my weakness I'm about as northerly Scottish as you can get Im terrible at small talk so just straight up ask me if I believe in aliens I'll reply "
p398
sS'CCVBSZSLAUJB'
p399
S"With his shitty mother Who let's face it doesn't think you're smart enough Pretty Let's face it doesn't think you're pretty enough Because no one is No one ever will beI tried to send something sexy to your house but the mailman told me to get out of the mail boxI have seen every Disney animated movie madeApparently I have a sophisticated mindPartial to festive hot chocolateI startle easilyMusic business studentI enjoy crappy pickup lines and punsAvid movie watcher"
p400
sS'LSHKOYBNTDIO'
p401
g20
sS'MEEHLUNJRTDF'
p402
S'Art student'
p403
sS'FDEOKXIPJRBJ'
p404
S"Second year history student at UofE I swear I'm more interesting than that makes me sound Instagram charlynch"
p405
sS'GZUDMCGUTYLV'
p406
S"I am Australian I am adorable and the swing is my favourite playground apparati I know all the flags of the world Mambo no is my favourite song and I'm pretty bad at bowling "
p407
sS'VRWJADWCPWET'
p408
S'nd year at QMUMade in Sweden'
p409
sS'CQIOHKGKBTGJ'
p410
g20
sS'IPOWKSMHJNLV'
p411
g20
sS'UCMRJCTKQZJK'
p412
S'Architecture and design student '
p413
sS'YQYBPAMAQDRN'
p414
g20
sS'YPLDPPGPPIXS'
p415
S"With his shitty mother Who let's face it doesn't think you're smart enough Pretty Let's face it doesn't think you're pretty enough Because no one is No one ever will beI tried to send something sexy to your house but the mailman told me to get out of the mail boxI have seen every Disney animated movie madeApparently I have a sophisticated mindPartial to festive hot chocolateI startle easilyMusic business studentI enjoy crappy pickup lines and punsAvid movie watcher"
p416
sS'DADACWUQENND'
p417
g20
sS'OYZDIHNWPGYD'
p418
S'Architecture and design student '
p419
sS'UANZJLNXIEXG'
p420
S'Med student Edinburgh uni '
p421
sS'HHRXUSEYKNLK'
p422
g20
sS'MWUKODJQVUKH'
p423
g20
sS'YUTXVEGQYCII'
p424
S'Architecture and design student '
p425
sS'EZNNDKIEWLVF'
p426
S"Instagram bapsiedeeHiyah  I'm Babs I'm a rd year Psychology student and nooo I can't read your mind by watching you not yet anyway  I work at and run club nights Yes I will always be a little bit fat  Bridget Jones so trueWhy don't you just ask what you want to know I am not going to sext you btw "
p427
sS'EEIEZPKIBPUQ'
p428
S'Architecture and design student '
p429
sS'VAINBLSGHLAA'
p430
S"I'm a catalan girl studying at Napier University Looking forward to meeting new people If we match talk to me "
p431
sS'ASEELRJTBYOV'
p432
g20
sS'ZYGERVGBZTCG'
p433
S"I'm a fucking punmeister Looking for a drinking partner  someone to take me to Rotato for a jacket potato "
p434
sS'WQTOWIZQLPXO'
p435
S"Parade with a 'M' Everybody needs a bosom for a pillow "
p436
sS'ZVZBFSIQKJBT'
p437
S'EdinburghNike Sneakers  Piercings Snapchat rebekahcarralx'
p438
sS'JIWTRXTKXEMD'
p439
S'I do like pia coladasbut mostly just coconut rumNorthern IrishCaymanianEdinburghMSc  UoEIG kelfo whateverkelly'
p440
sS'GCFTETPDRBUA'
p441
S'London  University of Edinburgh'
p442
sS'BCBHANDWISBU'
p443
S'Architecture and design student '
p444
sS'XFNBHDZDZGYU'
p445
S"With his shitty mother Who let's face it doesn't think you're smart enough Pretty Let's face it doesn't think you're pretty enough Because no one is No one ever will beI tried to send something sexy to your house but the mailman told me to get out of the mail boxI have seen every Disney animated movie madeApparently I have a sophisticated mindPartial to festive hot chocolateI startle easilyMusic business studentI enjoy crappy pickup lines and punsAvid movie watcher"
p446
sS'PIEHJTBXCRLZ'
p447
g20
sS'EKCUSHWKUUOI'
p448
S"I'm a fucking punmeister Looking for a drinking partner  someone to take me to Rotato for a jacket potato "
p449
sS'GLWVSKGQKHSP'
p450
S'Australian  Teacher Living near London '
p451
sS'KKDCUICFOUSV'
p452
S"we wont stop until somebody calls the cops and even then we'll start agaaain and just pretend like nothin' ever happened ukulele playa and aspirin' artiste olay wanderlust is me middle name instagremmm  nogginintheclouds"
p453
sS'RHOAQSLVLIDC'
p454
S"ShannNursing student at UWS  work as a carer Drink too much  My pals think I'm like Mr Bean "
p455
sS'NDTFLXVHIUVW'
p456
S'Architecture and design student '
p457
sS'WRGEPIXWYQXF'
p458
S"I'm a fucking punmeister Looking for a drinking partner  someone to take me to Rotato for a jacket potato "
p459
sS'EBYURCKQAOZH'
p460
S"With his shitty mother Who let's face it doesn't think you're smart enough Pretty Let's face it doesn't think you're pretty enough Because no one is No one ever will beI tried to send something sexy to your house but the mailman told me to get out of the mail boxI have seen every Disney animated movie madeApparently I have a sophisticated mindPartial to festive hot chocolateI startle easilyMusic business studentI enjoy crappy pickup lines and punsAvid movie watcher"
p461
sS'OIOCMTWGGJQI'
p462
S'  all about friends and family  have the most beautiful baby boy Love   tattoos and nice teeth   always up for  good banter  if in doubt pout it out   love a cheeky night out     want to know anything else just ask '
p463
sS'XASHQZEEGZVG'
p464
S'Scottish  studying engineering at Edinburgh uni '
p465
sS'CDZGSKQVFERK'
p466
S"St AndrewsEdinburgh I promise I'm not posh "
p467
sS'CNEFWOBIYRVT'
p468
S"I'm a fucking punmeister Looking for a drinking partner  someone to take me to Rotato for a jacket potato "
p469
sS'SHTJIWXCQXNZ'
p470
g20
sS'QIFXROIOANDE'
p471
S"I'm a fucking punmeister Looking for a drinking partner  someone to take me to Rotato for a jacket potato "
p472
sS'JOSEZLDAIZTK'
p473
g20
sS'ZDSNDYOTSKDV'
p474
S'exchange student from Germanytalents include looking like  and saying thank you to the bus driver'
p475
sS'CFEIVQCSSKMJ'
p476
S"With his shitty mother Who let's face it doesn't think you're smart enough Pretty Let's face it doesn't think you're pretty enough Because no one is No one ever will beI tried to send something sexy to your house but the mailman told me to get out of the mail boxI have seen every Disney animated movie madeApparently I have a sophisticated mindPartial to festive hot chocolateI startle easilyMusic business studentI enjoy crappy pickup lines and punsAvid movie watcher"
p477
sS'RBOAXQKEDRFM'
p478
g20
sS'HNLZOXZRALED'
p479
g20
sS'HHVJFQQMZEII'
p480
S'Criminal justice degree honours year Work for a community care service  '
p481
sS'CSHFLXOHADJT'
p482
g20
sS'RQAAHRSKSOUI'
p483
S"With his shitty mother Who let's face it doesn't think you're smart enough Pretty Let's face it doesn't think you're pretty enough Because no one is No one ever will beI tried to send something sexy to your house but the mailman told me to get out of the mail boxI have seen every Disney animated movie madeApparently I have a sophisticated mindPartial to festive hot chocolateI startle easilyMusic business studentI enjoy crappy pickup lines and punsAvid movie watcher"
p484
sS'QUUWCSDWEDQE'
p485
g20
sS'OZMRWWMWOHWZ'
p486
S'Love Harry potterRon weasley is my guilty pleasure Bacon I like sharks I hate peopleThe walking deadDexterNetflix and chill '
p487
sS'PMAFLIIDBMOQ'
p488
S'Student Nurse  Irish  Living in Edinburgh '
p489
sS'MTQEAQMXNBYH'
p490
g20
sS'BNTCXCMPZSIE'
p491
S"I'm a fucking punmeister Looking for a drinking partner  someone to take me to Rotato for a jacket potato "
p492
sS'IZKYSHXNWPCA'
p493
S' Everything is going to be alright'
p494
sS'NGAUEIOBNONQ'
p495
S"Not much to say really would rather someone asked and decide if they are interested from thereI'm ft  on a good day  sporty used to be a lot sportier had a wee break starting to get back into it love Disney bit of a geek change my hair colour every time I get bored which is a lot currently a brunetteJust about over a bad break up and one of the worst years of my life starting from scratch and looking to the future Got many plans but which one I chose is yet to be decided"
p496
sS'OPRBQBWEXPUI'
p497
g20
sS'ZKGSVSNSRYLR'
p498
g20
sS'RDKKIPESCBKQ'
p499
S'UofE '
p500
sS'CNIOMRRTIMTK'
p501
g20
sS'WUEKGBTGFXZF'
p502
g20
sS'OFQDDHZQVYUR'
p503
S"I'm short Like super shortI drink too much coffeeI talk about animals a lot And cities make me want to curl up in a ball and cry"
p504
sS'BHQRGUXXXWPW'
p505
S"I'm a fucking punmeister Looking for a drinking partner  someone to take me to Rotato for a jacket potato "
p506
sS'OGGOBOCLUGBJ'
p507
g20
sS'GZHEKEEPKSPN'
p508
S"With his shitty mother Who let's face it doesn't think you're smart enough Pretty Let's face it doesn't think you're pretty enough Because no one is No one ever will beI tried to send something sexy to your house but the mailman told me to get out of the mail boxI have seen every Disney animated movie madeApparently I have a sophisticated mindPartial to festive hot chocolateI startle easilyMusic business studentI enjoy crappy pickup lines and punsAvid movie watcher"
p509
sS'TZWITMCAEBST'
p510
S"With his shitty mother Who let's face it doesn't think you're smart enough Pretty Let's face it doesn't think you're pretty enough Because no one is No one ever will beI tried to send something sexy to your house but the mailman told me to get out of the mail boxI have seen every Disney animated movie madeApparently I have a sophisticated mindPartial to festive hot chocolateI startle easilyMusic business studentI enjoy crappy pickup lines and punsAvid movie watcher"
p511
sS'TYSWJMKETMYN'
p512
g20
sS'LSWMWEWKGPXI'
p513
S"With his shitty mother Who let's face it doesn't think you're smart enough Pretty Let's face it doesn't think you're pretty enough Because no one is No one ever will beI tried to send something sexy to your house but the mailman told me to get out of the mail boxI have seen every Disney animated movie madeApparently I have a sophisticated mindPartial to festive hot chocolateI startle easilyMusic business studentI enjoy crappy pickup lines and punsAvid movie watcher"
p514
sS'QDJSULTZXYZG'
p515
S"I like what I like and hopefully you like it too So if you don't ask you'll never know x"
p516
sS'CLLWEOTSAJMO'
p517
S'   '
p518
sS'EJQAUAHXTMCK'
p519
g20
sS'ZICSGMNHFTMS'
p520
S"I'm a fucking punmeister Looking for a drinking partner  someone to take me to Rotato for a jacket potato "
p521
sS'GOMZWWDHSWHU'
p522
S'Student Paediatric nurse at Dundee Uni'
p523
sS'MZWFXPUUBZHR'
p524
S'Instagram ellied'
p525
sS'CKIYUHODQILK'
p526
S"With his shitty mother Who let's face it doesn't think you're smart enough Pretty Let's face it doesn't think you're pretty enough Because no one is No one ever will beI tried to send something sexy to your house but the mailman told me to get out of the mail boxI have seen every Disney animated movie madeApparently I have a sophisticated mindPartial to festive hot chocolateI startle easilyMusic business studentI enjoy crappy pickup lines and punsAvid movie watcher"
p527
sS'DELARUTXBXYD'
p528
S"Beyonc and Liverpool oh and I'm Dutch studying in Edinburgh "
p529
sS'OVLAELSKZJKJ'
p530
S'Student nurse Greedy bisexual At least  composed of Lidl own brand wine '
p531
sS'MNDKYHAAPBKS'
p532
S'EdinburghOban '
p533
sS'NMHYDSYFTKDH'
p534
S'avid shower singerenthusiastic drunk rapperlove shrek and not ironicallytwo years ago i was a proficient windsurferlooking for a name for my cactus taking all suggestions'
p535
sS'NQOWOYGNBQAV'
p536
g20
sS'LBMCIDZWKDJN'
p537
S'Architecture and design student '
p538
sS'EHCLHYROEPLG'
p539
S"With his shitty mother Who let's face it doesn't think you're smart enough Pretty Let's face it doesn't think you're pretty enough Because no one is No one ever will beI tried to send something sexy to your house but the mailman told me to get out of the mail boxI have seen every Disney animated movie madeApparently I have a sophisticated mindPartial to festive hot chocolateI startle easilyMusic business studentI enjoy crappy pickup lines and punsAvid movie watcher"
p540
sS'IARJZENVVLUC'
p541
S'Flowers make my day but rough sex makes my hole weak '
p542
sS'FUDPISKCUXGR'
p543
S'Niamh  UofE  English Lit and History '
p544
sS'LDQVTBNVPWYV'
p545
S'annoying swedish vegan'
p546
sS'XFCLYHHRKLRV'
p547
S'Originally from London went to uni in Belfast currently a nurse in Leicester ft'
p548
sS'HVDOIFKUTDJJ'
p549
g20
sS'WCJWZADGZIBK'
p550
S'Well im laid back simple chick dont like loads of fuss and im a woman that can take care of her self but sometimes its nice to have someone take care of u lol i like long walks chilling out watching movies and haveing a laugh '
p551
sS'SHGORMCOZVJT'
p552
S'ScottishAustralian Studying at Edinburgh Uni'
p553
sS'HTGUJHYYIUHX'
p554
S'Love life '
p555
sS'SEIOPRXAVZEQ'
p556
S" ft                                                       English accent                                                 Not a stick insect                                         Living in the East Neuk of Fife                  Working as a Supervisor in St Andrews               I don't own a microwave What does that say about a girl"
p557
sS'EDPAEQAWUEQU'
p558
S'Architecture and design student '
p559
sS'TQYALSCLALRS'
p560
g20
sS'JXITFQXCSQAY'
p561
g20
sS'SKLMZRAXPLXT'
p562
S"I'm basically a really awkward loser who likes nerdy things and the outdoors Cats are awesome college is fun and I have sass for DAYS on end From the US Studying ANTHRO at Edinburgh  This is the field where I grow my fucks As you can see it is barren Message me first or we're probably not gonna talk IG TayJaeThornTumblr imakittyrawrandstuffSnapchat"
p563
sS'HFDWHSUQMDXV'
p564
S"Steph Blart Mall CopI'm a simple man I like pretty dark haired women and breakfast food "
p565
sS'LJWWHJXKQJJP'
p566
S'Napier student '
p567
sS'RYZQOELNGVRP'
p568
S" Anybody read this or speak on this Prove me wrongTattoosMusicBanter SarcasmHopeless romantic Someone's got to be as weird as me "
p569
sS'KNLLSAGJTSNF'
p570
S' Edinburgh Actor Singer Selfie taker'
p571
sS'ZXZRLHFQYVRB'
p572
S'An almostGlasgow girl studying at Edinburgh uni  '
p573
sS'UKSJSYKAOLYU'
p574
S"With his shitty mother Who let's face it doesn't think you're smart enough Pretty Let's face it doesn't think you're pretty enough Because no one is No one ever will beI tried to send something sexy to your house but the mailman told me to get out of the mail boxI have seen every Disney animated movie madeApparently I have a sophisticated mindPartial to festive hot chocolateI startle easilyMusic business studentI enjoy crappy pickup lines and punsAvid movie watcher"
p575
sS'BKYENXTBIVSN'
p576
S"Emma loudenBe happy not sad because sad reversed is 'das' and das no good "
p577
sS'BCSQFGCVJETH'
p578
g20
sS'EWTAJDAAHKCG'
p579
S"I'm a fucking punmeister Looking for a drinking partner  someone to take me to Rotato for a jacket potato "
p580
sS'YAOWOTEUDIRO'
p581
S'Architecture and design student '
p582
sS'DANOBPMAMOLF'
p583
g20
sS'QJFLEXOOCRNC'
p584
S'BrightonEdinburghGeography studentig saskiaa'
p585
sS'HJEOYVRGPSPK'
p586
g20
sS'BWOGRNQJBAOT'
p587
S"if it's bad for me I'll probably enjoy itsnapchat  ebgordonx"
p588
sS'HJBTUKLTMSYT'
p589
S"With his shitty mother Who let's face it doesn't think you're smart enough Pretty Let's face it doesn't think you're pretty enough Because no one is No one ever will beI tried to send something sexy to your house but the mailman told me to get out of the mail boxI have seen every Disney animated movie madeApparently I have a sophisticated mindPartial to festive hot chocolateI startle easilyMusic business studentI enjoy crappy pickup lines and punsAvid movie watcher"
p590
sS'XDYVMURWCJEV'
p591
S"I'm a fucking punmeister Looking for a drinking partner  someone to take me to Rotato for a jacket potato "
p592
sS'TFMVLNQXXUUO'
p593
g20
sS'KCXBMEBYWYTM'
p594
S'EdinburghBathgate  wine Motown music and sarcasm Edinburgh university politics student'
p595
sS'ICMUHZIQIEOX'
p596
S'Architecture and design student '
p597
sS'FAPPIMONGIEE'
p598
S"I got drunk and applied to go on Bargain Hunt Why did the plane crashBecause the pilot was a muffin If you don't crack a smile we aren't meant to be "
p599
sS'OAJUMBYTNXLI'
p600
S'LondonPinot PalsSunshine'
p601
sS'JWFHNWSWRQBM'
p602
S' professional singerdancerWorking in ScotlandSomeone take me to winter wonderland pretty please '
p603
sS'XMSPKFWXGZWE'
p604
S'Architecture and design student '
p605
sS'BXJHBBCPXEWW'
p606
S'Architecture and design student '
p607
sS'IIJVKYUYDMCS'
p608
S"I'm all about fun and drinking im on tinder coz I'm bored and thinks it's finny looking the pics  hollieash hollies"
p609
sS'LJGTCQFTJFBD'
p610
g20
sS'UGCNRSFSNCNY'
p611
S'Studying RBM in Edinburgh Ride horses and I like vodka oh and also have gr banter so hit me with what ya got '
p612
sS'FHZQGSEJHZKS'
p613
S"I'm a fucking punmeister Looking for a drinking partner  someone to take me to Rotato for a jacket potato "
p614
sS'CSRBGVLJOHRZ'
p615
S'Architecture and design student '
p616
sS'FQPZIVDGYCSD'
p617
S"So this is what urban dictionary says about me She laughs a lot and is always there for you willing to listen and help Rebecca is someone everyone likes from the beginning You just have to look at her and you know she's an interesting and friendly person She's very determined to make the best of her life and is charmingly competitive at certain things She's great fun to be around and always makes you feel happy But message me and find out for yourself "
p618
sS'YUUISJAODLDC'
p619
S'Architecture and design student '
p620
sS'IODIMFDKYYJF'
p621
S'A busy working student with a big interest in life Like to meet new people learn from them discuss or just have fun A lot  of interests so little timeI am just looking for people that have something to say if not please do not swipe right'
p622
sS'AVSFBDCDALYX'
p623
g20
sS'HTMFPCDWNMDO'
p624
S'Proud recipient of the Most Detailed Bio On Tinder award  '
p625
sS'KHPUMDBNAYGK'
p626
S"I'm a fucking punmeister Looking for a drinking partner  someone to take me to Rotato for a jacket potato "
p627
sS'TORRGCIRFXZQ'
p628
g20
sS'PEUGKFAAOIHC'
p629
S'Architecture and design student '
p630
sS'USFNXQJTNHMJ'
p631
g20
sS'DYDVLOSGYVYH'
p632
S'I really like animal facts'
p633
sS'KVTRUGXNJGJU'
p634
g20
sS'FIJZWHCYQQFJ'
p635
S"We don't have to take out clothes off To have a good time oh yeh "
p636
sS'NDITQQTSMIAI'
p637
g20
sS'ICLBEZYBFISG'
p638
S'Architecture and design student '
p639
sS'YKMMKOVYRCDR'
p640
g20
sS'NDHVOSNTZOSA'
p641
S'snapchat hayleighwilson Looking for that typical farmerrugby player'
p642
sS'AEJJIHIPFVJS'
p643
g20
sS'JJGVPPZFTKWZ'
p644
S"With his shitty mother Who let's face it doesn't think you're smart enough Pretty Let's face it doesn't think you're pretty enough Because no one is No one ever will beI tried to send something sexy to your house but the mailman told me to get out of the mail boxI have seen every Disney animated movie madeApparently I have a sophisticated mindPartial to festive hot chocolateI startle easilyMusic business studentI enjoy crappy pickup lines and punsAvid movie watcher"
p645
sS'BKWFRJUBCEIE'
p646
S'Livingston                                                                Very proud owner of a beautiful  year old                                   st year Adult Nursing student at Napier Uni Part time nursing assistant with NHS  part time care assistant in a care home I am not a fan of facial hair                          '
p647
sS'UPJYXTPQHLPZ'
p648
S'Architecture and design student '
p649
sS'SEJPPPAHUMCJ'
p650
S"I'm a fucking punmeister Looking for a drinking partner  someone to take me to Rotato for a jacket potato "
p651
sS'HWQOFKHQYJNO'
p652
g20
s.