(dp0
S'EOLFXEXASLLG'
p1
S"Some people call me the space cowboy Some call me the gangster of love Some people call me Maurice  But please don't because my name is Charlie and that's incorrect"
p2
sS'MWMIBZWDGSPS'
p3
S''
p4
sS'QDJSULTZXYZG'
p5
S"I like what I like and hopefully you like it too So if you don't ask you'll never know x"
p6
sS'IGDRGZOHVDOY'
p7
S'From Donegal in th year at RGU'
p8
sS'XMSPKFWXGZWE'
p9
S'Architecture and design student '
p10
sS'XFDQBACYVOOT'
p11
g4
sS'YTWMGPPCMCDP'
p12
S'Lusaka London Edinburgh '
p13
sS'HEHXZOTBDBXG'
p14
S"I'm a fucking punmeister Looking for a drinking partner  someone to take me to Rotato for a jacket potato "
p15
sS'OUSJPXCUEJON'
p16
S'Irish lassie studying medicine at Edinburgh uni Anything you wana know just ask  '
p17
sS'LDQVTBNVPWYV'
p18
S'annoying swedish vegan'
p19
sS'SEWVCXXMAAXA'
p20
S'Fried chicken and chill '
p21
sS'OPRBQBWEXPUI'
p22
g4
sS'GMEDJVHXJCDB'
p23
S'PE Student at University of EdinburghTwitter  KaraMillerInstagram  karamiller'
p24
sS'ZKGSVSNSRYLR'
p25
g4
sS'OHVTCNXMLKVK'
p26
g4
sS'FBIDISGEZAQV'
p27
S'Healthy living Music Hiking Films Dancing Books Tea and coffee Cooking Guitar Travelling Cycling '
p28
sS'RCKEZJZJXKIT'
p29
g4
sS'RNJUJXTOGRXN'
p30
S'I will like you if you have a dog'
p31
sS'VVLUJJMBOZKG'
p32
S'I paid this owl to make me look good '
p33
sS'YICIIVDKDFGQ'
p34
S'Architecture and design student '
p35
sS'XLWLXZEFZLVM'
p36
S"I'm a fucking punmeister Looking for a drinking partner  someone to take me to Rotato for a jacket potato "
p37
sS'RDKKIPESCBKQ'
p38
S'UofE '
p39
sS'DPYSJWFIGEZU'
p40
S'Studio Assistant and Postgraduate Student'
p41
sS'BMQPKDLACMBM'
p42
g4
sS'TNVBEWMRQZEM'
p43
S"Vet student at Edinburgh UniLover of films books a good night out and singing in the showerIf you don't love dogs there's probably no point"
p44
sS'BXJHBBCPXEWW'
p45
S'Architecture and design student '
p46
sS'WUEKGBTGFXZF'
p47
g4
sS'XPBABWMZUNHO'
p48
S'Ps beards give me the fear '
p49
sS'AFDDOCWWWLPH'
p50
S'Edinburgh'
p51
sS'OFQDDHZQVYUR'
p52
S"I'm short Like super shortI drink too much coffeeI talk about animals a lot And cities make me want to curl up in a ball and cry"
p53
sS'RFRZFXATHEAY'
p54
g4
sS'BHQRGUXXXWPW'
p55
S"I'm a fucking punmeister Looking for a drinking partner  someone to take me to Rotato for a jacket potato "
p56
sS'YLIUECDYLWZK'
p57
S'Child nursing studentCheckout chick extraordinaireThe Office fanaticWine addictKate in a nutshell'
p58
sS'HMEIEWYEGLEM'
p59
S"my name's actually chlo lolfrenchamerican lifeguard singer volleyball player "
p60
sS'GXSGWLVUTPPZ'
p61
S'Northern Irish Business and Finance student at University of Edinburgh '
p62
sS'UUEDPPEWWYKQ'
p63
g4
sS'CDZGSKQVFERK'
p64
S"St AndrewsEdinburgh I promise I'm not posh "
p65
sS'BLKBIYTNNIZG'
p66
S'American  studying abroad in Edinburgh'
p67
sS'HFVECPTGXNLR'
p68
g4
sS'WFQEFGDALMMW'
p69
S'NorwayEdinburgh'
p70
sS'YADAKJBUMFEX'
p71
S"I'm a fucking punmeister Looking for a drinking partner  someone to take me to Rotato for a jacket potato "
p72
sS'BXGWUKQQOSDZ'
p73
g4
sS'JLPJLJUAVXVB'
p74
S'Wine them dine them and  them That Professional Cookery student twat thing from Edinburgh  DC or die'
p75
sS'NLHFWBJWCBMY'
p76
g4
sS'RPBYFIXNALIK'
p77
S'New Yorker writer tequila enthusiast Looking for an adventuredrinkingsnuggle buddy I look good in your flannel '
p78
sS'NLFKUFLJSUGM'
p79
S"I'm a fucking punmeister Looking for a drinking partner  someone to take me to Rotato for a jacket potato "
p80
sS'YCDVGDFRRYRP'
p81
S'Architecture and design student '
p82
sS'JKBCWDPQREMO'
p83
S"I'm a fucking punmeister Looking for a drinking partner  someone to take me to Rotato for a jacket potato "
p84
sS'TYSWJMKETMYN'
p85
g4
sS'GDLYTBVZXIEU'
p86
S'Uni of Edinburgh History Student pretty crap at dates tho'
p87
sS'EEIEZPKIBPUQ'
p88
S'Architecture and design student '
p89
sS'HPWLTDYRLUSW'
p90
g4
sS'RKQAJPJCCASO'
p91
S'Edinburgh  Durham'
p92
sS'SOYIULETYALA'
p93
S"I'm a fucking punmeister Looking for a drinking partner  someone to take me to Rotato for a jacket potato "
p94
sS'BQTZIWHAFENZ'
p95
g4
sS'NEIVYSRLTZOM'
p96
g4
sS'QUUWCSDWEDQE'
p97
g4
sS'LZOMSMTUDSZB'
p98
S'Roses are red Violets are blueI like sour cream and chive Pringles and grilled halloumi '
p99
sS'OSLEKPYGFVNO'
p100
S'Doing my second degree in LLB LawI like long romantic walks to the fridge'
p101
sS'YCELEKWPSEUD'
p102
S'Lithuanian Business Management student at Qmu'
p103
sS'USVKNLWYLDVU'
p104
g4
sS'GCTYQTFRPRMJ'
p105
S'Bristol Uni graduateJust wanna drink wine and take naps '
p106
sS'PZQVNYVJVLMH'
p107
S" years oldProud mum to two beautiful young boys Jayden  Tyler They are my life No one will ever come before them So if you Can't accept I have two beautiful little boys Then swipe left Bit of a adrenaline junkie love my theme parksAlso love football Hibernian fcFrom Edinburgh Snapchat SamanthacowiexxInstagram Samanthacowiexx"
p108
sS'JXITFQXCSQAY'
p109
g4
sS'POQIZLFCYQHC'
p110
S"I'm a fucking punmeister Looking for a drinking partner  someone to take me to Rotato for a jacket potato "
p111
sS'DBSJGHTDBPXD'
p112
g4
sS'UIKKSKXKWBDH'
p113
S'Geography Edinburgh  Yorkshire '
p114
sS'YXFPTHTOTYQM'
p115
S'Yorkshire pudding working down south I like giraffes and the pub and foodYes I am the little mermaid'
p116
sS'YNZOIUUIRCRO'
p117
S'Architecture and design student '
p118
sS'EJQAUAHXTMCK'
p119
g4
sS'WMVSTASSRCMS'
p120
S"I'm a fucking punmeister Looking for a drinking partner  someone to take me to Rotato for a jacket potato "
p121
sS'WXIRURYTUEPX'
p122
g4
sS'HTGUJHYYIUHX'
p123
S'Love life '
p124
sS'ZICSGMNHFTMS'
p125
S"I'm a fucking punmeister Looking for a drinking partner  someone to take me to Rotato for a jacket potato "
p126
sS'DFEJPYILVMEW'
p127
g4
sS'QOEYGDEPRZMZ'
p128
g4
sS'IGUGVQFUISAM'
p129
S'I am looking for someone to share in an adventure Lover of films tattoos country music and wine '
p130
sS'QYWQZLBICJTP'
p131
S'If you like Morrissey we can be friends I like ghouls and I dislike knees Student nurse '
p132
sS'BEZXWBJQJIUD'
p133
g4
sS'JKHMFEIPWUOO'
p134
S'Dance sunshine and snacks are all I need '
p135
sS'OXCOOEPXYNTY'
p136
S' EdinburghSc  Twitter  Instagram Rowanhand'
p137
sS'BLRGAOCKFUYD'
p138
S"Originally from the US just trying out this on the recommendation of a friend I'm a laid back taveller Game of Thrones enthusiast equestrian dog obsessed bacon eater sports fan velociraptor handler in training geek and history nerd Not looking for casual hookups  sorry Just looking to meet new people  Also so it's not a surprise I'm '  cm"
p139
sS'MOTYAFJJRXKH'
p140
S"I'm a fucking punmeister Looking for a drinking partner  someone to take me to Rotato for a jacket potato "
p141
sS'TBWHRLQCTILG'
p142
S'rd year student  Wine loving vegetarian '
p143
sS'DDNNYHPCHFGN'
p144
S"I'm a fucking punmeister Looking for a drinking partner  someone to take me to Rotato for a jacket potato "
p145
sS'YICDMBIOBAFY'
p146
g4
sS'DELARUTXBXYD'
p147
S"Beyonc and Liverpool oh and I'm Dutch studying in Edinburgh "
p148
sS'UIWONCMOLEQF'
p149
S"I'm a fucking punmeister Looking for a drinking partner  someone to take me to Rotato for a jacket potato "
p150
sS'OVLAELSKZJKJ'
p151
S'Student nurse Greedy bisexual At least  composed of Lidl own brand wine '
p152
sS'MNDKYHAAPBKS'
p153
S'EdinburghOban '
p154
sS'KDCPTLXVNPJL'
p155
g4
sS'NMHYDSYFTKDH'
p156
S'avid shower singerenthusiastic drunk rapperlove shrek and not ironicallytwo years ago i was a proficient windsurferlooking for a name for my cactus taking all suggestions'
p157
sS'NQOWOYGNBQAV'
p158
g4
sS'RINZQUPBJJYR'
p159
g4
sS'TMTIVBKTALFO'
p160
S"  bexxjack    bexxxjack   ft  'a like the playstation do you like the  playstation''huv ye heard aw the new rapper music av heard it an a like it'"
p161
sS'LBMCIDZWKDJN'
p162
S'Architecture and design student '
p163
sS'QIFXROIOANDE'
p164
S"I'm a fucking punmeister Looking for a drinking partner  someone to take me to Rotato for a jacket potato "
p165
sS'IZYHBPUMFATY'
p166
g4
sS'FUDPISKCUXGR'
p167
S'Niamh  UofE  English Lit and History '
p168
sS'FNXDBIIRNXTF'
p169
S'yr Fashiontextile student in edinburgh '
p170
sS'BINNBCRQZOJJ'
p171
S'Business student Edinburgh '
p172
sS'JMYURVUIFKOR'
p173
S"Life's too short eat dessert first "
p174
sS'QZQAWGICLDLE'
p175
S"I'm a fucking punmeister Looking for a drinking partner  someone to take me to Rotato for a jacket potato "
p176
sS'UYUXCGSDJSTF'
p177
S"I'm American with family in ScotlandOutgoing and friendly feel free to get to know me Chicago Native "
p178
sS'AGCCUMXSORMI'
p179
g4
sS'VEXATOPUMWLS'
p180
S"American visiting Edinburgh for the week In search the city's best scone "
p181
sS'HQONSBTSHZXQ'
p182
g4
sS'XFCLYHHRKLRV'
p183
S'Originally from London went to uni in Belfast currently a nurse in Leicester ft'
p184
sS'HVDOIFKUTDJJ'
p185
g4
sS'CYOAMVDBOIBL'
p186
S'Et si on allait boire un verre ensemble   '
p187
sS'OCXBRMWBAHRC'
p188
S' Edinburgh Scotland Theatre nurse'
p189
sS'CLLWEOTSAJMO'
p190
S'   '
p191
sS'UXILYRTJGPYL'
p192
g4
sS'QWPEFQCMSJUM'
p193
S'Architecture and design student '
p194
sS'JIZUFUBZJEGL'
p195
g4
sS'JXEDPZWGSDPK'
p196
S'EnglishSwissI speak  languages love travelling art yoga and poetry Based between Edinburgh London and Geneva'
p197
sS'LNHXTZZOGAAS'
p198
S'Pretty much a massive nerd '
p199
sS'AWDFIZDUBUYY'
p200
g4
sS'SHGORMCOZVJT'
p201
S'ScottishAustralian Studying at Edinburgh Uni'
p202
sS'PKDBYGIIODMD'
p203
S"English literature student I like music and tequila I love people with a good sense of humour and bonus points if you can make me laugh Dogs are definitely my weakness I'm about as northerly Scottish as you can get Im terrible at small talk so just straight up ask me if I believe in aliens I'll reply "
p204
sS'CNIOMRRTIMTK'
p205
g4
sS'SIZIGJYEZTUH'
p206
S'Snapchat  razzapee '
p207
sS'LIWBAOGWUHNL'
p208
g4
sS'DEYGDWPZJPTA'
p209
g4
sS'EDPAEQAWUEQU'
p210
S'Architecture and design student '
p211
sS'BWMVIYKWJRJC'
p212
S'Edinburgh Uni'
p213
sS'WZRBWAHCGQAE'
p214
S'University of Edinburgh'
p215
sS'TXRSVKRHUQAL'
p216
S'portree '
p217
sS'MEEHLUNJRTDF'
p218
S'Art student'
p219
sS'LYVIHWFNDXVB'
p220
g4
sS'GEWBBPMNBFZN'
p221
S'Architecture and design student '
p222
sS'TQYALSCLALRS'
p223
g4
sS'OHDOBKXAVDKT'
p224
S'Now recruiting for a winter snuggle buddy '
p225
sS'IXPXCCLDUFKK'
p226
S"Hello I'm Kerry just recently joined this So will see how it goes  Give me a message if you fancy a blether No creeps please "
p227
sS'LSHKOYBNTDIO'
p228
g4
sS'ZWGNFVBXRKYT'
p229
S'Irish in Edinburgh  '
p230
sS'IIJVKYUYDMCS'
p231
S"I'm all about fun and drinking im on tinder coz I'm bored and thinks it's finny looking the pics  hollieash hollies"
p232
sS'SKLMZRAXPLXT'
p233
S"I'm basically a really awkward loser who likes nerdy things and the outdoors Cats are awesome college is fun and I have sass for DAYS on end From the US Studying ANTHRO at Edinburgh  This is the field where I grow my fucks As you can see it is barren Message me first or we're probably not gonna talk IG TayJaeThornTumblr imakittyrawrandstuffSnapchat"
p234
sS'HFDWHSUQMDXV'
p235
S"Steph Blart Mall CopI'm a simple man I like pretty dark haired women and breakfast food "
p236
sS'LJWWHJXKQJJP'
p237
S'Napier student '
p238
sS'KVTRUGXNJGJU'
p239
g4
sS'VRWJADWCPWET'
p240
S'nd year at QMUMade in Sweden'
p241
sS'KNLLSAGJTSNF'
p242
S' Edinburgh Actor Singer Selfie taker'
p243
sS'CQIOHKGKBTGJ'
p244
g4
sS'CUIRAQQZPPVY'
p245
S'SwimmerWater Polo playerStudying at Edinburgh UniWorking part time in sports development '
p246
sS'IPOWKSMHJNLV'
p247
g4
sS'UCMRJCTKQZJK'
p248
S'Architecture and design student '
p249
sS'HKFBXODLHFZD'
p250
g4
sS'YQYBPAMAQDRN'
p251
g4
sS'ZXZRLHFQYVRB'
p252
S'An almostGlasgow girl studying at Edinburgh uni  '
p253
sS'IJLVTPYPKBBW'
p254
S"rd year student completely ditzy and always up for a laugh SnapchatInstagram  speshjess  A woman wants a polite bad boy a guy that'll open the door for her but still smacks her ass as she walks past"
p255
sS'ALGLIMFKQBPW'
p256
g4
sS'RBOAXQKEDRFM'
p257
g4
sS'DADACWUQENND'
p258
g4
sS'BHVZNJLSDSSZ'
p259
S'Tenners bet i could beat you in a race '
p260
sS'WYEZBMBZBABD'
p261
S'Londoner Edinburgh UniShakira is my spirit animal  Instagram aliciamlp'
p262
sS'HWZJULCNXKOY'
p263
S'Edinburgh Uni Lover of all things gin '
p264
sS'FKKRSLQYMDFY'
p265
g4
sS'TAFDTDPZHOLI'
p266
S"My name is Emily Rose yes like the horror movie I'm EnglishCypriot Studying Psychology I like tattoos and listen to any music instagram  emilyrosech"
p267
sS'BCSQFGCVJETH'
p268
g4
sS'YKMMKOVYRCDR'
p269
g4
sS'XSENDMILOBVO'
p270
S'Uni of Edinburgh masters student Love sport cooking coffee gin travelling dogs science and charity work '
p271
sS'IGKAEBAOSVNQ'
p272
g4
sS'VAINBLSGHLAA'
p273
S"I'm a catalan girl studying at Napier University Looking forward to meeting new people If we match talk to me "
p274
sS'WXIUTNTHIDWU'
p275
S'University of Edinburgh  postgraduate University of York  Philosophy'
p276
sS'YAOWOTEUDIRO'
p277
S'Architecture and design student '
p278
sS'MUBRVALPMURV'
p279
S"I'm a fucking punmeister Looking for a drinking partner  someone to take me to Rotato for a jacket potato "
p280
sS'MZWFXPUUBZHR'
p281
S'Instagram ellied'
p282
sS'UANZJLNXIEXG'
p283
S'Med student Edinburgh uni '
p284
sS'HHRXUSEYKNLK'
p285
g4
sS'RVNWOTRKGVNU'
p286
g4
sS'ZPLRSIFFLCQF'
p287
g4
sS'CDCZOCEUPCPZ'
p288
S'Law student Edinburgh unaaaay xoxo'
p289
sS'MWUKODJQVUKH'
p290
g4
sS'YUTXVEGQYCII'
p291
S'Architecture and design student '
p292
sS'CDRIYGOUKZGJ'
p293
S"I'm a fucking punmeister Looking for a drinking partner  someone to take me to Rotato for a jacket potato "
p294
sS'DUYDMGYMIDLN'
p295
g4
sS'HJEOYVRGPSPK'
p296
g4
sS'WMIXFWSGVXKN'
p297
g4
sS'MSHTWGCYBUHQ'
p298
S'Architecture and design student '
p299
sS'BWOGRNQJBAOT'
p300
S"if it's bad for me I'll probably enjoy itsnapchat  ebgordonx"
p301
sS'EZNNDKIEWLVF'
p302
S"Instagram bapsiedeeHiyah  I'm Babs I'm a rd year Psychology student and nooo I can't read your mind by watching you not yet anyway  I work at and run club nights Yes I will always be a little bit fat  Bridget Jones so trueWhy don't you just ask what you want to know I am not going to sext you btw "
p303
sS'IJWDUISZNUMK'
p304
S'Architecture and design student '
p305
sS'WWNMJZNTIYJL'
p306
g4
sS'JRZCNUXECFZD'
p307
S"I'd say I'm not a twat but it would be a lie "
p308
sS'QABICIJMDIIC'
p309
S"rd year pharmacology student If I was your gf I'd never let you go I can take places you ain't never been before Baby take a chance or you'll never ever know "
p310
sS'EWTAJDAAHKCG'
p311
S"I'm a fucking punmeister Looking for a drinking partner  someone to take me to Rotato for a jacket potato "
p312
sS'WGXBRPNWUHED'
p313
S"Give me a rate We might go on a date If it's not fate You can be my mate "
p314
sS'YMHDJMTPFGDE'
p315
S'Pretty fly for a white guyGlitter is always a good ideaI like big dogs'
p316
sS'ASEELRJTBYOV'
p317
g4
sS'ZYGERVGBZTCG'
p318
S"I'm a fucking punmeister Looking for a drinking partner  someone to take me to Rotato for a jacket potato "
p319
sS'WQTOWIZQLPXO'
p320
S"Parade with a 'M' Everybody needs a bosom for a pillow "
p321
sS'XDYVMURWCJEV'
p322
S"I'm a fucking punmeister Looking for a drinking partner  someone to take me to Rotato for a jacket potato "
p323
sS'RPONPWJMNQXW'
p324
S"Ashleigh Maree  single  Australian living in the UK  travel  Facebook  Ashleigh Maree Instagram  ashleighhmaree                                               Talk to me  I don't bite "
p325
sS'FTJZBXPIMVMS'
p326
g4
sS'ZVZBFSIQKJBT'
p327
S'EdinburghNike Sneakers  Piercings Snapchat rebekahcarralx'
p328
sS'YUHTIVNAYSED'
p329
g4
sS'JIWTRXTKXEMD'
p330
S'I do like pia coladasbut mostly just coconut rumNorthern IrishCaymanianEdinburghMSc  UoEIG kelfo whateverkelly'
p331
sS'GZHRHNZMBPFU'
p332
g4
sS'RSECHUNRDZXE'
p333
S'adventure and netflix pls'
p334
sS'KCXBMEBYWYTM'
p335
S'EdinburghBathgate  wine Motown music and sarcasm Edinburgh university politics student'
p336
sS'HUGBYAFWFXLZ'
p337
S'UofE politics student Fife '
p338
sS'BCBHANDWISBU'
p339
S'Architecture and design student '
p340
sS'ICMUHZIQIEOX'
p341
S'Architecture and design student '
p342
sS'UPJYXTPQHLPZ'
p343
S'Architecture and design student '
p344
sS'FAPPIMONGIEE'
p345
S"I got drunk and applied to go on Bargain Hunt Why did the plane crashBecause the pilot was a muffin If you don't crack a smile we aren't meant to be "
p346
sS'TTQZLYNVMWUM'
p347
S'Brighton'
p348
sS'JTUIHTAKUCJU'
p349
g4
sS'JRNWRWXFSAMA'
p350
g4
sS'ZKWHSOZUYJPX'
p351
S''
p352
sS'IARJZENVVLUC'
p353
S'Flowers make my day but rough sex makes my hole weak '
p354
sS'EKCUSHWKUUOI'
p355
S"I'm a fucking punmeister Looking for a drinking partner  someone to take me to Rotato for a jacket potato "
p356
sS'OAJUMBYTNXLI'
p357
S'LondonPinot PalsSunshine'
p358
sS'EKGDRUSZPLAE'
p359
S'Originally Irish but living in EdinburghFirst year at qmu '
p360
sS'JWFHNWSWRQBM'
p361
S' professional singerdancerWorking in ScotlandSomeone take me to winter wonderland pretty please '
p362
sS'DIYZTRWVGFNW'
p363
S'My Kryptonite is my shyness '
p364
sS'GLWVSKGQKHSP'
p365
S'Australian  Teacher Living near London '
p366
sS'MQCVAUGYXPJF'
p367
S'Architecture and design student '
p368
sS'MYIUVEZLEKOT'
p369
S' Country lass at heart                                                                                                                                                                                                                                Shinty for Strathglass and EUSC                    Animal biology in Napier                                                               A rugby and cider kinda gal '
p370
sS'XKLQCBTBEMHJ'
p371
S'Linlithgow Snapchat lauraaaamartin'
p372
sS'SDQVSWECWAIK'
p373
S'rd Year StudentEdinburgh Likely listening to The  '
p374
sS'KUCQGJXQVHBU'
p375
S'Architecture and design student '
p376
sS'DYRDTHPQOEVQ'
p377
S'Looking for a father for my nine beautiful childrenSnapchat joanofclark'
p378
sS'DCPNGSETUESY'
p379
S'Not interested in hookup nor dating only looking for friends who enjoy outdoor activities Also I am building a dating app that is way better than tinder Drop me a line if you are cool  outdoorsy and have a big heart and I will introduce you to my amazing single friends'
p380
sS'OSORWXLGTJHG'
p381
S'Architecture and design student '
p382
sS'NLPEVNMHYQZD'
p383
S"I'm a fucking punmeister Looking for a drinking partner  someone to take me to Rotato for a jacket potato "
p384
sS'GHKVCNOUGORU'
p385
g4
sS'NDTFLXVHIUVW'
p386
S'Architecture and design student '
p387
sS'GZUDMCGUTYLV'
p388
S"I am Australian I am adorable and the swing is my favourite playground apparati I know all the flags of the world Mambo no is my favourite song and I'm pretty bad at bowling "
p389
sS'YFJILGSBTOVS'
p390
S'Instagram  nsneddsnapchat  nicolessneddon'
p391
sS'WSMAJHLJBPQH'
p392
g4
sS'WRGEPIXWYQXF'
p393
S"I'm a fucking punmeister Looking for a drinking partner  someone to take me to Rotato for a jacket potato "
p394
sS'HFJKNBBLMXPL'
p395
S'English Lit at University of Edinburgh '
p396
sS'LJGTCQFTJFBD'
p397
g4
sS'IFYLCQCPCDAX'
p398
S'Architecture and design student '
p399
sS'AKIZWFMFXXUP'
p400
g4
sS'RKCXKGYLJRFQ'
p401
S''
p402
sS'TKCMMQFPAOUK'
p403
S"I'm a fucking punmeister Looking for a drinking partner  someone to take me to Rotato for a jacket potato "
p404
sS'FDEOKXIPJRBJ'
p405
S"Second year history student at UofE I swear I'm more interesting than that makes me sound Instagram charlynch"
p406
sS'UGCNRSFSNCNY'
p407
S'Studying RBM in Edinburgh Ride horses and I like vodka oh and also have gr banter so hit me with what ya got '
p408
sS'NTKUZQZRXQAQ'
p409
g4
sS'HTMFPCDWNMDO'
p410
S'Proud recipient of the Most Detailed Bio On Tinder award  '
p411
sS'FHZQGSEJHZKS'
p412
S"I'm a fucking punmeister Looking for a drinking partner  someone to take me to Rotato for a jacket potato "
p413
sS'TFMVLNQXXUUO'
p414
g4
sS'WHKDSGXGWLLV'
p415
S"performing in my fourth year performance of The Marriage of Bette and Boo so won't be able to reply much this weekendCurrently living in Edinburgh and in my fourth year studying Acting  English at Napier  If you want to know anything just ask  "
p416
sS'TQTORHZTTMFQ'
p417
S'Edinburgh '
p418
sS'AVSFBDCDALYX'
p419
g4
sS'SWUJYQDQUDQG'
p420
S'Architecture and design student '
p421
sS'OMVTNWLZREYJ'
p422
S'Business Student in Edinburgh '
p423
sS'IPFFGRDAOLJL'
p424
g4
sS'PGNLXBARUQBC'
p425
S' hairdresser Howdon '
p426
sS'VLFCIOATXRVX'
p427
S'Edinburgh med skl '
p428
sS'IODIMFDKYYJF'
p429
S'A busy working student with a big interest in life Like to meet new people learn from them discuss or just have fun A lot  of interests so little timeI am just looking for people that have something to say if not please do not swipe right'
p430
sS'OYZDIHNWPGYD'
p431
S'Architecture and design student '
p432
sS'XASHQZEEGZVG'
p433
S'Scottish  studying engineering at Edinburgh uni '
p434
sS'AEIXGDOQXZJE'
p435
S"It's very complicated but basically they told me that I am the center of the universehttpbilyanahristovaemwordpresscom"
p436
sS'HNLZOXZRALED'
p437
g4
sS'NYWWUNOZVIKX'
p438
S'Hey Mr you better be tall '
p439
sS'MUJWAWIDZMOW'
p440
S"My underwear never matchesMy socks are always oddI am always lateI drink too muchI don't think before I speakImpulsive"
p441
sS'RAPQANOJUUZG'
p442
g4
sS'TORRGCIRFXZQ'
p443
g4
sS'NFATOGCPQGLW'
p444
S'Gap year student '
p445
sS'GYDIGWWUAAKZ'
p446
S"First year student from Rep Of Ireland but not dublin I love the outdoors reading bluesjazzrock and just hanging out having the craic really Prefer a day out and a night in My newest venture is taking up going to the gym Bonus points if you have or like dogs ' curvy hourglass  I'm assuming that matters "
p447
sS'PEUGKFAAOIHC'
p448
S'Architecture and design student '
p449
sS'CNEFWOBIYRVT'
p450
S"I'm a fucking punmeister Looking for a drinking partner  someone to take me to Rotato for a jacket potato "
p451
sS'UTCSYUVCNIFU'
p452
S'Architecture and design student '
p453
sS'YUUISJAODLDC'
p454
S'Architecture and design student '
p455
sS'YPJFQXERGDTB'
p456
g4
sS'DYDVLOSGYVYH'
p457
S'I really like animal facts'
p458
sS'GCFTETPDRBUA'
p459
S'London  University of Edinburgh'
p460
sS'UOPWGWHKQOAV'
p461
S"Swipe left if you're not going to chatI have two beautiful and amazing kids who are my world  "
p462
sS'JOSEZLDAIZTK'
p463
g4
sS'ZDSNDYOTSKDV'
p464
S'exchange student from Germanytalents include looking like  and saying thank you to the bus driver'
p465
sS'VNRKDJCUOISI'
p466
S"I'm a fucking punmeister Looking for a drinking partner  someone to take me to Rotato for a jacket potato "
p467
sS'FUETKKMVUJRI'
p468
S'Insta kirstydLove health  fitness crossfit cooking sports Saturday nights out  '
p469
sS'BNEWICHBDEMP'
p470
S'nd year Edinburgh student artificially ginger and a bit of a nerd '
p471
sS'XDROUOUGDCRI'
p472
S"I'm a fucking punmeister Looking for a drinking partner  someone to take me to Rotato for a jacket potato "
p473
sS'TILUKPSLYIWL'
p474
S"I'm a fucking punmeister Looking for a drinking partner  someone to take me to Rotato for a jacket potato "
p475
sS'FIJZWHCYQQFJ'
p476
S"We don't have to take out clothes off To have a good time oh yeh "
p477
sS'HTDEBHCBXYAG'
p478
S'Instagram  laurenoneilllll '
p479
sS'DDEMYAUNMHMQ'
p480
S'Yorkshire lass studying Mechanical Engineering at Edinburgh'
p481
sS'NDITQQTSMIAI'
p482
g4
sS'LAVVOWCZRUOG'
p483
g4
sS'UDGYIOZJNWMM'
p484
g4
sS'ICLBEZYBFISG'
p485
S'Architecture and design student '
p486
sS'CSHFLXOHADJT'
p487
g4
sS'KKDCUICFOUSV'
p488
S"we wont stop until somebody calls the cops and even then we'll start agaaain and just pretend like nothin' ever happened ukulele playa and aspirin' artiste olay wanderlust is me middle name instagremmm  nogginintheclouds"
p489
sS'QJFLEXOOCRNC'
p490
S'BrightonEdinburghGeography studentig saskiaa'
p491
sS'BKYENXTBIVSN'
p492
S"Emma loudenBe happy not sad because sad reversed is 'das' and das no good "
p493
sS'JRVBVMTHZNDF'
p494
S'From Ireland studying nursing in Edinburgh '
p495
sS'QHKXNIIOZKGX'
p496
g4
sS'AEJJIHIPFVJS'
p497
g4
sS'PIEHJTBXCRLZ'
p498
g4
sS'IXXVELDFKVGQ'
p499
S'Edinburgh uni'
p500
sS'CSRBGVLJOHRZ'
p501
S'Architecture and design student '
p502
sS'VAVQBUJHWXPS'
p503
S'Architecture and design student '
p504
sS'OOFNJTGOLRAO'
p505
S'Architecture and design student '
p506
sS'CNTJUXVHDWJV'
p507
g4
sS'LITJDINFXVAR'
p508
g4
sS'KHPUMDBNAYGK'
p509
S"I'm a fucking punmeister Looking for a drinking partner  someone to take me to Rotato for a jacket potato "
p510
sS'PMAFLIIDBMOQ'
p511
S'Student Nurse  Irish  Living in Edinburgh '
p512
sS'SEJPPPAHUMCJ'
p513
S"I'm a fucking punmeister Looking for a drinking partner  someone to take me to Rotato for a jacket potato "
p514
sS'MTQEAQMXNBYH'
p515
g4
sS'BNTCXCMPZSIE'
p516
S"I'm a fucking punmeister Looking for a drinking partner  someone to take me to Rotato for a jacket potato "
p517
sS'AFQAFBKVOYFY'
p518
g4
s.