(dp0
S'YLYSXCKYRMFY'
p1
S'Lisa Snapchat  lisabaillieTwitter  LisaBaillieLisabailliefacebookcom'
p2
sS'BPHWOLIMFLGL'
p3
S'Glasgow Not as much of a poser as pictures suggest'
p4
sS'NLPEVNMHYQZD'
p5
S"I'm a fucking punmeister Looking for a drinking partner  someone to take me to Rotato for a jacket potato "
p6
sS'BGTWQHXCJQOR'
p7
S''
p8
sS'OMVTNWLZREYJ'
p9
S'Business Student in Edinburgh '
p10
sS'OUSJPXCUEJON'
p11
S'Irish lassie studying medicine at Edinburgh uni Anything you wana know just ask  '
p12
sS'RPVZZDKKMHWZ'
p13
S''
p14
sS'GMEDJVHXJCDB'
p15
S'PE Student at University of EdinburghTwitter  KaraMillerInstagram  karamiller'
p16
sS'JMZLQKRLQFMB'
p17
S"With his shitty mother Who let's face it doesn't think you're smart enough Pretty Let's face it doesn't think you're pretty enough Because no one is No one ever will beI tried to send something sexy to your house but the mailman told me to get out of the mail boxI have seen every Disney animated movie madeApparently I have a sophisticated mindPartial to festive hot chocolateI startle easilyMusic business studentI enjoy crappy pickup lines and punsAvid movie watcher"
p18
sS'DPYSJWFIGEZU'
p19
S'Studio Assistant and Postgraduate Student'
p20
sS'TNVBEWMRQZEM'
p21
S"Vet student at Edinburgh UniLover of films books a good night out and singing in the showerIf you don't love dogs there's probably no point"
p22
sS'AFDDOCWWWLPH'
p23
S'Edinburgh'
p24
sS'GJVLZLUEWIHH'
p25
S"With his shitty mother Who let's face it doesn't think you're smart enough Pretty Let's face it doesn't think you're pretty enough Because no one is No one ever will beI tried to send something sexy to your house but the mailman told me to get out of the mail boxI have seen every Disney animated movie madeApparently I have a sophisticated mindPartial to festive hot chocolateI startle easilyMusic business studentI enjoy crappy pickup lines and punsAvid movie watcher"
p26
sS'ZNBDLNYDCTZR'
p27
S''
p28
sS'YRXVSUFCUSCO'
p29
S''
p30
sS'ZCROJMPKIRDG'
p31
S"With his shitty mother Who let's face it doesn't think you're smart enough Pretty Let's face it doesn't think you're pretty enough Because no one is No one ever will beI tried to send something sexy to your house but the mailman told me to get out of the mail boxI have seen every Disney animated movie madeApparently I have a sophisticated mindPartial to festive hot chocolateI startle easilyMusic business studentI enjoy crappy pickup lines and punsAvid movie watcher"
p32
sS'NFATOGCPQGLW'
p33
S'Gap year student '
p34
sS'UXILYRTJGPYL'
p35
g30
sS'GXRNMQBVNZCN'
p36
S''
p37
sS'BXGWUKQQOSDZ'
p38
g30
sS'WGXBRPNWUHED'
p39
S"Give me a rate We might go on a date If it's not fate You can be my mate "
p40
sS'GMULKOLCHCFS'
p41
S''
p42
sS'QPEBKNNRUCRJ'
p43
S"st year Nurse at Dundee uni I'm pretty chatty and always up for an adventure "
p44
sS'NLFKUFLJSUGM'
p45
S"I'm a fucking punmeister Looking for a drinking partner  someone to take me to Rotato for a jacket potato "
p46
sS'YCDVGDFRRYRP'
p47
S'Architecture and design student '
p48
sS'GDLYTBVZXIEU'
p49
S'Uni of Edinburgh History Student pretty crap at dates tho'
p50
sS'YFIRDZUPQUMK'
p51
S"With his shitty mother Who let's face it doesn't think you're smart enough Pretty Let's face it doesn't think you're pretty enough Because no one is No one ever will beI tried to send something sexy to your house but the mailman told me to get out of the mail boxI have seen every Disney animated movie madeApparently I have a sophisticated mindPartial to festive hot chocolateI startle easilyMusic business studentI enjoy crappy pickup lines and punsAvid movie watcher"
p52
sS'CNTJUXVHDWJV'
p53
g30
sS'LCTNTZUBRFBZ'
p54
S''
p55
sS'YCELEKWPSEUD'
p56
S'Lithuanian Business Management student at Qmu'
p57
sS'LQLOESUDMSEI'
p58
S"Live On The Edge  Thats my motto Life's too short not toMy family and friends are amazing actually couldn't live without themNot your usual Girly girl yea i like getting dolled up for a night out but i love lounging about in my trackies lolLove a night out but love a good night in tooIm a fitness adrenaline  sport finatic Love the gym  loads of sports including footieLove the great outdoors  adore Scotland Facebook  Stacey McCallum"
p59
sS'OOZGQUFOWTRV'
p60
S'bios are difficult but I really like dota  and Law and Order SVU and coffee you can usually find me having an existential crisis in the rain somewhere  here for all the genders'
p61
sS'AJWYGSGDZJNJ'
p62
S"Studying to be a Primary School Teacher Would love to travel the world I'm not an alcoholic  I'm a Young Farmer Little country bumpkin who loves Animals and the outdoors "
p63
sS'QGDJLKCHIYGC'
p64
g30
sS'JMYURVUIFKOR'
p65
S"Life's too short eat dessert first "
p66
sS'WMVSTASSRCMS'
p67
S"I'm a fucking punmeister Looking for a drinking partner  someone to take me to Rotato for a jacket potato "
p68
sS'BRJUHPXWWLIF'
p69
S"With his shitty mother Who let's face it doesn't think you're smart enough Pretty Let's face it doesn't think you're pretty enough Because no one is No one ever will beI tried to send something sexy to your house but the mailman told me to get out of the mail boxI have seen every Disney animated movie madeApparently I have a sophisticated mindPartial to festive hot chocolateI startle easilyMusic business studentI enjoy crappy pickup lines and punsAvid movie watcher"
p70
sS'BEZXWBJQJIUD'
p71
g30
sS'QVUAHMWXHAXJ'
p72
g30
sS'TBWHRLQCTILG'
p73
S'rd year student  Wine loving vegetarian '
p74
sS'DDNNYHPCHFGN'
p75
S"I'm a fucking punmeister Looking for a drinking partner  someone to take me to Rotato for a jacket potato "
p76
sS'LFQIDJFWMQVI'
p77
S"If your dreams don't scare you  they aren't big enough "
p78
sS'IZYHBPUMFATY'
p79
g30
sS'FNXDBIIRNXTF'
p80
S'yr Fashiontextile student in edinburgh '
p81
sS'BINNBCRQZOJJ'
p82
S'Business student Edinburgh '
p83
sS'AGCCUMXSORMI'
p84
g30
sS'VEXATOPUMWLS'
p85
S"American visiting Edinburgh for the week In search the city's best scone "
p86
sS'HQONSBTSHZXQ'
p87
g30
sS'XPBABWMZUNHO'
p88
S'Ps beards give me the fear '
p89
sS'WFQEFGDALMMW'
p90
S'NorwayEdinburgh'
p91
sS'GIDUWFMORDXJ'
p92
S' Glasgow '
p93
sS'JXEDPZWGSDPK'
p94
S'EnglishSwissI speak  languages love travelling art yoga and poetry Based between Edinburgh London and Geneva'
p95
sS'AWDFIZDUBUYY'
p96
g30
sS'CTLDFHXGAODM'
p97
S"With his shitty mother Who let's face it doesn't think you're smart enough Pretty Let's face it doesn't think you're pretty enough Because no one is No one ever will beI tried to send something sexy to your house but the mailman told me to get out of the mail boxI have seen every Disney animated movie madeApparently I have a sophisticated mindPartial to festive hot chocolateI startle easilyMusic business studentI enjoy crappy pickup lines and punsAvid movie watcher"
p98
sS'WRRYYDQUPKTA'
p99
S''
p100
sS'SIZIGJYEZTUH'
p101
S'Snapchat  razzapee '
p102
sS'LIWBAOGWUHNL'
p103
g30
sS'WZRBWAHCGQAE'
p104
S'University of Edinburgh'
p105
sS'RPBYFIXNALIK'
p106
S'New Yorker writer tequila enthusiast Looking for an adventuredrinkingsnuggle buddy I look good in your flannel '
p107
sS'AJPKTSSMMECB'
p108
S' Hello Im Shauna Love animals I have a wee dog that looks like an ewok I also bake a pretty good cakeOh and I study psychology and politics I also like napping and making myself and sometimes others look like zombies '
p109
sS'LYVIHWFNDXVB'
p110
g30
sS'OHDOBKXAVDKT'
p111
S'Now recruiting for a winter snuggle buddy '
p112
sS'IXPXCCLDUFKK'
p113
S"Hello I'm Kerry just recently joined this So will see how it goes  Give me a message if you fancy a blether No creeps please "
p114
sS'GZHRHNZMBPFU'
p115
g30
sS'ZWGNFVBXRKYT'
p116
S'Irish in Edinburgh  '
p117
sS'GSBVWPFZWTNA'
p118
S'Work as a Carer  Would rather high topsconverse over heels  Love my wee Archie '
p119
sS'OHVTCNXMLKVK'
p120
g30
sS'WSMAJHLJBPQH'
p121
g30
sS'HCDEKBOYIPKS'
p122
S'PhotographerEnglish  Snapchat abbygailjane'
p123
sS'BHVZNJLSDSSZ'
p124
S'Tenners bet i could beat you in a race '
p125
sS'WYEZBMBZBABD'
p126
S'Londoner Edinburgh UniShakira is my spirit animal  Instagram aliciamlp'
p127
sS'FKKRSLQYMDFY'
p128
g30
sS'TAFDTDPZHOLI'
p129
S"My name is Emily Rose yes like the horror movie I'm EnglishCypriot Studying Psychology I like tattoos and listen to any music instagram  emilyrosech"
p130
sS'AKIZWFMFXXUP'
p131
g30
sS'WXIUTNTHIDWU'
p132
S'University of Edinburgh  postgraduate University of York  Philosophy'
p133
sS'RVNWOTRKGVNU'
p134
g30
sS'CDCZOCEUPCPZ'
p135
S'Law student Edinburgh unaaaay xoxo'
p136
sS'LENKWEJFWMUP'
p137
S'Live life to the fullFarm girl at heart love the outdoorsRugbyFootball SkiingTravelling Send me a message  '
p138
sS'RLOCDKNTFRZY'
p139
S''
p140
sS'DUYDMGYMIDLN'
p141
g30
sS'MQOYBSGFUWCW'
p142
S'Tall brunette sportie  Love adventures  travelling but nothing beats long winter walks  with my doggy '
p143
sS'VHLEWNVOITZE'
p144
S'Own house Got a  year old son I work If we match Message me'
p145
sS'IJWDUISZNUMK'
p146
S'Architecture and design student '
p147
sS'WWNMJZNTIYJL'
p148
g30
sS'BLWTJNOAZHKS'
p149
S"I'm  I sing I work in William Hill  And that is about all that is interesting about me  OH AND I NOW DRIVE woooooo "
p150
sS'MKOJBGHLQKGA'
p151
S"With his shitty mother Who let's face it doesn't think you're smart enough Pretty Let's face it doesn't think you're pretty enough Because no one is No one ever will beI tried to send something sexy to your house but the mailman told me to get out of the mail boxI have seen every Disney animated movie madeApparently I have a sophisticated mindPartial to festive hot chocolateI startle easilyMusic business studentI enjoy crappy pickup lines and punsAvid movie watcher"
p152
sS'RCFBBTZXEWIB'
p153
g30
sS'QHKXNIIOZKGX'
p154
g30
sS'XAEVDHCWYAZH'
p155
g30
sS'RSECHUNRDZXE'
p156
S'adventure and netflix pls'
p157
sS'ACYZJAGPQJOL'
p158
g30
sS'KOACFZPNWWHK'
p159
S"With his shitty mother Who let's face it doesn't think you're smart enough Pretty Let's face it doesn't think you're pretty enough Because no one is No one ever will beI tried to send something sexy to your house but the mailman told me to get out of the mail boxI have seen every Disney animated movie madeApparently I have a sophisticated mindPartial to festive hot chocolateI startle easilyMusic business studentI enjoy crappy pickup lines and punsAvid movie watcher"
p160
sS'JRNWRWXFSAMA'
p161
g30
sS'ZKWHSOZUYJPX'
p162
S''
p163
sS'NYMKWOSFYWHK'
p164
S"With his shitty mother Who let's face it doesn't think you're smart enough Pretty Let's face it doesn't think you're pretty enough Because no one is No one ever will beI tried to send something sexy to your house but the mailman told me to get out of the mail boxI have seen every Disney animated movie madeApparently I have a sophisticated mindPartial to festive hot chocolateI startle easilyMusic business studentI enjoy crappy pickup lines and punsAvid movie watcher"
p165
sS'DIYZTRWVGFNW'
p166
S'My Kryptonite is my shyness '
p167
sS'LJWWHJXKQJJP'
p168
S'Napier student '
p169
sS'MQCVAUGYXPJF'
p170
S'Architecture and design student '
p171
sS'YNZOIUUIRCRO'
p172
S'Architecture and design student '
p173
sS'UIWONCMOLEQF'
p174
S"I'm a fucking punmeister Looking for a drinking partner  someone to take me to Rotato for a jacket potato "
p175
sS'KNUCYGVMPLMZ'
p176
g30
sS'HVABGOXVQVBF'
p177
g30
sS'OSORWXLGTJHG'
p178
S'Architecture and design student '
p179
sS'GHKVCNOUGORU'
p180
g30
sS'GHAMEAIAHTWO'
p181
S"With his shitty mother Who let's face it doesn't think you're smart enough Pretty Let's face it doesn't think you're pretty enough Because no one is No one ever will beI tried to send something sexy to your house but the mailman told me to get out of the mail boxI have seen every Disney animated movie madeApparently I have a sophisticated mindPartial to festive hot chocolateI startle easilyMusic business studentI enjoy crappy pickup lines and punsAvid movie watcher"
p182
sS'YFJILGSBTOVS'
p183
S'Instagram  nsneddsnapchat  nicolessneddon'
p184
sS'HFJKNBBLMXPL'
p185
S'English Lit at University of Edinburgh '
p186
sS'IFYLCQCPCDAX'
p187
S'Architecture and design student '
p188
sS'TMTIVBKTALFO'
p189
S"  bexxjack    bexxxjack   ft  'a like the playstation do you like the  playstation''huv ye heard aw the new rapper music av heard it an a like it'"
p190
sS'BHNCCJXYISIZ'
p191
S'Just graduated from Dundee University in Scots law '
p192
sS'TTQZLYNVMWUM'
p193
S'Brighton'
p194
sS'POOBPEGGSJMP'
p195
S''
p196
sS'TQTORHZTTMFQ'
p197
S'Edinburgh '
p198
sS'SWUJYQDQUDQG'
p199
S'Architecture and design student '
p200
sS'LZOMSMTUDSZB'
p201
S'Roses are red Violets are blueI like sour cream and chive Pringles and grilled halloumi '
p202
sS'ANGBGVAEDFRN'
p203
S"unimportant stuff and pizza it's all that matters "
p204
sS'VLFCIOATXRVX'
p205
S'Edinburgh med skl '
p206
sS'SHFICNHVMAPC'
p207
S'ItalianJapanese rd year History and Economics at St Andrews'
p208
sS'LUHMPGQDKANC'
p209
S''
p210
sS'WRAPWDBXTDTR'
p211
S''
p212
sS'KZFZZIBUSAPI'
p213
g30
sS'HKTAMFUTCKGR'
p214
S"My only motto in life is don't lose  Nicki Minaj Sc idkhannahmaybePop up if we match "
p215
sS'HVKQULCMFALG'
p216
S'Instagram jennyxxSnapchat jennycTwitter JennyCuthbertLove a man with a beard Fife '
p217
sS'YPJFQXERGDTB'
p218
g30
sS'VNRKDJCUOISI'
p219
S"I'm a fucking punmeister Looking for a drinking partner  someone to take me to Rotato for a jacket potato "
p220
sS'YMURYEZGFYFQ'
p221
g30
sS'FUETKKMVUJRI'
p222
S'Insta kirstydLove health  fitness crossfit cooking sports Saturday nights out  '
p223
sS'ZOTPBZLZNVVF'
p224
S''
p225
sS'FTJZBXPIMVMS'
p226
g30
sS'LZIIVOCNEDIN'
p227
S"Just a fugly bitch with unbelievably high standards nd yr psychology and counselling student at Abertay If you wear a suit or have a beard I'll probably like you I'll like you more if you can amuse me with terribly bad puns Also it's a bonus if you play rugby instasnapchattwitter  chldgn"
p228
sS'GYQREMFGASNQ'
p229
S"With his shitty mother Who let's face it doesn't think you're smart enough Pretty Let's face it doesn't think you're pretty enough Because no one is No one ever will beI tried to send something sexy to your house but the mailman told me to get out of the mail boxI have seen every Disney animated movie madeApparently I have a sophisticated mindPartial to festive hot chocolateI startle easilyMusic business studentI enjoy crappy pickup lines and punsAvid movie watcher"
p230
sS'JRVBVMTHZNDF'
p231
S'From Ireland studying nursing in Edinburgh '
p232
sS'EDVMTQGZITHX'
p233
g30
sS'OOFNJTGOLRAO'
p234
S'Architecture and design student '
p235
sS'LITJDINFXVAR'
p236
g30
sS'URIORIEVHPAU'
p237
S" Film and Theatre Student I love marvel DC and generally all things nerdy Looking for a relationship  can't hurt to try tinder Feel free to send me a message "
p238
sS'LNHXTZZOGAAS'
p239
S'Pretty much a massive nerd '
p240
sS'NZIMFLXVBRZY'
p241
S" years in Prague in Brittanyalmost in Glasgow Hate tomato juiceenjoy musical theatredon't understand heavy metal and wish there were more bike paths in citiesalthough being a road pirate is fun from time to time"
p242
sS'AUTIKTHFSHQX'
p243
S'Keyshia   Santander Investments Workaholic love travelling  Half FilipinoScottish Insta kmc'
p244
sS'CAXOBZATNBPS'
p245
g30
sS'EOLFXEXASLLG'
p246
S"Some people call me the space cowboy Some call me the gangster of love Some people call me Maurice  But please don't because my name is Charlie and that's incorrect"
p247
sS'MVVSFEAYEHPN'
p248
S"With his shitty mother Who let's face it doesn't think you're smart enough Pretty Let's face it doesn't think you're pretty enough Because no one is No one ever will beI tried to send something sexy to your house but the mailman told me to get out of the mail boxI have seen every Disney animated movie madeApparently I have a sophisticated mindPartial to festive hot chocolateI startle easilyMusic business studentI enjoy crappy pickup lines and punsAvid movie watcher"
p249
sS'NLHFWBJWCBMY'
p250
g30
sS'MATQMFRDNXHZ'
p251
S'Second year brewing and distilling at heriot watt university '
p252
sS'SEWVCXXMAAXA'
p253
S'Fried chicken and chill '
p254
sS'RFRZFXATHEAY'
p255
g30
sS'FBIDISGEZAQV'
p256
S'Healthy living Music Hiking Films Dancing Books Tea and coffee Cooking Guitar Travelling Cycling '
p257
sS'VVLUJJMBOZKG'
p258
S'I paid this owl to make me look good '
p259
sS'XLWLXZEFZLVM'
p260
S"I'm a fucking punmeister Looking for a drinking partner  someone to take me to Rotato for a jacket potato "
p261
sS'LQHCGHEPJKAF'
p262
g30
sS'WAFBUXQJZMPS'
p263
g30
sS'HKFBXODLHFZD'
p264
g30
sS'HMEIEWYEGLEM'
p265
S"my name's actually chlo lolfrenchamerican lifeguard singer volleyball player "
p266
sS'MSHTWGCYBUHQ'
p267
S'Architecture and design student '
p268
sS'HPWLTDYRLUSW'
p269
g30
sS'JLPJLJUAVXVB'
p270
S'Wine them dine them and  them That Professional Cookery student twat thing from Edinburgh  DC or die'
p271
sS'SOYIULETYALA'
p272
S"I'm a fucking punmeister Looking for a drinking partner  someone to take me to Rotato for a jacket potato "
p273
sS'DANOBPMAMOLF'
p274
g30
sS'BQTZIWHAFENZ'
p275
g30
sS'FNIBVQAXTHDX'
p276
S"just recently moved to AberdeenNursery teacherIf I'm not home you'll find me in Ibiza or Orlando "
p277
sS'FVVNPCXBFDTI'
p278
S''
p279
sS'UJHSMSVAKAVB'
p280
S'History and Philosophy student at Dundee Uni From Dunfermline Love travelling I have  and a half tattoos and motorbikes are fun Monkey not included '
p281
sS'USVKNLWYLDVU'
p282
g30
sS'IPQWVCDRFNNR'
p283
S"Laurie  love my job and going to the gym If you're sarcastic and are a lover of puns we're already pals Love a laugh and meeting new people "
p284
sS'ZPLRSIFFLCQF'
p285
g30
sS'UIKKSKXKWBDH'
p286
S'Geography Edinburgh  Yorkshire '
p287
sS'LRTKXHCRUFNV'
p288
S'South African living in Edinburgh Full time athlete Twitter minigadsbySnapchat clairegadsby'
p289
sS'BFUNMDOSHNEH'
p290
S' not  Snapchat christinamx  '
p291
sS'JQCWOXNZRRBP'
p292
g30
sS'JASKRYLWRAKL'
p293
g30
sS'DFEJPYILVMEW'
p294
g30
sS'IGUGVQFUISAM'
p295
S'I am looking for someone to share in an adventure Lover of films tattoos country music and wine '
p296
sS'QYWQZLBICJTP'
p297
S'If you like Morrissey we can be friends I like ghouls and I dislike knees Student nurse '
p298
sS'JKHMFEIPWUOO'
p299
S'Dance sunshine and snacks are all I need '
p300
sS'TFHAABJBLPLF'
p301
S'I am a very shy person with a big heartI studied health and social care in queen Margaret uni  I am at Edinburgh college studying nursingDream is to become a paramedic somedaySnapchat teaganc'
p302
sS'BLRGAOCKFUYD'
p303
S"Originally from the US just trying out this on the recommendation of a friend I'm a laid back taveller Game of Thrones enthusiast equestrian dog obsessed bacon eater sports fan velociraptor handler in training geek and history nerd Not looking for casual hookups  sorry Just looking to meet new people  Also so it's not a surprise I'm '  cm"
p304
sS'NEIVYSRLTZOM'
p305
g30
sS'KBUQRRVNEORU'
p306
S"I'm from Poland but currently I'm studying accountancy and finance at the University of Glasgow "
p307
sS'UOPWGWHKQOAV'
p308
S"Swipe left if you're not going to chatI have two beautiful and amazing kids who are my world  "
p309
sS'UYMGLJDQOUXY'
p310
S'Blithn not whatever that is Irish Northern Ireland  studying teaching in Glasgow '
p311
sS'XFDQBACYVOOT'
p312
g30
sS'RPONPWJMNQXW'
p313
S"Ashleigh Maree  single  Australian living in the UK  travel  Facebook  Ashleigh Maree Instagram  ashleighhmaree                                               Talk to me  I don't bite "
p314
sS'QZQAWGICLDLE'
p315
S"I'm a fucking punmeister Looking for a drinking partner  someone to take me to Rotato for a jacket potato "
p316
sS'UYUXCGSDJSTF'
p317
S"I'm American with family in ScotlandOutgoing and friendly feel free to get to know me Chicago Native "
p318
sS'XURAZWZPJKBE'
p319
S'Snapchat   xocharleyxo'
p320
sS'OCXBRMWBAHRC'
p321
S' Edinburgh Scotland Theatre nurse'
p322
sS'JIZUFUBZJEGL'
p323
g30
sS'LSVGTRAHYBXT'
p324
S"With his shitty mother Who let's face it doesn't think you're smart enough Pretty Let's face it doesn't think you're pretty enough Because no one is No one ever will beI tried to send something sexy to your house but the mailman told me to get out of the mail boxI have seen every Disney animated movie madeApparently I have a sophisticated mindPartial to festive hot chocolateI startle easilyMusic business studentI enjoy crappy pickup lines and punsAvid movie watcher"
p325
sS'DEYGDWPZJPTA'
p326
g30
sS'BWMVIYKWJRJC'
p327
S'Edinburgh Uni'
p328
sS'TXRSVKRHUQAL'
p329
S'portree '
p330
sS'GIPFXRPUPLRX'
p331
S''
p332
sS'XKLQCBTBEMHJ'
p333
S'Linlithgow Snapchat lauraaaamartin'
p334
sS'KUCQGJXQVHBU'
p335
S'Architecture and design student '
p336
sS'CUIRAQQZPPVY'
p337
S'SwimmerWater Polo playerStudying at Edinburgh UniWorking part time in sports development '
p338
sS'IOUFPSNHDDFQ'
p339
S"I'm not sure what to put here Hello I guessI'm a coffee wench photography enjoyer Mary Berry wonna be and a bad pun enthusiast I love all things fluffy and edible basically I'm looking for a michelin starred owlet in my life "
p340
sS'WOZIZZKQRGDL'
p341
S''
p342
sS'IJLVTPYPKBBW'
p343
S"rd year student completely ditzy and always up for a laugh SnapchatInstagram  speshjess  A woman wants a polite bad boy a guy that'll open the door for her but still smacks her ass as she walks past"
p344
sS'ALGLIMFKQBPW'
p345
g30
sS'RGSCVPHGYXGT'
p346
g30
sS'HWZJULCNXKOY'
p347
S'Edinburgh Uni Lover of all things gin '
p348
sS'XSENDMILOBVO'
p349
S'Uni of Edinburgh masters student Love sport cooking coffee gin travelling dogs science and charity work '
p350
sS'IGKAEBAOSVNQ'
p351
g30
sS'EGEZAIXBFGYH'
p352
g30
sS'DBSJGHTDBPXD'
p353
g30
sS'JSDSQBEYXPVZ'
p354
S'Ma names TalithaA like cats apples n methCurrently lookin for someone who can tell me what the hells goin on in narcos'
p355
sS'PYWVOBLMAUDW'
p356
S"With his shitty mother Who let's face it doesn't think you're smart enough Pretty Let's face it doesn't think you're pretty enough Because no one is No one ever will beI tried to send something sexy to your house but the mailman told me to get out of the mail boxI have seen every Disney animated movie madeApparently I have a sophisticated mindPartial to festive hot chocolateI startle easilyMusic business studentI enjoy crappy pickup lines and punsAvid movie watcher"
p357
sS'SCIORTLIECQS'
p358
S"With his shitty mother Who let's face it doesn't think you're smart enough Pretty Let's face it doesn't think you're pretty enough Because no one is No one ever will beI tried to send something sexy to your house but the mailman told me to get out of the mail boxI have seen every Disney animated movie madeApparently I have a sophisticated mindPartial to festive hot chocolateI startle easilyMusic business studentI enjoy crappy pickup lines and punsAvid movie watcher"
p359
sS'JRZCNUXECFZD'
p360
S"I'd say I'm not a twat but it would be a lie "
p361
sS'QABICIJMDIIC'
p362
S"rd year pharmacology student If I was your gf I'd never let you go I can take places you ain't never been before Baby take a chance or you'll never ever know "
p363
sS'RYXBPRCGYCGM'
p364
g30
sS'CHRXGMTIGZFZ'
p365
S'Second year psychology and sociology student at StirlingSnapchat  mriai'
p366
sS'KMCHPMZQAFYL'
p367
S"If your gonna ask me for a shag don't even bother messaging meLooking for a long term relationship not fun Or even just a pal cause I've no friends   Only if your genuinely serious about a relationship or friendship message me Fed up of being used and messed aboutadd my snapchat niamhmabelxo Follow my instagram niamhh"
p368
sS'UHODLEETCBLR'
p369
g30
sS'HUGBYAFWFXLZ'
p370
S'UofE politics student Fife '
p371
sS'JTUIHTAKUCJU'
p372
g30
sS'EKGDRUSZPLAE'
p373
S'Originally Irish but living in EdinburghFirst year at qmu '
p374
sS'POQIZLFCYQHC'
p375
S"I'm a fucking punmeister Looking for a drinking partner  someone to take me to Rotato for a jacket potato "
p376
sS'MYIUVEZLEKOT'
p377
S' Country lass at heart                                                                                                                                                                                                                                Shinty for Strathglass and EUSC                    Animal biology in Napier                                                               A rugby and cider kinda gal '
p378
sS'SDQVSWECWAIK'
p379
S'rd Year StudentEdinburgh Likely listening to The  '
p380
sS'DYRDTHPQOEVQ'
p381
S'Looking for a father for my nine beautiful childrenSnapchat joanofclark'
p382
sS'QOEYGDEPRZMZ'
p383
g30
sS'KNXIXOECYVJL'
p384
g30
sS'YRVWCVEDVZPS'
p385
S'Studying television production TV show addict music lover '
p386
sS'RPNBUVTTOKMH'
p387
S"  LanarkAlmost a qualified nursery teacherLove a good night outSpeak to me I don't bitesnapchatabbiemckay"
p388
sS'RKCXKGYLJRFQ'
p389
S''
p390
sS'TKCMMQFPAOUK'
p391
S"I'm a fucking punmeister Looking for a drinking partner  someone to take me to Rotato for a jacket potato "
p392
sS'NTKUZQZRXQAQ'
p393
g30
sS'YUHTIVNAYSED'
p394
g30
sS'PGNLXBARUQBC'
p395
S' hairdresser Howdon '
p396
sS'AEIXGDOQXZJE'
p397
S"It's very complicated but basically they told me that I am the center of the universehttpbilyanahristovaemwordpresscom"
p398
sS'NYWWUNOZVIKX'
p399
S'Hey Mr you better be tall '
p400
sS'HJZMQRNPIVPZ'
p401
S''
p402
sS'RAPQANOJUUZG'
p403
g30
sS'GYDIGWWUAAKZ'
p404
S"First year student from Rep Of Ireland but not dublin I love the outdoors reading bluesjazzrock and just hanging out having the craic really Prefer a day out and a night in My newest venture is taking up going to the gym Bonus points if you have or like dogs ' curvy hourglass  I'm assuming that matters "
p405
sS'UTCSYUVCNIFU'
p406
S'Architecture and design student '
p407
sS'YICDMBIOBAFY'
p408
g30
sS'OSLEKPYGFVNO'
p409
S'Doing my second degree in LLB LawI like long romantic walks to the fridge'
p410
sS'BNEWICHBDEMP'
p411
S'nd year Edinburgh student artificially ginger and a bit of a nerd '
p412
sS'MRDEZBYKTRTW'
p413
g30
sS'TILUKPSLYIWL'
p414
S"I'm a fucking punmeister Looking for a drinking partner  someone to take me to Rotato for a jacket potato "
p415
sS'BIWIJHZEKGXI'
p416
S'No man buns '
p417
sS'LAVVOWCZRUOG'
p418
g30
sS'OCLAFALWOTPT'
p419
S''
p420
sS'UDGYIOZJNWMM'
p421
g30
sS'MOTYAFJJRXKH'
p422
S"I'm a fucking punmeister Looking for a drinking partner  someone to take me to Rotato for a jacket potato "
p423
sS'RCKEZJZJXKIT'
p424
g30
sS'IXXVELDFKVGQ'
p425
S'Edinburgh uni'
p426
sS'CSRBGVLJOHRZ'
p427
S'Architecture and design student '
p428
sS'VAVQBUJHWXPS'
p429
S'Architecture and design student '
p430
sS'PRSNBBIZHMBH'
p431
g30
sS'DHIDBMKNQYMA'
p432
S'Food wrestling and pop punklove people with tattoos Sarcasm is a must Guys that can drive '
p433
sS'MWMIBZWDGSPS'
p434
g30
sS'OTQQCQPEGBPL'
p435
S''
p436
sS'IGDRGZOHVDOY'
p437
S'From Donegal in th year at RGU'
p438
sS'TRVXTWHMYZXK'
p439
S''
p440
sS'YTWMGPPCMCDP'
p441
S'Lusaka London Edinburgh '
p442
sS'GXSGWLVUTPPZ'
p443
S'Northern Irish Business and Finance student at University of Edinburgh '
p444
sS'WTEFEUGLKCSZ'
p445
S'add Snapchat kaitlynkiernan need pals'
p446
sS'RNJUJXTOGRXN'
p447
S'I will like you if you have a dog'
p448
sS'YICIIVDKDFGQ'
p449
S'Architecture and design student '
p450
sS'BMQPKDLACMBM'
p451
g30
sS'GEWBBPMNBFZN'
p452
S'Architecture and design student '
p453
sS'DDEMYAUNMHMQ'
p454
S'Yorkshire lass studying Mechanical Engineering at Edinburgh'
p455
sS'MPIZGCLTTKFH'
p456
S'snapchat    emmahornexinstagram   emmahornexage              from            falkirk always up for a giggle family means more than the world'
p457
sS'UUEDPPEWWYKQ'
p458
g30
sS'BLKBIYTNNIZG'
p459
S'American  studying abroad in Edinburgh'
p460
sS'AUWBOPLERHMD'
p461
S''
p462
sS'HFVECPTGXNLR'
p463
g30
sS'OGXKPFTUTMPS'
p464
S'DundeeGalashiels'
p465
sS'IXTHLUYJNXCA'
p466
g30
sS'MDKBOUPMEXWM'
p467
g30
sS'YADAKJBUMFEX'
p468
S"I'm a fucking punmeister Looking for a drinking partner  someone to take me to Rotato for a jacket potato "
p469
sS'KYVWCPUDHUKT'
p470
g30
sS'HEHXZOTBDBXG'
p471
S"I'm a fucking punmeister Looking for a drinking partner  someone to take me to Rotato for a jacket potato "
p472
sS'JKBCWDPQREMO'
p473
S"I'm a fucking punmeister Looking for a drinking partner  someone to take me to Rotato for a jacket potato "
p474
sS'DIVQIGTIWMPI'
p475
S"With his shitty mother Who let's face it doesn't think you're smart enough Pretty Let's face it doesn't think you're pretty enough Because no one is No one ever will beI tried to send something sexy to your house but the mailman told me to get out of the mail boxI have seen every Disney animated movie madeApparently I have a sophisticated mindPartial to festive hot chocolateI startle easilyMusic business studentI enjoy crappy pickup lines and punsAvid movie watcher"
p476
sS'RKQAJPJCCASO'
p477
S'Edinburgh  Durham'
p478
sS'ESDYDXFRLCBE'
p479
S''
p480
sS'INVIXMQUSUGA'
p481
S'ScottishActivity instructor Rock climbing Up for a good laughwhy not give me a message  '
p482
sS'GCTYQTFRPRMJ'
p483
S'Bristol Uni graduateJust wanna drink wine and take naps '
p484
sS'PZQVNYVJVLMH'
p485
S" years oldProud mum to two beautiful young boys Jayden  Tyler They are my life No one will ever come before them So if you Can't accept I have two beautiful little boys Then swipe left Bit of a adrenaline junkie love my theme parksAlso love football Hibernian fcFrom Edinburgh Snapchat SamanthacowiexxInstagram Samanthacowiexx"
p486
sS'YEDLOCTGATVF'
p487
S"With his shitty mother Who let's face it doesn't think you're smart enough Pretty Let's face it doesn't think you're pretty enough Because no one is No one ever will beI tried to send something sexy to your house but the mailman told me to get out of the mail boxI have seen every Disney animated movie madeApparently I have a sophisticated mindPartial to festive hot chocolateI startle easilyMusic business studentI enjoy crappy pickup lines and punsAvid movie watcher"
p488
sS'XFZZYHWMBTSB'
p489
S''
p490
sS'WXIRURYTUEPX'
p491
g30
sS'GWJRNHYTVDVF'
p492
S'Jennifer Smith'
p493
sS'OXCOOEPXYNTY'
p494
S' EdinburghSc  Twitter  Instagram Rowanhand'
p495
sS'WMIXFWSGVXKN'
p496
g30
sS'NRAWUIHYKVBK'
p497
g30
sS'KDCPTLXVNPJL'
p498
g30
sS'RINZQUPBJJYR'
p499
g30
sS'MUBRVALPMURV'
p500
S"I'm a fucking punmeister Looking for a drinking partner  someone to take me to Rotato for a jacket potato "
p501
sS'ENTDUDBZQLHL'
p502
S"With his shitty mother Who let's face it doesn't think you're smart enough Pretty Let's face it doesn't think you're pretty enough Because no one is No one ever will beI tried to send something sexy to your house but the mailman told me to get out of the mail boxI have seen every Disney animated movie madeApparently I have a sophisticated mindPartial to festive hot chocolateI startle easilyMusic business studentI enjoy crappy pickup lines and punsAvid movie watcher"
p503
sS'BXYNAMDZSDXS'
p504
S''
p505
sS'CYOAMVDBOIBL'
p506
S'Et si on allait boire un verre ensemble   '
p507
sS'YLIUECDYLWZK'
p508
S'Child nursing studentCheckout chick extraordinaireThe Office fanaticWine addictKate in a nutshell'
p509
sS'RCGCEUJUGUQI'
p510
S"Hannah Weldon Just your typical girl from Alloa loving for the weekend and partying with my friends Obsessed with The Courteeners If staying in every weekend to Netflix  Chill is your thing it's a big  from me"
p511
sS'DLERGEJUTXWZ'
p512
S'Student at Glasgow uni Learning BSL reading Game of Thrones at the moment involved in Guiding dogs and animal lover also interested in science drawing the outdoors etc'
p513
sS'QWPEFQCMSJUM'
p514
S'Architecture and design student '
p515
sS'YXFPTHTOTYQM'
p516
S'Yorkshire pudding working down south I like giraffes and the pub and foodYes I am the little mermaid'
p517
sS'XDROUOUGDCRI'
p518
S"I'm a fucking punmeister Looking for a drinking partner  someone to take me to Rotato for a jacket potato "
p519
sS'PKDBYGIIODMD'
p520
S"English literature student I like music and tequila I love people with a good sense of humour and bonus points if you can make me laugh Dogs are definitely my weakness I'm about as northerly Scottish as you can get Im terrible at small talk so just straight up ask me if I believe in aliens I'll reply "
p521
sS'CCVBSZSLAUJB'
p522
S"With his shitty mother Who let's face it doesn't think you're smart enough Pretty Let's face it doesn't think you're pretty enough Because no one is No one ever will beI tried to send something sexy to your house but the mailman told me to get out of the mail boxI have seen every Disney animated movie madeApparently I have a sophisticated mindPartial to festive hot chocolateI startle easilyMusic business studentI enjoy crappy pickup lines and punsAvid movie watcher"
p523
sS'LSHKOYBNTDIO'
p524
g30
sS'MEEHLUNJRTDF'
p525
S'Art student'
p526
sS'SEJPPPAHUMCJ'
p527
S"I'm a fucking punmeister Looking for a drinking partner  someone to take me to Rotato for a jacket potato "
p528
sS'FDEOKXIPJRBJ'
p529
S"Second year history student at UofE I swear I'm more interesting than that makes me sound Instagram charlynch"
p530
sS'IIJVKYUYDMCS'
p531
S"I'm all about fun and drinking im on tinder coz I'm bored and thinks it's finny looking the pics  hollieash hollies"
p532
sS'CDRIYGOUKZGJ'
p533
S"I'm a fucking punmeister Looking for a drinking partner  someone to take me to Rotato for a jacket potato "
p534
sS'HESYSYVRECBI'
p535
g30
sS'VRWJADWCPWET'
p536
S'nd year at QMUMade in Sweden'
p537
sS'RLYTGRPCEQXW'
p538
S'NicolaaHockeyysomething about the bad boys that makes the good girls fall in love '
p539
sS'IPOWKSMHJNLV'
p540
g30
sS'UCMRJCTKQZJK'
p541
S'Architecture and design student '
p542
sS'YQYBPAMAQDRN'
p543
g30
sS'YPLDPPGPPIXS'
p544
S"With his shitty mother Who let's face it doesn't think you're smart enough Pretty Let's face it doesn't think you're pretty enough Because no one is No one ever will beI tried to send something sexy to your house but the mailman told me to get out of the mail boxI have seen every Disney animated movie madeApparently I have a sophisticated mindPartial to festive hot chocolateI startle easilyMusic business studentI enjoy crappy pickup lines and punsAvid movie watcher"
p545
sS'HPRZYYXROSEL'
p546
S'Surfing snowboarding socialwork studentif found please return to any old man pub'
p547
sS'DADACWUQENND'
p548
g30
sS'OYZDIHNWPGYD'
p549
S'Architecture and design student '
p550
sS'UANZJLNXIEXG'
p551
S'Med student Edinburgh uni '
p552
sS'HHRXUSEYKNLK'
p553
g30
sS'MWUKODJQVUKH'
p554
g30
sS'YUTXVEGQYCII'
p555
S'Architecture and design student '
p556
sS'EZNNDKIEWLVF'
p557
S"Instagram bapsiedeeHiyah  I'm Babs I'm a rd year Psychology student and nooo I can't read your mind by watching you not yet anyway  I work at and run club nights Yes I will always be a little bit fat  Bridget Jones so trueWhy don't you just ask what you want to know I am not going to sext you btw "
p558
sS'EEIEZPKIBPUQ'
p559
S'Architecture and design student '
p560
sS'VAINBLSGHLAA'
p561
S"I'm a catalan girl studying at Napier University Looking forward to meeting new people If we match talk to me "
p562
sS'UAKANDGFFHWG'
p563
S'Nursing student need someone to keep me warm at night Seriously my flats freezingLove hockey music and filmsHate boats and horses S'
p564
sS'XGOXDWHFJDGE'
p565
g30
sS'YMHDJMTPFGDE'
p566
S'Pretty fly for a white guyGlitter is always a good ideaI like big dogs'
p567
sS'ASEELRJTBYOV'
p568
g30
sS'ZYGERVGBZTCG'
p569
S"I'm a fucking punmeister Looking for a drinking partner  someone to take me to Rotato for a jacket potato "
p570
sS'WQTOWIZQLPXO'
p571
S"Parade with a 'M' Everybody needs a bosom for a pillow "
p572
sS'ZVZBFSIQKJBT'
p573
S'EdinburghNike Sneakers  Piercings Snapchat rebekahcarralx'
p574
sS'JIWTRXTKXEMD'
p575
S'I do like pia coladasbut mostly just coconut rumNorthern IrishCaymanianEdinburghMSc  UoEIG kelfo whateverkelly'
p576
sS'SUJVMXBNDAEU'
p577
S''
p578
sS'GCFTETPDRBUA'
p579
S'London  University of Edinburgh'
p580
sS'BCBHANDWISBU'
p581
S'Architecture and design student '
p582
sS'XFNBHDZDZGYU'
p583
S"With his shitty mother Who let's face it doesn't think you're smart enough Pretty Let's face it doesn't think you're pretty enough Because no one is No one ever will beI tried to send something sexy to your house but the mailman told me to get out of the mail boxI have seen every Disney animated movie madeApparently I have a sophisticated mindPartial to festive hot chocolateI startle easilyMusic business studentI enjoy crappy pickup lines and punsAvid movie watcher"
p584
sS'UPJYXTPQHLPZ'
p585
S'Architecture and design student '
p586
sS'EKCUSHWKUUOI'
p587
S"I'm a fucking punmeister Looking for a drinking partner  someone to take me to Rotato for a jacket potato "
p588
sS'QEMOUCGJOXGG'
p589
S'Tammi LeeFriendsFamilyCeltic Ibizaa x'
p590
sS'NCTQNUUAVGDG'
p591
S''
p592
sS'GLWVSKGQKHSP'
p593
S'Australian  Teacher Living near London '
p594
sS'VIOMUOPTRPKR'
p595
S'th year student at Dundee Uni'
p596
sS'KKDCUICFOUSV'
p597
S"we wont stop until somebody calls the cops and even then we'll start agaaain and just pretend like nothin' ever happened ukulele playa and aspirin' artiste olay wanderlust is me middle name instagremmm  nogginintheclouds"
p598
sS'RHOAQSLVLIDC'
p599
S"ShannNursing student at UWS  work as a carer Drink too much  My pals think I'm like Mr Bean "
p600
sS'NDTFLXVHIUVW'
p601
S'Architecture and design student '
p602
sS'FWPXIGVPPEWF'
p603
S"I'm a down to earth lass can have a laugh and a joke so pop up I don't bite "
p604
sS'WRGEPIXWYQXF'
p605
S"I'm a fucking punmeister Looking for a drinking partner  someone to take me to Rotato for a jacket potato "
p606
sS'GMUQFCUJBIIM'
p607
S''
p608
sS'CQIOHKGKBTGJ'
p609
g30
sS'GKJEKUOXLUDS'
p610
S"I'm drunk and want to laugh at my friends on here    "
p611
sS'NBCGJMEDEPKB'
p612
S''
p613
sS'EBYURCKQAOZH'
p614
S"With his shitty mother Who let's face it doesn't think you're smart enough Pretty Let's face it doesn't think you're pretty enough Because no one is No one ever will beI tried to send something sexy to your house but the mailman told me to get out of the mail boxI have seen every Disney animated movie madeApparently I have a sophisticated mindPartial to festive hot chocolateI startle easilyMusic business studentI enjoy crappy pickup lines and punsAvid movie watcher"
p615
sS'OIOCMTWGGJQI'
p616
S'  all about friends and family  have the most beautiful baby boy Love   tattoos and nice teeth   always up for  good banter  if in doubt pout it out   love a cheeky night out     want to know anything else just ask '
p617
sS'XASHQZEEGZVG'
p618
S'Scottish  studying engineering at Edinburgh uni '
p619
sS'CDZGSKQVFERK'
p620
S"St AndrewsEdinburgh I promise I'm not posh "
p621
sS'FGESFOPGNBMT'
p622
g30
sS'CNEFWOBIYRVT'
p623
S"I'm a fucking punmeister Looking for a drinking partner  someone to take me to Rotato for a jacket potato "
p624
sS'SHTJIWXCQXNZ'
p625
g30
sS'QIFXROIOANDE'
p626
S"I'm a fucking punmeister Looking for a drinking partner  someone to take me to Rotato for a jacket potato "
p627
sS'JOSEZLDAIZTK'
p628
g30
sS'ZDSNDYOTSKDV'
p629
S'exchange student from Germanytalents include looking like  and saying thank you to the bus driver'
p630
sS'CFEIVQCSSKMJ'
p631
S"With his shitty mother Who let's face it doesn't think you're smart enough Pretty Let's face it doesn't think you're pretty enough Because no one is No one ever will beI tried to send something sexy to your house but the mailman told me to get out of the mail boxI have seen every Disney animated movie madeApparently I have a sophisticated mindPartial to festive hot chocolateI startle easilyMusic business studentI enjoy crappy pickup lines and punsAvid movie watcher"
p632
sS'MEWTWKATFAHA'
p633
S"Please be taller than me I'm Currently studying at Dundee universityI like science and am a major nerd geek Basically I like scifi tv shows yes that is Doctor Who on my laptop screen bravo for noticing books and music mainly rock I also love to bake DOhh and I play rugby so I'm a little bigPlease message me first "
p634
sS'RBOAXQKEDRFM'
p635
g30
sS'HNLZOXZRALED'
p636
g30
sS'HHVJFQQMZEII'
p637
S'Criminal justice degree honours year Work for a community care service  '
p638
sS'CSHFLXOHADJT'
p639
g30
sS'YWYFWCCYHPYP'
p640
g30
sS'RQAAHRSKSOUI'
p641
S"With his shitty mother Who let's face it doesn't think you're smart enough Pretty Let's face it doesn't think you're pretty enough Because no one is No one ever will beI tried to send something sexy to your house but the mailman told me to get out of the mail boxI have seen every Disney animated movie madeApparently I have a sophisticated mindPartial to festive hot chocolateI startle easilyMusic business studentI enjoy crappy pickup lines and punsAvid movie watcher"
p642
sS'QUUWCSDWEDQE'
p643
g30
sS'OZMRWWMWOHWZ'
p644
S'Love Harry potterRon weasley is my guilty pleasure Bacon I like sharks I hate peopleThe walking deadDexterNetflix and chill '
p645
sS'HTMFPCDWNMDO'
p646
S'Proud recipient of the Most Detailed Bio On Tinder award  '
p647
sS'MTQEAQMXNBYH'
p648
g30
sS'BNTCXCMPZSIE'
p649
S"I'm a fucking punmeister Looking for a drinking partner  someone to take me to Rotato for a jacket potato "
p650
sS'IZKYSHXNWPCA'
p651
S' Everything is going to be alright'
p652
sS'HWQOFKHQYJNO'
p653
g30
sS'NGAUEIOBNONQ'
p654
S"Not much to say really would rather someone asked and decide if they are interested from thereI'm ft  on a good day  sporty used to be a lot sportier had a wee break starting to get back into it love Disney bit of a geek change my hair colour every time I get bored which is a lot currently a brunetteJust about over a bad break up and one of the worst years of my life starting from scratch and looking to the future Got many plans but which one I chose is yet to be decided"
p655
sS'KHPXKWXJDVHN'
p656
S''
p657
sS'OPRBQBWEXPUI'
p658
g30
sS'ZKGSVSNSRYLR'
p659
g30
sS'SSYOTGBGZNPQ'
p660
g30
sS'RDKKIPESCBKQ'
p661
S'UofE '
p662
sS'CNIOMRRTIMTK'
p663
g30
sS'BXJHBBCPXEWW'
p664
S'Architecture and design student '
p665
sS'WUEKGBTGFXZF'
p666
g30
sS'MUJWAWIDZMOW'
p667
S"My underwear never matchesMy socks are always oddI am always lateI drink too muchI don't think before I speakImpulsive"
p668
sS'OFQDDHZQVYUR'
p669
S"I'm short Like super shortI drink too much coffeeI talk about animals a lot And cities make me want to curl up in a ball and cry"
p670
sS'BHQRGUXXXWPW'
p671
S"I'm a fucking punmeister Looking for a drinking partner  someone to take me to Rotato for a jacket potato "
p672
sS'GOLDASRXMNSL'
p673
S'Sometimes you close your eyes and see the place where you used to live When you were young Love music speedway  tattoos Marley '
p674
sS'OGGOBOCLUGBJ'
p675
g30
sS'GZHEKEEPKSPN'
p676
S"With his shitty mother Who let's face it doesn't think you're smart enough Pretty Let's face it doesn't think you're pretty enough Because no one is No one ever will beI tried to send something sexy to your house but the mailman told me to get out of the mail boxI have seen every Disney animated movie madeApparently I have a sophisticated mindPartial to festive hot chocolateI startle easilyMusic business studentI enjoy crappy pickup lines and punsAvid movie watcher"
p677
sS'TZWITMCAEBST'
p678
S"With his shitty mother Who let's face it doesn't think you're smart enough Pretty Let's face it doesn't think you're pretty enough Because no one is No one ever will beI tried to send something sexy to your house but the mailman told me to get out of the mail boxI have seen every Disney animated movie madeApparently I have a sophisticated mindPartial to festive hot chocolateI startle easilyMusic business studentI enjoy crappy pickup lines and punsAvid movie watcher"
p679
sS'FEUJEYDRHHLC'
p680
S''
p681
sS'TYSWJMKETMYN'
p682
g30
sS'LSWMWEWKGPXI'
p683
S"With his shitty mother Who let's face it doesn't think you're smart enough Pretty Let's face it doesn't think you're pretty enough Because no one is No one ever will beI tried to send something sexy to your house but the mailman told me to get out of the mail boxI have seen every Disney animated movie madeApparently I have a sophisticated mindPartial to festive hot chocolateI startle easilyMusic business studentI enjoy crappy pickup lines and punsAvid movie watcher"
p684
sS'IPWJPNRUIKPO'
p685
S''
p686
sS'QDJSULTZXYZG'
p687
S"I like what I like and hopefully you like it too So if you don't ask you'll never know x"
p688
sS'CLLWEOTSAJMO'
p689
S'   '
p690
sS'LFMHJBGHUNVQ'
p691
g30
sS'EJQAUAHXTMCK'
p692
g30
sS'ZICSGMNHFTMS'
p693
S"I'm a fucking punmeister Looking for a drinking partner  someone to take me to Rotato for a jacket potato "
p694
sS'GOMZWWDHSWHU'
p695
S'Student Paediatric nurse at Dundee Uni'
p696
sS'MZWFXPUUBZHR'
p697
S'Instagram ellied'
p698
sS'CKIYUHODQILK'
p699
S"With his shitty mother Who let's face it doesn't think you're smart enough Pretty Let's face it doesn't think you're pretty enough Because no one is No one ever will beI tried to send something sexy to your house but the mailman told me to get out of the mail boxI have seen every Disney animated movie madeApparently I have a sophisticated mindPartial to festive hot chocolateI startle easilyMusic business studentI enjoy crappy pickup lines and punsAvid movie watcher"
p700
sS'XVQFLSODKHYO'
p701
S''
p702
sS'DELARUTXBXYD'
p703
S"Beyonc and Liverpool oh and I'm Dutch studying in Edinburgh "
p704
sS'OVLAELSKZJKJ'
p705
S'Student nurse Greedy bisexual At least  composed of Lidl own brand wine '
p706
sS'MNDKYHAAPBKS'
p707
S'EdinburghOban '
p708
sS'NMHYDSYFTKDH'
p709
S'avid shower singerenthusiastic drunk rapperlove shrek and not ironicallytwo years ago i was a proficient windsurferlooking for a name for my cactus taking all suggestions'
p710
sS'NQOWOYGNBQAV'
p711
g30
sS'LBMCIDZWKDJN'
p712
S'Architecture and design student '
p713
sS'EHCLHYROEPLG'
p714
S"With his shitty mother Who let's face it doesn't think you're smart enough Pretty Let's face it doesn't think you're pretty enough Because no one is No one ever will beI tried to send something sexy to your house but the mailman told me to get out of the mail boxI have seen every Disney animated movie madeApparently I have a sophisticated mindPartial to festive hot chocolateI startle easilyMusic business studentI enjoy crappy pickup lines and punsAvid movie watcher"
p715
sS'IARJZENVVLUC'
p716
S'Flowers make my day but rough sex makes my hole weak '
p717
sS'FUDPISKCUXGR'
p718
S'Niamh  UofE  English Lit and History '
p719
sS'LDQVTBNVPWYV'
p720
S'annoying swedish vegan'
p721
sS'XFCLYHHRKLRV'
p722
S'Originally from London went to uni in Belfast currently a nurse in Leicester ft'
p723
sS'HVDOIFKUTDJJ'
p724
g30
sS'ESTOVNJQMZFJ'
p725
S'Heyyyy Just made this too see what all the fuss was about Am ur average typical  year old Family and friends mean the world to me Work full time Enjoy a gym sesh and I am totally obsessed with music Have a very varied taste in music but Noel Gallagher and Ian Brown are my Heroes Love a gig so I do Wanna know anymore just ask away '
p726
sS'WCJWZADGZIBK'
p727
S'Well im laid back simple chick dont like loads of fuss and im a woman that can take care of her self but sometimes its nice to have someone take care of u lol i like long walks chilling out watching movies and haveing a laugh '
p728
sS'SHGORMCOZVJT'
p729
S'ScottishAustralian Studying at Edinburgh Uni'
p730
sS'HTGUJHYYIUHX'
p731
S'Love life '
p732
sS'SEIOPRXAVZEQ'
p733
S" ft                                                       English accent                                                 Not a stick insect                                         Living in the East Neuk of Fife                  Working as a Supervisor in St Andrews               I don't own a microwave What does that say about a girl"
p734
sS'EDPAEQAWUEQU'
p735
S'Architecture and design student '
p736
sS'HEODQAQZREYA'
p737
g30
sS'TQYALSCLALRS'
p738
g30
sS'VFSUEDOXPMFG'
p739
S'Greek student studying English Literature in UoD I love listening to music reading watching movies and having long walks preferably by the sea '
p740
sS'JXITFQXCSQAY'
p741
g30
sS'SKLMZRAXPLXT'
p742
S"I'm basically a really awkward loser who likes nerdy things and the outdoors Cats are awesome college is fun and I have sass for DAYS on end From the US Studying ANTHRO at Edinburgh  This is the field where I grow my fucks As you can see it is barren Message me first or we're probably not gonna talk IG TayJaeThornTumblr imakittyrawrandstuffSnapchat"
p743
sS'HFDWHSUQMDXV'
p744
S"Steph Blart Mall CopI'm a simple man I like pretty dark haired women and breakfast food "
p745
sS'PDFIJQBIYAKJ'
p746
S'I love sunglasses Am I looking at that tree Am I staring at your dick Who knows '
p747
sS'RYZQOELNGVRP'
p748
S" Anybody read this or speak on this Prove me wrongTattoosMusicBanter SarcasmHopeless romantic Someone's got to be as weird as me "
p749
sS'KNLLSAGJTSNF'
p750
S' Edinburgh Actor Singer Selfie taker'
p751
sS'UEWZVKAQITAF'
p752
S'Ermmmmm'
p753
sS'OKLHQRRNXKMJ'
p754
S"I'm just too clumsy"
p755
sS'ZXZRLHFQYVRB'
p756
S'An almostGlasgow girl studying at Edinburgh uni  '
p757
sS'UKSJSYKAOLYU'
p758
S"With his shitty mother Who let's face it doesn't think you're smart enough Pretty Let's face it doesn't think you're pretty enough Because no one is No one ever will beI tried to send something sexy to your house but the mailman told me to get out of the mail boxI have seen every Disney animated movie madeApparently I have a sophisticated mindPartial to festive hot chocolateI startle easilyMusic business studentI enjoy crappy pickup lines and punsAvid movie watcher"
p759
sS'BKYENXTBIVSN'
p760
S"Emma loudenBe happy not sad because sad reversed is 'das' and das no good "
p761
sS'HTDEBHCBXYAG'
p762
S'Instagram  laurenoneilllll '
p763
sS'BCSQFGCVJETH'
p764
g30
sS'EWTAJDAAHKCG'
p765
S"I'm a fucking punmeister Looking for a drinking partner  someone to take me to Rotato for a jacket potato "
p766
sS'YAOWOTEUDIRO'
p767
S'Architecture and design student '
p768
sS'ASEUPWENHXPJ'
p769
g30
sS'QJFLEXOOCRNC'
p770
S'BrightonEdinburghGeography studentig saskiaa'
p771
sS'HJEOYVRGPSPK'
p772
g30
sS'BWOGRNQJBAOT'
p773
S"if it's bad for me I'll probably enjoy itsnapchat  ebgordonx"
p774
sS'YSSBKGIJAKNW'
p775
S"I like travelling being drunk Fleetwood Mac and It's Always Sunny In Philadelphia I am awful at taking selfies and I can't pout "
p776
sS'FFPNRWTOMECB'
p777
S'INFJ Tried to highfive myself but just ended up clapping which was still good'
p778
sS'VBISJSCMTGXP'
p779
S'Love my tattoosSnapchat Kayleighmx'
p780
sS'SDRQRCKBJHND'
p781
S'Rebecca McGillSnapchat rebsmcgee'
p782
sS'EGXOPMJWMVAK'
p783
S"Enthusiastic about procrastination animals who let me pet them consuming excessive amounts of sugar owning too much makeup and being really good at shunning adult responsibilitiesHere to waste time and maybe hand out some friendship bracelets but I'm mainly just looking to find recruits for my girl gang Keep your date requests for someone else please"
p784
sS'HIMGFUNOXWDU'
p785
S'Enjoy going to the cinema being a book worm and studying Psychology at Abertay uni'
p786
sS'HSDKYBIPBFRZ'
p787
S''
p788
sS'HJBTUKLTMSYT'
p789
S"With his shitty mother Who let's face it doesn't think you're smart enough Pretty Let's face it doesn't think you're pretty enough Because no one is No one ever will beI tried to send something sexy to your house but the mailman told me to get out of the mail boxI have seen every Disney animated movie madeApparently I have a sophisticated mindPartial to festive hot chocolateI startle easilyMusic business studentI enjoy crappy pickup lines and punsAvid movie watcher"
p790
sS'XDYVMURWCJEV'
p791
S"I'm a fucking punmeister Looking for a drinking partner  someone to take me to Rotato for a jacket potato "
p792
sS'TFMVLNQXXUUO'
p793
g30
sS'KCXBMEBYWYTM'
p794
S'EdinburghBathgate  wine Motown music and sarcasm Edinburgh university politics student'
p795
sS'PHPZXYENIIOP'
p796
S'SDMB  Snapchat  mbrownxGlasgow '
p797
sS'ICMUHZIQIEOX'
p798
S'Architecture and design student '
p799
sS'FAPPIMONGIEE'
p800
S"I got drunk and applied to go on Bargain Hunt Why did the plane crashBecause the pilot was a muffin If you don't crack a smile we aren't meant to be "
p801
sS'OAJUMBYTNXLI'
p802
S'LondonPinot PalsSunshine'
p803
sS'JWFHNWSWRQBM'
p804
S' professional singerdancerWorking in ScotlandSomeone take me to winter wonderland pretty please '
p805
sS'VUGRDQCKPAEE'
p806
g30
sS'XMSPKFWXGZWE'
p807
S'Architecture and design student '
p808
sS'DCPNGSETUESY'
p809
S'Not interested in hookup nor dating only looking for friends who enjoy outdoor activities Also I am building a dating app that is way better than tinder Drop me a line if you are cool  outdoorsy and have a big heart and I will introduce you to my amazing single friends'
p810
sS'IJRMMENYVCRA'
p811
g30
sS'RSDYGUVBMWIU'
p812
S'The names jordan Work in a night club  Up for a laugh If you want to know more mail me'
p813
sS'GZUDMCGUTYLV'
p814
S"I am Australian I am adorable and the swing is my favourite playground apparati I know all the flags of the world Mambo no is my favourite song and I'm pretty bad at bowling "
p815
sS'LJGTCQFTJFBD'
p816
g30
sS'ZGLLELUXUTYM'
p817
g30
sS'UGCNRSFSNCNY'
p818
S'Studying RBM in Edinburgh Ride horses and I like vodka oh and also have gr banter so hit me with what ya got '
p819
sS'FHZQGSEJHZKS'
p820
S"I'm a fucking punmeister Looking for a drinking partner  someone to take me to Rotato for a jacket potato "
p821
sS'WHKDSGXGWLLV'
p822
S"performing in my fourth year performance of The Marriage of Bette and Boo so won't be able to reply much this weekendCurrently living in Edinburgh and in my fourth year studying Acting  English at Napier  If you want to know anything just ask  "
p823
sS'FQPZIVDGYCSD'
p824
S"So this is what urban dictionary says about me She laughs a lot and is always there for you willing to listen and help Rebecca is someone everyone likes from the beginning You just have to look at her and you know she's an interesting and friendly person She's very determined to make the best of her life and is charmingly competitive at certain things She's great fun to be around and always makes you feel happy But message me and find out for yourself "
p825
sS'IPFFGRDAOLJL'
p826
g30
sS'YUUISJAODLDC'
p827
S'Architecture and design student '
p828
sS'IODIMFDKYYJF'
p829
S'A busy working student with a big interest in life Like to meet new people learn from them discuss or just have fun A lot  of interests so little timeI am just looking for people that have something to say if not please do not swipe right'
p830
sS'AVSFBDCDALYX'
p831
g30
sS'GWSXLWJYMZOT'
p832
S''
p833
sS'PMAFLIIDBMOQ'
p834
S'Student Nurse  Irish  Living in Edinburgh '
p835
sS'MBVMIWVMNMAY'
p836
g30
sS'KHPUMDBNAYGK'
p837
S"I'm a fucking punmeister Looking for a drinking partner  someone to take me to Rotato for a jacket potato "
p838
sS'TORRGCIRFXZQ'
p839
g30
sS'PEUGKFAAOIHC'
p840
S'Architecture and design student '
p841
sS'USFNXQJTNHMJ'
p842
g30
sS'DYDVLOSGYVYH'
p843
S'I really like animal facts'
p844
sS'BJIXWJCNGRYI'
p845
S"If you like pia coladas and getting caught in the rain If you're not into yoga if you have half a brain If you like making love at midnight in the dunes of the cape Then I'm the love that you've looked for write to me and escape"
p846
sS'KVTRUGXNJGJU'
p847
g30
sS'FIJZWHCYQQFJ'
p848
S"We don't have to take out clothes off To have a good time oh yeh "
p849
sS'NDITQQTSMIAI'
p850
g30
sS'ICLBEZYBFISG'
p851
S'Architecture and design student '
p852
sS'YKMMKOVYRCDR'
p853
g30
sS'NCOZSHTLEJAF'
p854
S"My name is actually Zo but tinder can't handle my umlaut  "
p855
sS'DHODLSQRDBZS'
p856
S'Just a shy American trying to make some friends at uni '
p857
sS'NDHVOSNTZOSA'
p858
S'snapchat hayleighwilson Looking for that typical farmerrugby player'
p859
sS'AEJJIHIPFVJS'
p860
g30
sS'JJGVPPZFTKWZ'
p861
S"With his shitty mother Who let's face it doesn't think you're smart enough Pretty Let's face it doesn't think you're pretty enough Because no one is No one ever will beI tried to send something sexy to your house but the mailman told me to get out of the mail boxI have seen every Disney animated movie madeApparently I have a sophisticated mindPartial to festive hot chocolateI startle easilyMusic business studentI enjoy crappy pickup lines and punsAvid movie watcher"
p862
sS'BKWFRJUBCEIE'
p863
S'Livingston                                                                Very proud owner of a beautiful  year old                                   st year Adult Nursing student at Napier Uni Part time nursing assistant with NHS  part time care assistant in a care home I am not a fan of facial hair                          '
p864
sS'PIEHJTBXCRLZ'
p865
g30
sS'HUQZDERCWAGE'
p866
S"From Glasgow Music student Possibly one of the smallest people you'll ever meet Laughing is what I like to do best you've more than likely met me on a night out somewhere because everyones my best pal thenI will pay more attention to the dog than the person I'm with "
p867
sS'AFQAFBKVOYFY'
p868
g30
s.