(dp0
S'EOLFXEXASLLG'
p1
S"Some people call me the space cowboy Some call me the gangster of love Some people call me Maurice  But please don't because my name is Charlie and that's incorrect"
p2
sS'MWMIBZWDGSPS'
p3
S''
p4
sS'QDJSULTZXYZG'
p5
S"I like what I like and hopefully you like it too So if you don't ask you'll never know x"
p6
sS'IGDRGZOHVDOY'
p7
S'From Donegal in th year at RGU'
p8
sS'XMSPKFWXGZWE'
p9
S'Architecture and design student '
p10
sS'XFDQBACYVOOT'
p11
g4
sS'YTWMGPPCMCDP'
p12
S'Lusaka London Edinburgh '
p13
sS'HEHXZOTBDBXG'
p14
S"I'm a fucking punmeister Looking for a drinking partner  someone to take me to Rotato for a jacket potato "
p15
sS'LDQVTBNVPWYV'
p16
S'annoying swedish vegan'
p17
sS'SEWVCXXMAAXA'
p18
S'Fried chicken and chill '
p19
sS'OPRBQBWEXPUI'
p20
g4
sS'GMEDJVHXJCDB'
p21
S'PE Student at University of EdinburghTwitter  KaraMillerInstagram  karamiller'
p22
sS'ZKGSVSNSRYLR'
p23
g4
sS'JXITFQXCSQAY'
p24
g4
sS'FBIDISGEZAQV'
p25
S'Healthy living Music Hiking Films Dancing Books Tea and coffee Cooking Guitar Travelling Cycling '
p26
sS'RNJUJXTOGRXN'
p27
S'I will like you if you have a dog'
p28
sS'VVLUJJMBOZKG'
p29
S'I paid this owl to make me look good '
p30
sS'YICIIVDKDFGQ'
p31
S'Architecture and design student '
p32
sS'XLWLXZEFZLVM'
p33
S"I'm a fucking punmeister Looking for a drinking partner  someone to take me to Rotato for a jacket potato "
p34
sS'RDKKIPESCBKQ'
p35
S'UofE '
p36
sS'DPYSJWFIGEZU'
p37
S'Studio Assistant and Postgraduate Student'
p38
sS'TNVBEWMRQZEM'
p39
S"Vet student at Edinburgh UniLover of films books a good night out and singing in the showerIf you don't love dogs there's probably no point"
p40
sS'BXJHBBCPXEWW'
p41
S'Architecture and design student '
p42
sS'WUEKGBTGFXZF'
p43
g4
sS'AFDDOCWWWLPH'
p44
S'Edinburgh'
p45
sS'OFQDDHZQVYUR'
p46
S"I'm short Like super shortI drink too much coffeeI talk about animals a lot And cities make me want to curl up in a ball and cry"
p47
sS'RFRZFXATHEAY'
p48
g4
sS'BHQRGUXXXWPW'
p49
S"I'm a fucking punmeister Looking for a drinking partner  someone to take me to Rotato for a jacket potato "
p50
sS'HMEIEWYEGLEM'
p51
S"my name's actually chlo lolfrenchamerican lifeguard singer volleyball player "
p52
sS'GXSGWLVUTPPZ'
p53
S'Northern Irish Business and Finance student at University of Edinburgh '
p54
sS'UUEDPPEWWYKQ'
p55
g4
sS'BLKBIYTNNIZG'
p56
S'American  studying abroad in Edinburgh'
p57
sS'RSECHUNRDZXE'
p58
S'adventure and netflix pls'
p59
sS'WFQEFGDALMMW'
p60
S'NorwayEdinburgh'
p61
sS'YADAKJBUMFEX'
p62
S"I'm a fucking punmeister Looking for a drinking partner  someone to take me to Rotato for a jacket potato "
p63
sS'BXGWUKQQOSDZ'
p64
g4
sS'JLPJLJUAVXVB'
p65
S'Wine them dine them and  them That Professional Cookery student twat thing from Edinburgh  DC or die'
p66
sS'NLHFWBJWCBMY'
p67
g4
sS'RPBYFIXNALIK'
p68
S'New Yorker writer tequila enthusiast Looking for an adventuredrinkingsnuggle buddy I look good in your flannel '
p69
sS'NLFKUFLJSUGM'
p70
S"I'm a fucking punmeister Looking for a drinking partner  someone to take me to Rotato for a jacket potato "
p71
sS'YCDVGDFRRYRP'
p72
S'Architecture and design student '
p73
sS'JKBCWDPQREMO'
p74
S"I'm a fucking punmeister Looking for a drinking partner  someone to take me to Rotato for a jacket potato "
p75
sS'TYSWJMKETMYN'
p76
g4
sS'GDLYTBVZXIEU'
p77
S'Uni of Edinburgh History Student pretty crap at dates tho'
p78
sS'HPWLTDYRLUSW'
p79
g4
sS'RKQAJPJCCASO'
p80
S'Edinburgh  Durham'
p81
sS'CNTJUXVHDWJV'
p82
g4
sS'BQTZIWHAFENZ'
p83
g4
sS'QUUWCSDWEDQE'
p84
g4
sS'LZOMSMTUDSZB'
p85
S'Roses are red Violets are blueI like sour cream and chive Pringles and grilled halloumi '
p86
sS'OSLEKPYGFVNO'
p87
S'Doing my second degree in LLB LawI like long romantic walks to the fridge'
p88
sS'YCELEKWPSEUD'
p89
S'Lithuanian Business Management student at Qmu'
p90
sS'USVKNLWYLDVU'
p91
g4
sS'EEIEZPKIBPUQ'
p92
S'Architecture and design student '
p93
sS'MQCVAUGYXPJF'
p94
S'Architecture and design student '
p95
sS'DBSJGHTDBPXD'
p96
g4
sS'UIKKSKXKWBDH'
p97
S'Geography Edinburgh  Yorkshire '
p98
sS'YXFPTHTOTYQM'
p99
S'Yorkshire pudding working down south I like giraffes and the pub and foodYes I am the little mermaid'
p100
sS'YNZOIUUIRCRO'
p101
S'Architecture and design student '
p102
sS'EJQAUAHXTMCK'
p103
g4
sS'WMVSTASSRCMS'
p104
S"I'm a fucking punmeister Looking for a drinking partner  someone to take me to Rotato for a jacket potato "
p105
sS'WXIRURYTUEPX'
p106
g4
sS'HTGUJHYYIUHX'
p107
S'Love life '
p108
sS'ZICSGMNHFTMS'
p109
S"I'm a fucking punmeister Looking for a drinking partner  someone to take me to Rotato for a jacket potato "
p110
sS'DFEJPYILVMEW'
p111
g4
sS'QOEYGDEPRZMZ'
p112
g4
sS'IGUGVQFUISAM'
p113
S'I am looking for someone to share in an adventure Lover of films tattoos country music and wine '
p114
sS'QYWQZLBICJTP'
p115
S'If you like Morrissey we can be friends I like ghouls and I dislike knees Student nurse '
p116
sS'BEZXWBJQJIUD'
p117
g4
sS'JKHMFEIPWUOO'
p118
S'Dance sunshine and snacks are all I need '
p119
sS'OXCOOEPXYNTY'
p120
S' EdinburghSc  Twitter  Instagram Rowanhand'
p121
sS'BLRGAOCKFUYD'
p122
S"Originally from the US just trying out this on the recommendation of a friend I'm a laid back taveller Game of Thrones enthusiast equestrian dog obsessed bacon eater sports fan velociraptor handler in training geek and history nerd Not looking for casual hookups  sorry Just looking to meet new people  Also so it's not a surprise I'm '  cm"
p123
sS'MOTYAFJJRXKH'
p124
S"I'm a fucking punmeister Looking for a drinking partner  someone to take me to Rotato for a jacket potato "
p125
sS'TBWHRLQCTILG'
p126
S'rd year student  Wine loving vegetarian '
p127
sS'DDNNYHPCHFGN'
p128
S"I'm a fucking punmeister Looking for a drinking partner  someone to take me to Rotato for a jacket potato "
p129
sS'YICDMBIOBAFY'
p130
g4
sS'DELARUTXBXYD'
p131
S"Beyonc and Liverpool oh and I'm Dutch studying in Edinburgh "
p132
sS'UIWONCMOLEQF'
p133
S"I'm a fucking punmeister Looking for a drinking partner  someone to take me to Rotato for a jacket potato "
p134
sS'OVLAELSKZJKJ'
p135
S'Student nurse Greedy bisexual At least  composed of Lidl own brand wine '
p136
sS'MNDKYHAAPBKS'
p137
S'EdinburghOban '
p138
sS'KDCPTLXVNPJL'
p139
g4
sS'NMHYDSYFTKDH'
p140
S'avid shower singerenthusiastic drunk rapperlove shrek and not ironicallytwo years ago i was a proficient windsurferlooking for a name for my cactus taking all suggestions'
p141
sS'NQOWOYGNBQAV'
p142
g4
sS'IPFFGRDAOLJL'
p143
g4
sS'TMTIVBKTALFO'
p144
S"  bexxjack    bexxxjack   ft  'a like the playstation do you like the  playstation''huv ye heard aw the new rapper music av heard it an a like it'"
p145
sS'LBMCIDZWKDJN'
p146
S'Architecture and design student '
p147
sS'QIFXROIOANDE'
p148
S"I'm a fucking punmeister Looking for a drinking partner  someone to take me to Rotato for a jacket potato "
p149
sS'IZYHBPUMFATY'
p150
g4
sS'FUDPISKCUXGR'
p151
S'Niamh  UofE  English Lit and History '
p152
sS'FNXDBIIRNXTF'
p153
S'yr Fashiontextile student in edinburgh '
p154
sS'JMYURVUIFKOR'
p155
S"Life's too short eat dessert first "
p156
sS'QZQAWGICLDLE'
p157
S"I'm a fucking punmeister Looking for a drinking partner  someone to take me to Rotato for a jacket potato "
p158
sS'UYUXCGSDJSTF'
p159
S"I'm American with family in ScotlandOutgoing and friendly feel free to get to know me Chicago Native "
p160
sS'AGCCUMXSORMI'
p161
g4
sS'VEXATOPUMWLS'
p162
S"American visiting Edinburgh for the week In search the city's best scone "
p163
sS'HQONSBTSHZXQ'
p164
g4
sS'XFCLYHHRKLRV'
p165
S'Originally from London went to uni in Belfast currently a nurse in Leicester ft'
p166
sS'HVDOIFKUTDJJ'
p167
g4
sS'XPBABWMZUNHO'
p168
S'Ps beards give me the fear '
p169
sS'YLIUECDYLWZK'
p170
S'Child nursing studentCheckout chick extraordinaireThe Office fanaticWine addictKate in a nutshell'
p171
sS'CLLWEOTSAJMO'
p172
S'   '
p173
sS'QWPEFQCMSJUM'
p174
S'Architecture and design student '
p175
sS'JIZUFUBZJEGL'
p176
g4
sS'JXEDPZWGSDPK'
p177
S'EnglishSwissI speak  languages love travelling art yoga and poetry Based between Edinburgh London and Geneva'
p178
sS'LNHXTZZOGAAS'
p179
S'Pretty much a massive nerd '
p180
sS'AWDFIZDUBUYY'
p181
g4
sS'SHGORMCOZVJT'
p182
S'ScottishAustralian Studying at Edinburgh Uni'
p183
sS'PKDBYGIIODMD'
p184
S"English literature student I like music and tequila I love people with a good sense of humour and bonus points if you can make me laugh Dogs are definitely my weakness I'm about as northerly Scottish as you can get Im terrible at small talk so just straight up ask me if I believe in aliens I'll reply "
p185
sS'CNIOMRRTIMTK'
p186
g4
sS'LIWBAOGWUHNL'
p187
g4
sS'DEYGDWPZJPTA'
p188
g4
sS'EDPAEQAWUEQU'
p189
S'Architecture and design student '
p190
sS'BWMVIYKWJRJC'
p191
S'Edinburgh Uni'
p192
sS'WZRBWAHCGQAE'
p193
S'University of Edinburgh'
p194
sS'TXRSVKRHUQAL'
p195
S'portree '
p196
sS'MEEHLUNJRTDF'
p197
S'Art student'
p198
sS'LYVIHWFNDXVB'
p199
g4
sS'GEWBBPMNBFZN'
p200
S'Architecture and design student '
p201
sS'TQYALSCLALRS'
p202
g4
sS'OHDOBKXAVDKT'
p203
S'Now recruiting for a winter snuggle buddy '
p204
sS'IXPXCCLDUFKK'
p205
S"Hello I'm Kerry just recently joined this So will see how it goes  Give me a message if you fancy a blether No creeps please "
p206
sS'LSHKOYBNTDIO'
p207
g4
sS'ZWGNFVBXRKYT'
p208
S'Irish in Edinburgh  '
p209
sS'IIJVKYUYDMCS'
p210
S"I'm all about fun and drinking im on tinder coz I'm bored and thinks it's finny looking the pics  hollieash hollies"
p211
sS'SKLMZRAXPLXT'
p212
S"I'm basically a really awkward loser who likes nerdy things and the outdoors Cats are awesome college is fun and I have sass for DAYS on end From the US Studying ANTHRO at Edinburgh  This is the field where I grow my fucks As you can see it is barren Message me first or we're probably not gonna talk IG TayJaeThornTumblr imakittyrawrandstuffSnapchat"
p213
sS'CDRIYGOUKZGJ'
p214
S"I'm a fucking punmeister Looking for a drinking partner  someone to take me to Rotato for a jacket potato "
p215
sS'LJWWHJXKQJJP'
p216
S'Napier student '
p217
sS'KVTRUGXNJGJU'
p218
g4
sS'VRWJADWCPWET'
p219
S'nd year at QMUMade in Sweden'
p220
sS'OHVTCNXMLKVK'
p221
g4
sS'IPOWKSMHJNLV'
p222
g4
sS'UCMRJCTKQZJK'
p223
S'Architecture and design student '
p224
sS'HKFBXODLHFZD'
p225
g4
sS'YQYBPAMAQDRN'
p226
g4
sS'ZXZRLHFQYVRB'
p227
S'An almostGlasgow girl studying at Edinburgh uni  '
p228
sS'IJLVTPYPKBBW'
p229
S"rd year student completely ditzy and always up for a laugh SnapchatInstagram  speshjess  A woman wants a polite bad boy a guy that'll open the door for her but still smacks her ass as she walks past"
p230
sS'ALGLIMFKQBPW'
p231
g4
sS'DADACWUQENND'
p232
g4
sS'BKYENXTBIVSN'
p233
S"Emma loudenBe happy not sad because sad reversed is 'das' and das no good "
p234
sS'WYEZBMBZBABD'
p235
S'Londoner Edinburgh UniShakira is my spirit animal  Instagram aliciamlp'
p236
sS'HWZJULCNXKOY'
p237
S'Edinburgh Uni Lover of all things gin '
p238
sS'FKKRSLQYMDFY'
p239
g4
sS'BCSQFGCVJETH'
p240
g4
sS'YKMMKOVYRCDR'
p241
g4
sS'XSENDMILOBVO'
p242
S'Uni of Edinburgh masters student Love sport cooking coffee gin travelling dogs science and charity work '
p243
sS'IGKAEBAOSVNQ'
p244
g4
sS'VAINBLSGHLAA'
p245
S"I'm a catalan girl studying at Napier University Looking forward to meeting new people If we match talk to me "
p246
sS'WXIUTNTHIDWU'
p247
S'University of Edinburgh  postgraduate University of York  Philosophy'
p248
sS'YAOWOTEUDIRO'
p249
S'Architecture and design student '
p250
sS'MUBRVALPMURV'
p251
S"I'm a fucking punmeister Looking for a drinking partner  someone to take me to Rotato for a jacket potato "
p252
sS'MZWFXPUUBZHR'
p253
S'Instagram ellied'
p254
sS'UANZJLNXIEXG'
p255
S'Med student Edinburgh uni '
p256
sS'HHRXUSEYKNLK'
p257
g4
sS'RVNWOTRKGVNU'
p258
g4
sS'ZPLRSIFFLCQF'
p259
g4
sS'CDCZOCEUPCPZ'
p260
S'Law student Edinburgh unaaaay xoxo'
p261
sS'MWUKODJQVUKH'
p262
g4
sS'YUTXVEGQYCII'
p263
S'Architecture and design student '
p264
sS'DUYDMGYMIDLN'
p265
g4
sS'HJEOYVRGPSPK'
p266
g4
sS'WMIXFWSGVXKN'
p267
g4
sS'MSHTWGCYBUHQ'
p268
S'Architecture and design student '
p269
sS'BWOGRNQJBAOT'
p270
S"if it's bad for me I'll probably enjoy itsnapchat  ebgordonx"
p271
sS'EZNNDKIEWLVF'
p272
S"Instagram bapsiedeeHiyah  I'm Babs I'm a rd year Psychology student and nooo I can't read your mind by watching you not yet anyway  I work at and run club nights Yes I will always be a little bit fat  Bridget Jones so trueWhy don't you just ask what you want to know I am not going to sext you btw "
p273
sS'IJWDUISZNUMK'
p274
S'Architecture and design student '
p275
sS'WWNMJZNTIYJL'
p276
g4
sS'JRZCNUXECFZD'
p277
S"I'd say I'm not a twat but it would be a lie "
p278
sS'EWTAJDAAHKCG'
p279
S"I'm a fucking punmeister Looking for a drinking partner  someone to take me to Rotato for a jacket potato "
p280
sS'WGXBRPNWUHED'
p281
S"Give me a rate We might go on a date If it's not fate You can be my mate "
p282
sS'YMHDJMTPFGDE'
p283
S'Pretty fly for a white guyGlitter is always a good ideaI like big dogs'
p284
sS'ASEELRJTBYOV'
p285
g4
sS'ZYGERVGBZTCG'
p286
S"I'm a fucking punmeister Looking for a drinking partner  someone to take me to Rotato for a jacket potato "
p287
sS'WQTOWIZQLPXO'
p288
S"Parade with a 'M' Everybody needs a bosom for a pillow "
p289
sS'XDYVMURWCJEV'
p290
S"I'm a fucking punmeister Looking for a drinking partner  someone to take me to Rotato for a jacket potato "
p291
sS'RPONPWJMNQXW'
p292
S"Ashleigh Maree  single  Australian living in the UK  travel  Facebook  Ashleigh Maree Instagram  ashleighhmaree                                               Talk to me  I don't bite "
p293
sS'FTJZBXPIMVMS'
p294
g4
sS'YUHTIVNAYSED'
p295
g4
sS'JIWTRXTKXEMD'
p296
S'I do like pia coladasbut mostly just coconut rumNorthern IrishCaymanianEdinburghMSc  UoEIG kelfo whateverkelly'
p297
sS'GZHRHNZMBPFU'
p298
g4
sS'NFATOGCPQGLW'
p299
S'Gap year student '
p300
sS'KCXBMEBYWYTM'
p301
S'EdinburghBathgate  wine Motown music and sarcasm Edinburgh university politics student'
p302
sS'HUGBYAFWFXLZ'
p303
S'UofE politics student Fife '
p304
sS'BCBHANDWISBU'
p305
S'Architecture and design student '
p306
sS'ICMUHZIQIEOX'
p307
S'Architecture and design student '
p308
sS'UPJYXTPQHLPZ'
p309
S'Architecture and design student '
p310
sS'FAPPIMONGIEE'
p311
S"I got drunk and applied to go on Bargain Hunt Why did the plane crashBecause the pilot was a muffin If you don't crack a smile we aren't meant to be "
p312
sS'TTQZLYNVMWUM'
p313
S'Brighton'
p314
sS'UXILYRTJGPYL'
p315
g4
sS'JRNWRWXFSAMA'
p316
g4
sS'IARJZENVVLUC'
p317
S'Flowers make my day but rough sex makes my hole weak '
p318
sS'EKCUSHWKUUOI'
p319
S"I'm a fucking punmeister Looking for a drinking partner  someone to take me to Rotato for a jacket potato "
p320
sS'OAJUMBYTNXLI'
p321
S'LondonPinot PalsSunshine'
p322
sS'RCKEZJZJXKIT'
p323
g4
sS'JWFHNWSWRQBM'
p324
S' professional singerdancerWorking in ScotlandSomeone take me to winter wonderland pretty please '
p325
sS'GLWVSKGQKHSP'
p326
S'Australian  Teacher Living near London '
p327
sS'POQIZLFCYQHC'
p328
S"I'm a fucking punmeister Looking for a drinking partner  someone to take me to Rotato for a jacket potato "
p329
sS'MYIUVEZLEKOT'
p330
S' Country lass at heart                                                                                                                                                                                                                                Shinty for Strathglass and EUSC                    Animal biology in Napier                                                               A rugby and cider kinda gal '
p331
sS'XKLQCBTBEMHJ'
p332
S'Linlithgow Snapchat lauraaaamartin'
p333
sS'SDQVSWECWAIK'
p334
S'rd Year StudentEdinburgh Likely listening to The  '
p335
sS'KUCQGJXQVHBU'
p336
S'Architecture and design student '
p337
sS'DYRDTHPQOEVQ'
p338
S'Looking for a father for my nine beautiful childrenSnapchat joanofclark'
p339
sS'DCPNGSETUESY'
p340
S'Not interested in hookup nor dating only looking for friends who enjoy outdoor activities Also I am building a dating app that is way better than tinder Drop me a line if you are cool  outdoorsy and have a big heart and I will introduce you to my amazing single friends'
p341
sS'OSORWXLGTJHG'
p342
S'Architecture and design student '
p343
sS'NLPEVNMHYQZD'
p344
S"I'm a fucking punmeister Looking for a drinking partner  someone to take me to Rotato for a jacket potato "
p345
sS'GHKVCNOUGORU'
p346
g4
sS'NDTFLXVHIUVW'
p347
S'Architecture and design student '
p348
sS'GZUDMCGUTYLV'
p349
S"I am Australian I am adorable and the swing is my favourite playground apparati I know all the flags of the world Mambo no is my favourite song and I'm pretty bad at bowling "
p350
sS'YFJILGSBTOVS'
p351
S'Instagram  nsneddsnapchat  nicolessneddon'
p352
sS'WSMAJHLJBPQH'
p353
g4
sS'WRGEPIXWYQXF'
p354
S"I'm a fucking punmeister Looking for a drinking partner  someone to take me to Rotato for a jacket potato "
p355
sS'HFJKNBBLMXPL'
p356
S'English Lit at University of Edinburgh '
p357
sS'KKDCUICFOUSV'
p358
S"we wont stop until somebody calls the cops and even then we'll start agaaain and just pretend like nothin' ever happened ukulele playa and aspirin' artiste olay wanderlust is me middle name instagremmm  nogginintheclouds"
p359
sS'IFYLCQCPCDAX'
p360
S'Architecture and design student '
p361
sS'AKIZWFMFXXUP'
p362
g4
sS'RKCXKGYLJRFQ'
p363
S''
p364
sS'TKCMMQFPAOUK'
p365
S"I'm a fucking punmeister Looking for a drinking partner  someone to take me to Rotato for a jacket potato "
p366
sS'FDEOKXIPJRBJ'
p367
S"Second year history student at UofE I swear I'm more interesting than that makes me sound Instagram charlynch"
p368
sS'UGCNRSFSNCNY'
p369
S'Studying RBM in Edinburgh Ride horses and I like vodka oh and also have gr banter so hit me with what ya got '
p370
sS'NTKUZQZRXQAQ'
p371
g4
sS'HTMFPCDWNMDO'
p372
S'Proud recipient of the Most Detailed Bio On Tinder award  '
p373
sS'FHZQGSEJHZKS'
p374
S"I'm a fucking punmeister Looking for a drinking partner  someone to take me to Rotato for a jacket potato "
p375
sS'TFMVLNQXXUUO'
p376
g4
sS'WHKDSGXGWLLV'
p377
S"performing in my fourth year performance of The Marriage of Bette and Boo so won't be able to reply much this weekendCurrently living in Edinburgh and in my fourth year studying Acting  English at Napier  If you want to know anything just ask  "
p378
sS'TQTORHZTTMFQ'
p379
S'Edinburgh '
p380
sS'AVSFBDCDALYX'
p381
g4
sS'SWUJYQDQUDQG'
p382
S'Architecture and design student '
p383
sS'OMVTNWLZREYJ'
p384
S'Business Student in Edinburgh '
p385
sS'PGNLXBARUQBC'
p386
S' hairdresser Howdon '
p387
sS'VLFCIOATXRVX'
p388
S'Edinburgh med skl '
p389
sS'IODIMFDKYYJF'
p390
S'A busy working student with a big interest in life Like to meet new people learn from them discuss or just have fun A lot  of interests so little timeI am just looking for people that have something to say if not please do not swipe right'
p391
sS'NEIVYSRLTZOM'
p392
g4
sS'XASHQZEEGZVG'
p393
S'Scottish  studying engineering at Edinburgh uni '
p394
sS'AEIXGDOQXZJE'
p395
S"It's very complicated but basically they told me that I am the center of the universehttpbilyanahristovaemwordpresscom"
p396
sS'HNLZOXZRALED'
p397
g4
sS'NYWWUNOZVIKX'
p398
S'Hey Mr you better be tall '
p399
sS'MUJWAWIDZMOW'
p400
S"My underwear never matchesMy socks are always oddI am always lateI drink too muchI don't think before I speakImpulsive"
p401
sS'RAPQANOJUUZG'
p402
g4
sS'TORRGCIRFXZQ'
p403
g4
sS'GYDIGWWUAAKZ'
p404
S"First year student from Rep Of Ireland but not dublin I love the outdoors reading bluesjazzrock and just hanging out having the craic really Prefer a day out and a night in My newest venture is taking up going to the gym Bonus points if you have or like dogs ' curvy hourglass  I'm assuming that matters "
p405
sS'PEUGKFAAOIHC'
p406
S'Architecture and design student '
p407
sS'CNEFWOBIYRVT'
p408
S"I'm a fucking punmeister Looking for a drinking partner  someone to take me to Rotato for a jacket potato "
p409
sS'UTCSYUVCNIFU'
p410
S'Architecture and design student '
p411
sS'YUUISJAODLDC'
p412
S'Architecture and design student '
p413
sS'OYZDIHNWPGYD'
p414
S'Architecture and design student '
p415
sS'DYDVLOSGYVYH'
p416
S'I really like animal facts'
p417
sS'GCFTETPDRBUA'
p418
S'London  University of Edinburgh'
p419
sS'UOPWGWHKQOAV'
p420
S"Swipe left if you're not going to chatI have two beautiful and amazing kids who are my world  "
p421
sS'JOSEZLDAIZTK'
p422
g4
sS'ZDSNDYOTSKDV'
p423
S'exchange student from Germanytalents include looking like  and saying thank you to the bus driver'
p424
sS'VNRKDJCUOISI'
p425
S"I'm a fucking punmeister Looking for a drinking partner  someone to take me to Rotato for a jacket potato "
p426
sS'FUETKKMVUJRI'
p427
S'Insta kirstydLove health  fitness crossfit cooking sports Saturday nights out  '
p428
sS'BNEWICHBDEMP'
p429
S'nd year Edinburgh student artificially ginger and a bit of a nerd '
p430
sS'XDROUOUGDCRI'
p431
S"I'm a fucking punmeister Looking for a drinking partner  someone to take me to Rotato for a jacket potato "
p432
sS'TILUKPSLYIWL'
p433
S"I'm a fucking punmeister Looking for a drinking partner  someone to take me to Rotato for a jacket potato "
p434
sS'RBOAXQKEDRFM'
p435
g4
sS'HTDEBHCBXYAG'
p436
S'Instagram  laurenoneilllll '
p437
sS'DDEMYAUNMHMQ'
p438
S'Yorkshire lass studying Mechanical Engineering at Edinburgh'
p439
sS'NDITQQTSMIAI'
p440
g4
sS'LAVVOWCZRUOG'
p441
g4
sS'UDGYIOZJNWMM'
p442
g4
sS'ICLBEZYBFISG'
p443
S'Architecture and design student '
p444
sS'CSHFLXOHADJT'
p445
g4
sS'QJFLEXOOCRNC'
p446
S'BrightonEdinburghGeography studentig saskiaa'
p447
sS'JRVBVMTHZNDF'
p448
S'From Ireland studying nursing in Edinburgh '
p449
sS'QHKXNIIOZKGX'
p450
g4
sS'AEJJIHIPFVJS'
p451
g4
sS'PIEHJTBXCRLZ'
p452
g4
sS'IXXVELDFKVGQ'
p453
S'Edinburgh uni'
p454
sS'CSRBGVLJOHRZ'
p455
S'Architecture and design student '
p456
sS'VAVQBUJHWXPS'
p457
S'Architecture and design student '
p458
sS'OOFNJTGOLRAO'
p459
S'Architecture and design student '
p460
sS'SOYIULETYALA'
p461
S"I'm a fucking punmeister Looking for a drinking partner  someone to take me to Rotato for a jacket potato "
p462
sS'LITJDINFXVAR'
p463
g4
sS'KHPUMDBNAYGK'
p464
S"I'm a fucking punmeister Looking for a drinking partner  someone to take me to Rotato for a jacket potato "
p465
sS'CDZGSKQVFERK'
p466
S"St AndrewsEdinburgh I promise I'm not posh "
p467
sS'SEJPPPAHUMCJ'
p468
S"I'm a fucking punmeister Looking for a drinking partner  someone to take me to Rotato for a jacket potato "
p469
sS'MTQEAQMXNBYH'
p470
g4
sS'BNTCXCMPZSIE'
p471
S"I'm a fucking punmeister Looking for a drinking partner  someone to take me to Rotato for a jacket potato "
p472
sS'AFQAFBKVOYFY'
p473
g4
s.