(dp0
S'EOLFXEXASLLG'
p1
S"Some people call me the space cowboy Some call me the gangster of love Some people call me Maurice  But please don't because my name is Charlie and that's incorrect"
p2
sS'MWMIBZWDGSPS'
p3
S''
p4
sS'QDJSULTZXYZG'
p5
S"I like what I like and hopefully you like it too So if you don't ask you'll never know x"
p6
sS'IGDRGZOHVDOY'
p7
S'From Donegal in th year at RGU'
p8
sS'XMSPKFWXGZWE'
p9
S'Architecture and design student '
p10
sS'XFDQBACYVOOT'
p11
g4
sS'YTWMGPPCMCDP'
p12
S'Lusaka London Edinburgh '
p13
sS'NLHFWBJWCBMY'
p14
g4
sS'MATQMFRDNXHZ'
p15
S'Second year brewing and distilling at heriot watt university '
p16
sS'OUSJPXCUEJON'
p17
S'Irish lassie studying medicine at Edinburgh uni Anything you wana know just ask  '
p18
sS'LDQVTBNVPWYV'
p19
S'annoying swedish vegan'
p20
sS'SEWVCXXMAAXA'
p21
S'Fried chicken and chill '
p22
sS'OPRBQBWEXPUI'
p23
g4
sS'GMEDJVHXJCDB'
p24
S'PE Student at University of EdinburghTwitter  KaraMillerInstagram  karamiller'
p25
sS'ZKGSVSNSRYLR'
p26
g4
sS'OHVTCNXMLKVK'
p27
g4
sS'FBIDISGEZAQV'
p28
S'Healthy living Music Hiking Films Dancing Books Tea and coffee Cooking Guitar Travelling Cycling '
p29
sS'RCKEZJZJXKIT'
p30
g4
sS'RNJUJXTOGRXN'
p31
S'I will like you if you have a dog'
p32
sS'VVLUJJMBOZKG'
p33
S'I paid this owl to make me look good '
p34
sS'YICIIVDKDFGQ'
p35
S'Architecture and design student '
p36
sS'XLWLXZEFZLVM'
p37
S"I'm a fucking punmeister Looking for a drinking partner  someone to take me to Rotato for a jacket potato "
p38
sS'RDKKIPESCBKQ'
p39
S'UofE '
p40
sS'DPYSJWFIGEZU'
p41
S'Studio Assistant and Postgraduate Student'
p42
sS'BMQPKDLACMBM'
p43
g4
sS'TNVBEWMRQZEM'
p44
S"Vet student at Edinburgh UniLover of films books a good night out and singing in the showerIf you don't love dogs there's probably no point"
p45
sS'BXJHBBCPXEWW'
p46
S'Architecture and design student '
p47
sS'WUEKGBTGFXZF'
p48
g4
sS'XPBABWMZUNHO'
p49
S'Ps beards give me the fear '
p50
sS'AFDDOCWWWLPH'
p51
S'Edinburgh'
p52
sS'OFQDDHZQVYUR'
p53
S"I'm short Like super shortI drink too much coffeeI talk about animals a lot And cities make me want to curl up in a ball and cry"
p54
sS'RFRZFXATHEAY'
p55
g4
sS'BHQRGUXXXWPW'
p56
S"I'm a fucking punmeister Looking for a drinking partner  someone to take me to Rotato for a jacket potato "
p57
sS'YLIUECDYLWZK'
p58
S'Child nursing studentCheckout chick extraordinaireThe Office fanaticWine addictKate in a nutshell'
p59
sS'HMEIEWYEGLEM'
p60
S"my name's actually chlo lolfrenchamerican lifeguard singer volleyball player "
p61
sS'GXSGWLVUTPPZ'
p62
S'Northern Irish Business and Finance student at University of Edinburgh '
p63
sS'UUEDPPEWWYKQ'
p64
g4
sS'CDZGSKQVFERK'
p65
S"St AndrewsEdinburgh I promise I'm not posh "
p66
sS'BLKBIYTNNIZG'
p67
S'American  studying abroad in Edinburgh'
p68
sS'YRXVSUFCUSCO'
p69
g4
sS'PGNLXBARUQBC'
p70
S' hairdresser Howdon '
p71
sS'HFVECPTGXNLR'
p72
g4
sS'WFQEFGDALMMW'
p73
S'NorwayEdinburgh'
p74
sS'YADAKJBUMFEX'
p75
S"I'm a fucking punmeister Looking for a drinking partner  someone to take me to Rotato for a jacket potato "
p76
sS'BXGWUKQQOSDZ'
p77
g4
sS'KYVWCPUDHUKT'
p78
g4
sS'JLPJLJUAVXVB'
p79
S'Wine them dine them and  them That Professional Cookery student twat thing from Edinburgh  DC or die'
p80
sS'HEHXZOTBDBXG'
p81
S"I'm a fucking punmeister Looking for a drinking partner  someone to take me to Rotato for a jacket potato "
p82
sS'RPBYFIXNALIK'
p83
S'New Yorker writer tequila enthusiast Looking for an adventuredrinkingsnuggle buddy I look good in your flannel '
p84
sS'NLFKUFLJSUGM'
p85
S"I'm a fucking punmeister Looking for a drinking partner  someone to take me to Rotato for a jacket potato "
p86
sS'YCDVGDFRRYRP'
p87
S'Architecture and design student '
p88
sS'JKBCWDPQREMO'
p89
S"I'm a fucking punmeister Looking for a drinking partner  someone to take me to Rotato for a jacket potato "
p90
sS'TYSWJMKETMYN'
p91
g4
sS'GDLYTBVZXIEU'
p92
S'Uni of Edinburgh History Student pretty crap at dates tho'
p93
sS'EEIEZPKIBPUQ'
p94
S'Architecture and design student '
p95
sS'HPWLTDYRLUSW'
p96
g4
sS'RKQAJPJCCASO'
p97
S'Edinburgh  Durham'
p98
sS'SOYIULETYALA'
p99
S"I'm a fucking punmeister Looking for a drinking partner  someone to take me to Rotato for a jacket potato "
p100
sS'BQTZIWHAFENZ'
p101
g4
sS'NEIVYSRLTZOM'
p102
g4
sS'QUUWCSDWEDQE'
p103
g4
sS'LZOMSMTUDSZB'
p104
S'Roses are red Violets are blueI like sour cream and chive Pringles and grilled halloumi '
p105
sS'VNRKDJCUOISI'
p106
S"I'm a fucking punmeister Looking for a drinking partner  someone to take me to Rotato for a jacket potato "
p107
sS'YCELEKWPSEUD'
p108
S'Lithuanian Business Management student at Qmu'
p109
sS'USVKNLWYLDVU'
p110
g4
sS'GCTYQTFRPRMJ'
p111
S'Bristol Uni graduateJust wanna drink wine and take naps '
p112
sS'PZQVNYVJVLMH'
p113
S" years oldProud mum to two beautiful young boys Jayden  Tyler They are my life No one will ever come before them So if you Can't accept I have two beautiful little boys Then swipe left Bit of a adrenaline junkie love my theme parksAlso love football Hibernian fcFrom Edinburgh Snapchat SamanthacowiexxInstagram Samanthacowiexx"
p114
sS'JXITFQXCSQAY'
p115
g4
sS'POQIZLFCYQHC'
p116
S"I'm a fucking punmeister Looking for a drinking partner  someone to take me to Rotato for a jacket potato "
p117
sS'DBSJGHTDBPXD'
p118
g4
sS'UIKKSKXKWBDH'
p119
S'Geography Edinburgh  Yorkshire '
p120
sS'YXFPTHTOTYQM'
p121
S'Yorkshire pudding working down south I like giraffes and the pub and foodYes I am the little mermaid'
p122
sS'YNZOIUUIRCRO'
p123
S'Architecture and design student '
p124
sS'EJQAUAHXTMCK'
p125
g4
sS'WMVSTASSRCMS'
p126
S"I'm a fucking punmeister Looking for a drinking partner  someone to take me to Rotato for a jacket potato "
p127
sS'WXIRURYTUEPX'
p128
g4
sS'HTGUJHYYIUHX'
p129
S'Love life '
p130
sS'ZICSGMNHFTMS'
p131
S"I'm a fucking punmeister Looking for a drinking partner  someone to take me to Rotato for a jacket potato "
p132
sS'DFEJPYILVMEW'
p133
g4
sS'QOEYGDEPRZMZ'
p134
g4
sS'GOMZWWDHSWHU'
p135
S'Student Paediatric nurse at Dundee Uni'
p136
sS'QYWQZLBICJTP'
p137
S'If you like Morrissey we can be friends I like ghouls and I dislike knees Student nurse '
p138
sS'BEZXWBJQJIUD'
p139
g4
sS'JKHMFEIPWUOO'
p140
S'Dance sunshine and snacks are all I need '
p141
sS'OXCOOEPXYNTY'
p142
S' EdinburghSc  Twitter  Instagram Rowanhand'
p143
sS'TFHAABJBLPLF'
p144
S'I am a very shy person with a big heartI studied health and social care in queen Margaret uni  I am at Edinburgh college studying nursingDream is to become a paramedic somedaySnapchat teaganc'
p145
sS'BLRGAOCKFUYD'
p146
S"Originally from the US just trying out this on the recommendation of a friend I'm a laid back taveller Game of Thrones enthusiast equestrian dog obsessed bacon eater sports fan velociraptor handler in training geek and history nerd Not looking for casual hookups  sorry Just looking to meet new people  Also so it's not a surprise I'm '  cm"
p147
sS'MOTYAFJJRXKH'
p148
S"I'm a fucking punmeister Looking for a drinking partner  someone to take me to Rotato for a jacket potato "
p149
sS'TBWHRLQCTILG'
p150
S'rd year student  Wine loving vegetarian '
p151
sS'DDNNYHPCHFGN'
p152
S"I'm a fucking punmeister Looking for a drinking partner  someone to take me to Rotato for a jacket potato "
p153
sS'YICDMBIOBAFY'
p154
g4
sS'DELARUTXBXYD'
p155
S"Beyonc and Liverpool oh and I'm Dutch studying in Edinburgh "
p156
sS'UIWONCMOLEQF'
p157
S"I'm a fucking punmeister Looking for a drinking partner  someone to take me to Rotato for a jacket potato "
p158
sS'OVLAELSKZJKJ'
p159
S'Student nurse Greedy bisexual At least  composed of Lidl own brand wine '
p160
sS'MNDKYHAAPBKS'
p161
S'EdinburghOban '
p162
sS'KDCPTLXVNPJL'
p163
g4
sS'NMHYDSYFTKDH'
p164
S'avid shower singerenthusiastic drunk rapperlove shrek and not ironicallytwo years ago i was a proficient windsurferlooking for a name for my cactus taking all suggestions'
p165
sS'NQOWOYGNBQAV'
p166
g4
sS'RINZQUPBJJYR'
p167
g4
sS'TMTIVBKTALFO'
p168
S"  bexxjack    bexxxjack   ft  'a like the playstation do you like the  playstation''huv ye heard aw the new rapper music av heard it an a like it'"
p169
sS'LBMCIDZWKDJN'
p170
S'Architecture and design student '
p171
sS'OSLEKPYGFVNO'
p172
S'Doing my second degree in LLB LawI like long romantic walks to the fridge'
p173
sS'QIFXROIOANDE'
p174
S"I'm a fucking punmeister Looking for a drinking partner  someone to take me to Rotato for a jacket potato "
p175
sS'IZYHBPUMFATY'
p176
g4
sS'FUDPISKCUXGR'
p177
S'Niamh  UofE  English Lit and History '
p178
sS'FNXDBIIRNXTF'
p179
S'yr Fashiontextile student in edinburgh '
p180
sS'BINNBCRQZOJJ'
p181
S'Business student Edinburgh '
p182
sS'JMYURVUIFKOR'
p183
S"Life's too short eat dessert first "
p184
sS'QZQAWGICLDLE'
p185
S"I'm a fucking punmeister Looking for a drinking partner  someone to take me to Rotato for a jacket potato "
p186
sS'UYUXCGSDJSTF'
p187
S"I'm American with family in ScotlandOutgoing and friendly feel free to get to know me Chicago Native "
p188
sS'AGCCUMXSORMI'
p189
g4
sS'VEXATOPUMWLS'
p190
S"American visiting Edinburgh for the week In search the city's best scone "
p191
sS'HQONSBTSHZXQ'
p192
g4
sS'XFCLYHHRKLRV'
p193
S'Originally from London went to uni in Belfast currently a nurse in Leicester ft'
p194
sS'HVDOIFKUTDJJ'
p195
g4
sS'CYOAMVDBOIBL'
p196
S'Et si on allait boire un verre ensemble   '
p197
sS'OCXBRMWBAHRC'
p198
S' Edinburgh Scotland Theatre nurse'
p199
sS'CLLWEOTSAJMO'
p200
S'   '
p201
sS'WCJWZADGZIBK'
p202
S'Well im laid back simple chick dont like loads of fuss and im a woman that can take care of her self but sometimes its nice to have someone take care of u lol i like long walks chilling out watching movies and haveing a laugh '
p203
sS'ZDSNDYOTSKDV'
p204
S'exchange student from Germanytalents include looking like  and saying thank you to the bus driver'
p205
sS'QWPEFQCMSJUM'
p206
S'Architecture and design student '
p207
sS'JIZUFUBZJEGL'
p208
g4
sS'JXEDPZWGSDPK'
p209
S'EnglishSwissI speak  languages love travelling art yoga and poetry Based between Edinburgh London and Geneva'
p210
sS'LNHXTZZOGAAS'
p211
S'Pretty much a massive nerd '
p212
sS'AWDFIZDUBUYY'
p213
g4
sS'SHGORMCOZVJT'
p214
S'ScottishAustralian Studying at Edinburgh Uni'
p215
sS'PKDBYGIIODMD'
p216
S"English literature student I like music and tequila I love people with a good sense of humour and bonus points if you can make me laugh Dogs are definitely my weakness I'm about as northerly Scottish as you can get Im terrible at small talk so just straight up ask me if I believe in aliens I'll reply "
p217
sS'CNIOMRRTIMTK'
p218
g4
sS'SIZIGJYEZTUH'
p219
S'Snapchat  razzapee '
p220
sS'LIWBAOGWUHNL'
p221
g4
sS'DEYGDWPZJPTA'
p222
g4
sS'EDPAEQAWUEQU'
p223
S'Architecture and design student '
p224
sS'BWMVIYKWJRJC'
p225
S'Edinburgh Uni'
p226
sS'WZRBWAHCGQAE'
p227
S'University of Edinburgh'
p228
sS'TXRSVKRHUQAL'
p229
S'portree '
p230
sS'MEEHLUNJRTDF'
p231
S'Art student'
p232
sS'LYVIHWFNDXVB'
p233
g4
sS'GEWBBPMNBFZN'
p234
S'Architecture and design student '
p235
sS'TQYALSCLALRS'
p236
g4
sS'OHDOBKXAVDKT'
p237
S'Now recruiting for a winter snuggle buddy '
p238
sS'IXPXCCLDUFKK'
p239
S"Hello I'm Kerry just recently joined this So will see how it goes  Give me a message if you fancy a blether No creeps please "
p240
sS'LSHKOYBNTDIO'
p241
g4
sS'ZWGNFVBXRKYT'
p242
S'Irish in Edinburgh  '
p243
sS'IIJVKYUYDMCS'
p244
S"I'm all about fun and drinking im on tinder coz I'm bored and thinks it's finny looking the pics  hollieash hollies"
p245
sS'SKLMZRAXPLXT'
p246
S"I'm basically a really awkward loser who likes nerdy things and the outdoors Cats are awesome college is fun and I have sass for DAYS on end From the US Studying ANTHRO at Edinburgh  This is the field where I grow my fucks As you can see it is barren Message me first or we're probably not gonna talk IG TayJaeThornTumblr imakittyrawrandstuffSnapchat"
p247
sS'HFDWHSUQMDXV'
p248
S"Steph Blart Mall CopI'm a simple man I like pretty dark haired women and breakfast food "
p249
sS'LJWWHJXKQJJP'
p250
S'Napier student '
p251
sS'KVTRUGXNJGJU'
p252
g4
sS'VRWJADWCPWET'
p253
S'nd year at QMUMade in Sweden'
p254
sS'KNLLSAGJTSNF'
p255
S' Edinburgh Actor Singer Selfie taker'
p256
sS'CQIOHKGKBTGJ'
p257
g4
sS'CUIRAQQZPPVY'
p258
S'SwimmerWater Polo playerStudying at Edinburgh UniWorking part time in sports development '
p259
sS'IPOWKSMHJNLV'
p260
g4
sS'UCMRJCTKQZJK'
p261
S'Architecture and design student '
p262
sS'HKFBXODLHFZD'
p263
g4
sS'YQYBPAMAQDRN'
p264
g4
sS'ZXZRLHFQYVRB'
p265
S'An almostGlasgow girl studying at Edinburgh uni  '
p266
sS'IGUGVQFUISAM'
p267
S'I am looking for someone to share in an adventure Lover of films tattoos country music and wine '
p268
sS'IJLVTPYPKBBW'
p269
S"rd year student completely ditzy and always up for a laugh SnapchatInstagram  speshjess  A woman wants a polite bad boy a guy that'll open the door for her but still smacks her ass as she walks past"
p270
sS'ALGLIMFKQBPW'
p271
g4
sS'RBOAXQKEDRFM'
p272
g4
sS'UXILYRTJGPYL'
p273
g4
sS'DADACWUQENND'
p274
g4
sS'BHVZNJLSDSSZ'
p275
S'Tenners bet i could beat you in a race '
p276
sS'WYEZBMBZBABD'
p277
S'Londoner Edinburgh UniShakira is my spirit animal  Instagram aliciamlp'
p278
sS'HWZJULCNXKOY'
p279
S'Edinburgh Uni Lover of all things gin '
p280
sS'FKKRSLQYMDFY'
p281
g4
sS'CNTJUXVHDWJV'
p282
g4
sS'TAFDTDPZHOLI'
p283
S"My name is Emily Rose yes like the horror movie I'm EnglishCypriot Studying Psychology I like tattoos and listen to any music instagram  emilyrosech"
p284
sS'BCSQFGCVJETH'
p285
g4
sS'YKMMKOVYRCDR'
p286
g4
sS'XSENDMILOBVO'
p287
S'Uni of Edinburgh masters student Love sport cooking coffee gin travelling dogs science and charity work '
p288
sS'IGKAEBAOSVNQ'
p289
g4
sS'VAINBLSGHLAA'
p290
S"I'm a catalan girl studying at Napier University Looking forward to meeting new people If we match talk to me "
p291
sS'WXIUTNTHIDWU'
p292
S'University of Edinburgh  postgraduate University of York  Philosophy'
p293
sS'YAOWOTEUDIRO'
p294
S'Architecture and design student '
p295
sS'MUBRVALPMURV'
p296
S"I'm a fucking punmeister Looking for a drinking partner  someone to take me to Rotato for a jacket potato "
p297
sS'MZWFXPUUBZHR'
p298
S'Instagram ellied'
p299
sS'DANOBPMAMOLF'
p300
g4
sS'UANZJLNXIEXG'
p301
S'Med student Edinburgh uni '
p302
sS'HHRXUSEYKNLK'
p303
g4
sS'RVNWOTRKGVNU'
p304
g4
sS'ZPLRSIFFLCQF'
p305
g4
sS'CDCZOCEUPCPZ'
p306
S'Law student Edinburgh unaaaay xoxo'
p307
sS'MWUKODJQVUKH'
p308
g4
sS'YUTXVEGQYCII'
p309
S'Architecture and design student '
p310
sS'CDRIYGOUKZGJ'
p311
S"I'm a fucking punmeister Looking for a drinking partner  someone to take me to Rotato for a jacket potato "
p312
sS'DUYDMGYMIDLN'
p313
g4
sS'HJEOYVRGPSPK'
p314
g4
sS'WMIXFWSGVXKN'
p315
g4
sS'MSHTWGCYBUHQ'
p316
S'Architecture and design student '
p317
sS'BWOGRNQJBAOT'
p318
S"if it's bad for me I'll probably enjoy itsnapchat  ebgordonx"
p319
sS'EZNNDKIEWLVF'
p320
S"Instagram bapsiedeeHiyah  I'm Babs I'm a rd year Psychology student and nooo I can't read your mind by watching you not yet anyway  I work at and run club nights Yes I will always be a little bit fat  Bridget Jones so trueWhy don't you just ask what you want to know I am not going to sext you btw "
p321
sS'IJWDUISZNUMK'
p322
S'Architecture and design student '
p323
sS'WWNMJZNTIYJL'
p324
g4
sS'JRZCNUXECFZD'
p325
S"I'd say I'm not a twat but it would be a lie "
p326
sS'QABICIJMDIIC'
p327
S"rd year pharmacology student If I was your gf I'd never let you go I can take places you ain't never been before Baby take a chance or you'll never ever know "
p328
sS'EWTAJDAAHKCG'
p329
S"I'm a fucking punmeister Looking for a drinking partner  someone to take me to Rotato for a jacket potato "
p330
sS'YUUISJAODLDC'
p331
S'Architecture and design student '
p332
sS'YMHDJMTPFGDE'
p333
S'Pretty fly for a white guyGlitter is always a good ideaI like big dogs'
p334
sS'ASEELRJTBYOV'
p335
g4
sS'ZYGERVGBZTCG'
p336
S"I'm a fucking punmeister Looking for a drinking partner  someone to take me to Rotato for a jacket potato "
p337
sS'WQTOWIZQLPXO'
p338
S"Parade with a 'M' Everybody needs a bosom for a pillow "
p339
sS'XDYVMURWCJEV'
p340
S"I'm a fucking punmeister Looking for a drinking partner  someone to take me to Rotato for a jacket potato "
p341
sS'RPONPWJMNQXW'
p342
S"Ashleigh Maree  single  Australian living in the UK  travel  Facebook  Ashleigh Maree Instagram  ashleighhmaree                                               Talk to me  I don't bite "
p343
sS'FTJZBXPIMVMS'
p344
g4
sS'ZVZBFSIQKJBT'
p345
S'EdinburghNike Sneakers  Piercings Snapchat rebekahcarralx'
p346
sS'YUHTIVNAYSED'
p347
g4
sS'KMCHPMZQAFYL'
p348
S"If your gonna ask me for a shag don't even bother messaging meLooking for a long term relationship not fun Or even just a pal cause I've no friends   Only if your genuinely serious about a relationship or friendship message me Fed up of being used and messed aboutadd my snapchat niamhmabelxo Follow my instagram niamhh"
p349
sS'GZHRHNZMBPFU'
p350
g4
sS'RSECHUNRDZXE'
p351
S'adventure and netflix pls'
p352
sS'KCXBMEBYWYTM'
p353
S'EdinburghBathgate  wine Motown music and sarcasm Edinburgh university politics student'
p354
sS'HUGBYAFWFXLZ'
p355
S'UofE politics student Fife '
p356
sS'BCBHANDWISBU'
p357
S'Architecture and design student '
p358
sS'ICMUHZIQIEOX'
p359
S'Architecture and design student '
p360
sS'ACYZJAGPQJOL'
p361
g4
sS'FAPPIMONGIEE'
p362
S"I got drunk and applied to go on Bargain Hunt Why did the plane crashBecause the pilot was a muffin If you don't crack a smile we aren't meant to be "
p363
sS'TTQZLYNVMWUM'
p364
S'Brighton'
p365
sS'JTUIHTAKUCJU'
p366
g4
sS'JRNWRWXFSAMA'
p367
g4
sS'ZKWHSOZUYJPX'
p368
S''
p369
sS'IARJZENVVLUC'
p370
S'Flowers make my day but rough sex makes my hole weak '
p371
sS'EKCUSHWKUUOI'
p372
S"I'm a fucking punmeister Looking for a drinking partner  someone to take me to Rotato for a jacket potato "
p373
sS'OAJUMBYTNXLI'
p374
S'LondonPinot PalsSunshine'
p375
sS'EKGDRUSZPLAE'
p376
S'Originally Irish but living in EdinburghFirst year at qmu '
p377
sS'JWFHNWSWRQBM'
p378
S' professional singerdancerWorking in ScotlandSomeone take me to winter wonderland pretty please '
p379
sS'DIYZTRWVGFNW'
p380
S'My Kryptonite is my shyness '
p381
sS'GLWVSKGQKHSP'
p382
S'Australian  Teacher Living near London '
p383
sS'MQCVAUGYXPJF'
p384
S'Architecture and design student '
p385
sS'MYIUVEZLEKOT'
p386
S' Country lass at heart                                                                                                                                                                                                                                Shinty for Strathglass and EUSC                    Animal biology in Napier                                                               A rugby and cider kinda gal '
p387
sS'XKLQCBTBEMHJ'
p388
S'Linlithgow Snapchat lauraaaamartin'
p389
sS'SDQVSWECWAIK'
p390
S'rd Year StudentEdinburgh Likely listening to The  '
p391
sS'KUCQGJXQVHBU'
p392
S'Architecture and design student '
p393
sS'DYRDTHPQOEVQ'
p394
S'Looking for a father for my nine beautiful childrenSnapchat joanofclark'
p395
sS'DCPNGSETUESY'
p396
S'Not interested in hookup nor dating only looking for friends who enjoy outdoor activities Also I am building a dating app that is way better than tinder Drop me a line if you are cool  outdoorsy and have a big heart and I will introduce you to my amazing single friends'
p397
sS'OSORWXLGTJHG'
p398
S'Architecture and design student '
p399
sS'NLPEVNMHYQZD'
p400
S"I'm a fucking punmeister Looking for a drinking partner  someone to take me to Rotato for a jacket potato "
p401
sS'GHKVCNOUGORU'
p402
g4
sS'NDTFLXVHIUVW'
p403
S'Architecture and design student '
p404
sS'GZUDMCGUTYLV'
p405
S"I am Australian I am adorable and the swing is my favourite playground apparati I know all the flags of the world Mambo no is my favourite song and I'm pretty bad at bowling "
p406
sS'YFJILGSBTOVS'
p407
S'Instagram  nsneddsnapchat  nicolessneddon'
p408
sS'WSMAJHLJBPQH'
p409
g4
sS'WRGEPIXWYQXF'
p410
S"I'm a fucking punmeister Looking for a drinking partner  someone to take me to Rotato for a jacket potato "
p411
sS'HFJKNBBLMXPL'
p412
S'English Lit at University of Edinburgh '
p413
sS'LJGTCQFTJFBD'
p414
g4
sS'IFYLCQCPCDAX'
p415
S'Architecture and design student '
p416
sS'AKIZWFMFXXUP'
p417
g4
sS'RKCXKGYLJRFQ'
p418
S''
p419
sS'TKCMMQFPAOUK'
p420
S"I'm a fucking punmeister Looking for a drinking partner  someone to take me to Rotato for a jacket potato "
p421
sS'FDEOKXIPJRBJ'
p422
S"Second year history student at UofE I swear I'm more interesting than that makes me sound Instagram charlynch"
p423
sS'UGCNRSFSNCNY'
p424
S'Studying RBM in Edinburgh Ride horses and I like vodka oh and also have gr banter so hit me with what ya got '
p425
sS'NTKUZQZRXQAQ'
p426
g4
sS'HTMFPCDWNMDO'
p427
S'Proud recipient of the Most Detailed Bio On Tinder award  '
p428
sS'FHZQGSEJHZKS'
p429
S"I'm a fucking punmeister Looking for a drinking partner  someone to take me to Rotato for a jacket potato "
p430
sS'TFMVLNQXXUUO'
p431
g4
sS'WHKDSGXGWLLV'
p432
S"performing in my fourth year performance of The Marriage of Bette and Boo so won't be able to reply much this weekendCurrently living in Edinburgh and in my fourth year studying Acting  English at Napier  If you want to know anything just ask  "
p433
sS'FQPZIVDGYCSD'
p434
S"So this is what urban dictionary says about me She laughs a lot and is always there for you willing to listen and help Rebecca is someone everyone likes from the beginning You just have to look at her and you know she's an interesting and friendly person She's very determined to make the best of her life and is charmingly competitive at certain things She's great fun to be around and always makes you feel happy But message me and find out for yourself "
p435
sS'TQTORHZTTMFQ'
p436
S'Edinburgh '
p437
sS'AVSFBDCDALYX'
p438
g4
sS'SWUJYQDQUDQG'
p439
S'Architecture and design student '
p440
sS'OMVTNWLZREYJ'
p441
S'Business Student in Edinburgh '
p442
sS'IPFFGRDAOLJL'
p443
g4
sS'JIWTRXTKXEMD'
p444
S'I do like pia coladasbut mostly just coconut rumNorthern IrishCaymanianEdinburghMSc  UoEIG kelfo whateverkelly'
p445
sS'VLFCIOATXRVX'
p446
S'Edinburgh med skl '
p447
sS'IODIMFDKYYJF'
p448
S'A busy working student with a big interest in life Like to meet new people learn from them discuss or just have fun A lot  of interests so little timeI am just looking for people that have something to say if not please do not swipe right'
p449
sS'OYZDIHNWPGYD'
p450
S'Architecture and design student '
p451
sS'XASHQZEEGZVG'
p452
S'Scottish  studying engineering at Edinburgh uni '
p453
sS'PMAFLIIDBMOQ'
p454
S'Student Nurse  Irish  Living in Edinburgh '
p455
sS'HNLZOXZRALED'
p456
g4
sS'NYWWUNOZVIKX'
p457
S'Hey Mr you better be tall '
p458
sS'MUJWAWIDZMOW'
p459
S"My underwear never matchesMy socks are always oddI am always lateI drink too muchI don't think before I speakImpulsive"
p460
sS'RAPQANOJUUZG'
p461
g4
sS'TORRGCIRFXZQ'
p462
g4
sS'NFATOGCPQGLW'
p463
S'Gap year student '
p464
sS'GYDIGWWUAAKZ'
p465
S"First year student from Rep Of Ireland but not dublin I love the outdoors reading bluesjazzrock and just hanging out having the craic really Prefer a day out and a night in My newest venture is taking up going to the gym Bonus points if you have or like dogs ' curvy hourglass  I'm assuming that matters "
p466
sS'PEUGKFAAOIHC'
p467
S'Architecture and design student '
p468
sS'CNEFWOBIYRVT'
p469
S"I'm a fucking punmeister Looking for a drinking partner  someone to take me to Rotato for a jacket potato "
p470
sS'UTCSYUVCNIFU'
p471
S'Architecture and design student '
p472
sS'HVKQULCMFALG'
p473
S'Instagram jennyxxSnapchat jennycTwitter JennyCuthbertLove a man with a beard Fife '
p474
sS'YPJFQXERGDTB'
p475
g4
sS'DYDVLOSGYVYH'
p476
S'I really like animal facts'
p477
sS'GCFTETPDRBUA'
p478
S'London  University of Edinburgh'
p479
sS'UOPWGWHKQOAV'
p480
S"Swipe left if you're not going to chatI have two beautiful and amazing kids who are my world  "
p481
sS'JOSEZLDAIZTK'
p482
g4
sS'WGXBRPNWUHED'
p483
S"Give me a rate We might go on a date If it's not fate You can be my mate "
p484
sS'PRSNBBIZHMBH'
p485
g4
sS'YMURYEZGFYFQ'
p486
g4
sS'FUETKKMVUJRI'
p487
S'Insta kirstydLove health  fitness crossfit cooking sports Saturday nights out  '
p488
sS'BNEWICHBDEMP'
p489
S'nd year Edinburgh student artificially ginger and a bit of a nerd '
p490
sS'XDROUOUGDCRI'
p491
S"I'm a fucking punmeister Looking for a drinking partner  someone to take me to Rotato for a jacket potato "
p492
sS'TILUKPSLYIWL'
p493
S"I'm a fucking punmeister Looking for a drinking partner  someone to take me to Rotato for a jacket potato "
p494
sS'FIJZWHCYQQFJ'
p495
S"We don't have to take out clothes off To have a good time oh yeh "
p496
sS'HTDEBHCBXYAG'
p497
S'Instagram  laurenoneilllll '
p498
sS'DDEMYAUNMHMQ'
p499
S'Yorkshire lass studying Mechanical Engineering at Edinburgh'
p500
sS'NDITQQTSMIAI'
p501
g4
sS'LAVVOWCZRUOG'
p502
g4
sS'UDGYIOZJNWMM'
p503
g4
sS'ICLBEZYBFISG'
p504
S'Architecture and design student '
p505
sS'CSHFLXOHADJT'
p506
g4
sS'KKDCUICFOUSV'
p507
S"we wont stop until somebody calls the cops and even then we'll start agaaain and just pretend like nothin' ever happened ukulele playa and aspirin' artiste olay wanderlust is me middle name instagremmm  nogginintheclouds"
p508
sS'QJFLEXOOCRNC'
p509
S'BrightonEdinburghGeography studentig saskiaa'
p510
sS'BKYENXTBIVSN'
p511
S"Emma loudenBe happy not sad because sad reversed is 'das' and das no good "
p512
sS'JRVBVMTHZNDF'
p513
S'From Ireland studying nursing in Edinburgh '
p514
sS'QHKXNIIOZKGX'
p515
g4
sS'AEJJIHIPFVJS'
p516
g4
sS'PIEHJTBXCRLZ'
p517
g4
sS'IXXVELDFKVGQ'
p518
S'Edinburgh uni'
p519
sS'CSRBGVLJOHRZ'
p520
S'Architecture and design student '
p521
sS'VAVQBUJHWXPS'
p522
S'Architecture and design student '
p523
sS'OOFNJTGOLRAO'
p524
S'Architecture and design student '
p525
sS'UPJYXTPQHLPZ'
p526
S'Architecture and design student '
p527
sS'LITJDINFXVAR'
p528
g4
sS'KHPUMDBNAYGK'
p529
S"I'm a fucking punmeister Looking for a drinking partner  someone to take me to Rotato for a jacket potato "
p530
sS'AEIXGDOQXZJE'
p531
S"It's very complicated but basically they told me that I am the center of the universehttpbilyanahristovaemwordpresscom"
p532
sS'SEJPPPAHUMCJ'
p533
S"I'm a fucking punmeister Looking for a drinking partner  someone to take me to Rotato for a jacket potato "
p534
sS'MTQEAQMXNBYH'
p535
g4
sS'BNTCXCMPZSIE'
p536
S"I'm a fucking punmeister Looking for a drinking partner  someone to take me to Rotato for a jacket potato "
p537
sS'AFQAFBKVOYFY'
p538
g4
s.