(dp0
S'ZFTAMZYQEVPD'
p1
S'Snapchat  libsnedxInstagram  libsnedTwitter  libsned'
p2
sS'EIURRCCAIFZX'
p3
S'Fully qualified Advanced Beauty Therapist Dunfermline Fife Scotland Snapchat  lovelydawnxoxo Insta  missdawnlx'
p4
sS'TDTJPSPJFJPS'
p5
S"Im ft  Sadly I am on tinder to actually find someone since its no happening when I'm out Im not looking for someone till after christmas just so i dont have to buy you a present Want to know more then you know what to do "
p6
sS'FEFDQBDBCLBO'
p7
S"I'm a fucking punmeister Looking for a drinking partner  someone to take me to Rotato for a jacket potato "
p8
sS'MPEOTOXPBEEV'
p9
S"All you fellas listing your height tattoo status and beard status so I thought I'd do the same to ensure we're on the same page Yah I have tattoos No I can't grow a beard Brewdog anyone"
p10
sS'LFCCNMYQNRNQ'
p11
S'Books   films  Netflix  walks  museums  galleries  teacake  baking'
p12
sS'OMTWSISMFSRM'
p13
S'Civil Engineering student'
p14
sS'QOZVLRWVOBQO'
p15
S"if you have a sense of humour tattoos love coffee and music you're already halfway there  singerproducer  From Hong Kong "
p16
sS'VQEQAFXCCAVT'
p17
S''
p18
sS'RYTGIVWYDGVI'
p19
S' Business Management Student Countryside lover from EdinburghEast Lothian'
p20
sS'DTOUAWFKTSNK'
p21
S'Spanish but in love with the rest of the world'
p22
sS'IPWIHVFNZKME'
p23
S'Am kidding '
p24
sS'SDNKVFTKYXAC'
p25
S''
p26
sS'HHJDDIUONKCK'
p27
S'Leeds  EdinburghBiological sciences studentMeat free I like travelling n being in the sea '
p28
sS'IMFGCTRUEZLR'
p29
S'here to laugh at peanut headsI uninstall this often so soz'
p30
sS'XNWOZUSLABFV'
p31
S'Snapchat xAshleySmithx                               Excitement  adventure '
p32
sS'JSCRHIWFRTSV'
p33
g26
sS'UPAIVROLQELA'
p34
g26
sS'OTUNEPZCLIVJ'
p35
S'ECA'
p36
sS'MGNYAYRZEWJQ'
p37
S"Don't really know what to say but I like going out and having a few drinks at the weekend but also happy to stay in and watch movies I also like to try and have fun and have a laugh whenever I can I probably spoil buster my staffie far to much but who wouldn't when he's trying to act all cute "
p38
sS'HUYUCJZLYXLN'
p39
S"Single because I didn't forward that chain email in Musician '"
p40
sS'SHNSFKCQVHTN'
p41
S'Philosophy and Theology  University of Edinburgh '
p42
sS'QXUSGSXDBHMH'
p43
S''
p44
sS'RCANKKPQOFCH'
p45
S'University of Edinburgh Primary EdIgabbieduncan'
p46
sS'GYSOWIWTOGAR'
p47
S'Heriot Watt uni'
p48
sS'MYVGVLMWQJBN'
p49
S' runner '
p50
sS'PTBZTNBHJCZG'
p51
g26
sS'NVRKLDKBXCBK'
p52
S'Music books traveling shitty s films '
p53
sS'BSNJQVDSOAVZ'
p54
S"Single because I didn't forward that chain email in Musician '"
p55
sS'WLDDUTRNZZLP'
p56
S'Very sporty play badminton mostly but also do tennis football and golfEnjoy the gym and general keeping fit stuff like walking my  dogsWork at the coopStart uni in September for to study sports science '
p57
sS'JLTZZHFFJAHF'
p58
S"I am DTF  Darn Tootin' Fun"
p59
sS'RTYCYCYKYOWX'
p60
g26
sS'OUCYSZKDBALF'
p61
S'If ye dinny laugh ye greetEdinburgh ScotlandLa gente esta muy loca'
p62
sS'AVTQSUILCETN'
p63
S''
p64
sS'NHHYQUVHIVUH'
p65
g26
sS'CYHYKMSSHZKD'
p66
S"Student vet nurse and work on the farm when I'm not at uni"
p67
sS'RQFNXGBBMQAT'
p68
S'German studying in the Netherlands on exchange in the UK'
p69
sS'UKFZSXJTMZZC'
p70
S'Edinburgh physio student Instagram laurarobertsonx Snapchat laurarobertsonx '
p71
sS'GECARUUSDZEM'
p72
S"I'm no  ha  play football Edinburgh X "
p73
sS'ZMDVSRBDALTU'
p74
S'DrawingEdinburghAspiring Tattoo ArtistTwitter FamousLAInstagram lynseyallan'
p75
sS'TPCLEJRZCFKV'
p76
S"I'm from fife In Love with family guy love playing piano  but it says  ft curvy pop up"
p77
sS'GELTEPWPLIBH'
p78
S''
p79
sS'FEAPZLKGNIWH'
p80
S'Instagram  maddiealiceRGU'
p81
sS'JOPSGYQSMLJQ'
p82
S'Edinburgh  Psychology StudentBartender Travelling '
p83
sS'NRVUSAIEKCTE'
p84
S"Je m'appelle Gayle I have cracked my head open a few times and I broke my collar bone the first day snowboarding on real snow I'm slightly clumsyI love dogs and stags but I don't think that it would practical to have a pet deerI love stationery not to be confused with stationary However I also quite like being stationary but not too much I like changing car wheels I don't like potholes "
p85
sS'AUOTXPUWPPAB'
p86
S"I'm a fucking punmeister Looking for a drinking partner  someone to take me to Rotato for a jacket potato "
p87
sS'TLSLUDDUWVWD'
p88
S"I'm a fucking punmeister Looking for a drinking partner  someone to take me to Rotato for a jacket potato "
p89
sS'GIZUNZOHBFSH'
p90
g26
sS'UDNDBVDDNVAB'
p91
S''
p92
sS'DIEWIEALAXTV'
p93
S'Love Toy Story and a good pair of socks '
p94
sS'PJGUWZFJUPZV'
p95
g26
sS'MHJSEXAOPVVF'
p96
g26
sS'ESCSTQQXDAJG'
p97
S"Don't really know how this works "
p98
sS'CTOFXILXLFKY'
p99
S"I'm counting on your standards being lower than mineStudying Marketing at uni in Edinburgh but still no idea what I want to do in life Instagram  caitlinmjordanTwitter  muppetkay "
p100
sS'XYRLUEFYTPGU'
p101
S''
p102
sS'NYELCPSARNPI'
p103
S''
p104
sS'JCVAGLWSMXGX'
p105
S"I'm a newly qualified nurse living in Edinburgh Here's the gist folks I don't take life too seriously I require a nice spoonful of Nutella pretty much on a daily basis you will always catch me with a gt on a night out I eat my vegetables and I squat"
p106
sS'ROUORHOEHWMW'
p107
S"My busyness is to create Doesn't even matter what  "
p108
sS'OCBMRNPHUROR'
p109
S"Currently living in the wrong place for someone who can't stand the coldBut when life hands you"
p110
sS'NBPWQRBORMEN'
p111
S'jo perrin X'
p112
sS'SGBKQKPGXCRF'
p113
S'Australian travelling in Europe and the UK  Current location Edinburgh '
p114
sS'ZRFGIOMWZXWF'
p115
S'Instagram  maddiealiceRGU'
p116
sS'GBYAKHRDVEIT'
p117
S"My mum thinks I'm cool"
p118
sS'BPIIKNEEPUPL'
p119
S'Hayley Marie Campbell Snapchathayleymarie '
p120
sS'ZLTQZEAGZSJF'
p121
S'Hit me up for fun and games xx'
p122
sS'IEWMLTIZRXBI'
p123
S" years through the best adventure anyone could ever haveGot a map on my arm so I don't get lostAlso got my dog tattood on meMy car is just one big stickerSemi famous snowboarder with a famous dogProfessional adventure to mountains skateparks lakes bars quirky shops and anywhere with dogsAustralian taking shelter in ScotlandWhen I was younger I looked like Tina from Bobs Burgers"
p124
sS'AOEVVUKAGLRL'
p125
S'Instagram  mdrummond '
p126
sS'RWRNWBLTBXNZ'
p127
S'American studying in Edinburgh '
p128
sS'HLEKVKOAUVZY'
p129
S"Edinburgh Can't ski Didn't go to uni Don't have snapchat  "
p130
sS'BYUWEBYBYZIC'
p131
g26
sS'TNEJEDSJPCWA'
p132
g26
sS'TZCYVGNDSUYX'
p133
S'Instagram  eloiseevans '
p134
sS'RBJOJZESRLZI'
p135
S'instagram amydunbar '
p136
sS'NETMAQOSUUWQ'
p137
g26
sS'MPXHTIMTUGMY'
p138
S'Snapchat  Instagram  lauraxxoxxBeauty Therapist Edinburgh'
p139
sS'VNTZSPJGJLXD'
p140
S"Don't really know how this works "
p141
sS'QXLZRNWFSXCW'
p142
S'Fine Art MA  ECA Brummie born and bred My neighbors think my accent is hilarious Instagram mollyhk'
p143
sS'KSJBEVIYRTDM'
p144
S'I love fiddle folk and French and alliteration '
p145
sS'RLYMVCEAXGTZ'
p146
g26
sS'QBNXPJTMPBNQ'
p147
S"I'm a fucking punmeister Looking for a drinking partner  someone to take me to Rotato for a jacket potato "
p148
sS'DFKYJAQZXPPN'
p149
S"I lift run horseback ride and play guitar amongst other talents I have  tattoos and am continuing to add to my collection Art is my passion music is my soul I'm a Yankee at heart born  raised in good ol' NY USA So one day I got bored with college quit and decided to hitchhike across America oh and then the world I'm a restless spirit Just got back from Japan and now here in Scotland for a while Add me on fb to live vicariously through me I go on a lot of adventures"
p150
sS'OGPBIBSRURHB'
p151
g26
sS'ZNDMLHIYUCCP'
p152
g26
sS'PKBKFTPWGOQQ'
p153
S''
p154
sS'YDALKNDJLOEQ'
p155
S"I'm a fucking punmeister Looking for a drinking partner  someone to take me to Rotato for a jacket potato "
p156
sS'PKXZAXMPQJXV'
p157
S'To your good elf  '
p158
sS'HHVECSKATYQK'
p159
S'Edinburgh Rugby enthusiast with a serious case of wanderlust Gap year X   Insta elliedonaldson '
p160
sS'FJPXHQTGMOVR'
p161
S'Fully qualified Advanced Beauty Therapist Dunfermline Fife Scotland Snapchat  lovelydawnxoxo Insta  missdawnlx'
p162
sS'ZVJJTIOMRLJU'
p163
g26
sS'HQLUKNMLUOFT'
p164
S' and '
p165
sS'LJUECHWWEPYY'
p166
S"Netflix and chill is stupidly overrated  s'all about ghost hunting climbing trees and drinking excess amounts of gin and cocktailsAlso since height seems to be a compulsory factor   I am ' of sheer wonder"
p167
sS'HGWSEMCPKNRX'
p168
g26
sS'HDZMSRLPGIGW'
p169
S'I enjoy a nicely packed bowl placed on top of a bong Plainfield IL USA Let me be your American sweetheart Edinburgh for the next  weeks Lots to see drink smoke and explore here '
p170
sS'WPZZNDJXLQTD'
p171
g26
sS'TXOGZDABPFKA'
p172
g26
sS'RLFPLSZIMBSD'
p173
S"I'm a fucking punmeister Looking for a drinking partner  someone to take me to Rotato for a jacket potato "
p174
sS'DAPAMBDBMFWH'
p175
S'Heriot Watt uni'
p176
sS'BLUGXVXEFDSA'
p177
S'EdinburghStudying Nutrition and Food Science at QMUPlay rugby for Lismore WRFC '
p178
sS'VLIPCGZAPKNV'
p179
S"Buy me cheesecake and I'll love you foreverCats are easily better than most people"
p180
sS'YWIOOCQBNCIM'
p181
S''
p182
sS'NXBPDGIUDTPW'
p183
g26
sS'TKCNKGVVFUAI'
p184
g26
sS'VMPRJHGJCUUG'
p185
g26
sS'IDQQXSPNLCXK'
p186
S'Names Emily year abroad in Scotland from straight out of America  drink and smoke too much but still functional  hit me up if you are chill and like to have a good time   '
p187
sS'RYVVNIYAHOIG'
p188
S'Starwars xbox my puppyyup'
p189
sS'SAEMPPSPCAOP'
p190
S'Forever wanting to be back in Bali '
p191
sS'SAZJTUKXEDIA'
p192
S''
p193
sS'WZTPPXMSKZBH'
p194
g26
sS'OYGXWMIVCYZK'
p195
S'Studying in Edinburgh from Mallorca'
p196
sS'SMILEWDIPYVO'
p197
S'Scottish nd year at EHU  Instagram abitait'
p198
sS'NYBKAFEIZUEC'
p199
S' '
p200
sS'LGGITNAOZYTY'
p201
S'From Edinburgh Instagram megaandrydenn '
p202
sS'SGBJLXIFFYJF'
p203
S'Instagram olivia '
p204
sS'TIUVNLFPBXTQ'
p205
S'          s     Just moved to Newcastle to start my internship  Love skiing filmsbeing outdoors and I never say noto a party x'
p206
sS'XJRMHRNOYSKE'
p207
S"Im ft  Sadly I am on tinder to actually find someone since its no happening when I'm out Im not looking for someone till after christmas just so i dont have to buy you a present Want to know more then you know what to do "
p208
sS'OBODTZPDVOKR'
p209
S'DrawingEdinburghAspiring Tattoo ArtistTwitter FamousLAInstagram lynseyallan'
p210
sS'DIYYSDNZHCLO'
p211
g26
sS'IRCGPZTLITOL'
p212
S'Studying law and French at the University of Edinburgh'
p213
sS'KUVIMEZLKKBS'
p214
S'Work at Edinburgh airport as a CSASnapchat  Kaylamouns'
p215
sS'HOFAASVXVFER'
p216
g26
sS'PWOBXUWPUFKM'
p217
S"I don't know why the photos are up more than once Instagram amberpNewly blondeIf you like girls with tattoos and a dirty sense of humour I'm your girlI'm also a mum he's  just in case you hate children he's my best friend and I love him even more than bacon Happy Swiping "
p218
sS'OQUMWJAHCFVP'
p219
S"I'm a fucking punmeister Looking for a drinking partner  someone to take me to Rotato for a jacket potato "
p220
sS'PTQTIXFIZBJI'
p221
S'I go to uni for the SnowsportsI bake a lot too '
p222
sS'MYAKTCTQMWMD'
p223
S"I'm a fucking punmeister Looking for a drinking partner  someone to take me to Rotato for a jacket potato "
p224
sS'WZQTOYKVNURC'
p225
S'Instagram chelseakildayxSnapchat chelseakilday '
p226
sS'HUMAWWQVQXKP'
p227
S"Weybridge  SurreyPortsmouth UniElegant trippy chaotic flavourAbout meExtremely fond of facials and hair and facial hair Great at giving head Massages I love gin Apologies my Instagram doesn't have endless amount of selfies but there is the odd one in there to prove I'm a solid "
p228
sS'IRWJNJVYTJBY'
p229
S'Philosophy and Theology  University of Edinburgh '
p230
sS'PZCMEMTLCVJW'
p231
g26
sS'LERXZFCAPAQY'
p232
S'Irish living in Edinburgh '
p233
sS'YGBWVUHGEBNL'
p234
S'nd year forensic student at GCU  FifeGlasgow Work at Knockhill racing circuit snapchatInstagram karapirie'
p235
sS'YANWNYHFTXPE'
p236
g26
sS'FXTIIWNCPBKL'
p237
S'Instagram  chloejessicaxoSnapchat  chloejessicaxx'
p238
sS'LLLOSLWZAFRU'
p239
g26
sS'QBFKQYIVFERN'
p240
S'Studying in Edinburgh from Mallorca'
p241
sS'XNWVASBTEPRB'
p242
S" polyamorous anarcho queer feminist I'm in a serious relationship but we see other people outside it I'm currently looking for casual fun and to meet new people and make friends No jembles please          "
p243
sS'UMASMXJFORMG'
p244
S'Forever wanting to be back in Bali '
p245
sS'WMRRCJUVXCTB'
p246
S''
p247
sS'FJYYXOHQFSYL'
p248
S'Canadian  just moved to EdinburghI just want someone who makes me laugh I make art snowboard and can do circus tricks'
p249
sS'YXFEOEZAEOEI'
p250
S''
p251
sS'NIVFYRTVAYYZ'
p252
S'Undefeated Lord of the Rings trivia championActresswhisky enthusiast'
p253
sS'HWIXGZWUUSTY'
p254
S''
p255
sS'GGRAKOUKDQTR'
p256
S"I'm a fucking punmeister Looking for a drinking partner  someone to take me to Rotato for a jacket potato "
p257
sS'MNKAFXJWWMKH'
p258
g26
sS'OHKRMCAXJGQQ'
p259
S'Snapchattaelorsmith  '
p260
sS'VXWWPWXIMABT'
p261
S''
p262
sS'DUNQMLSITAOE'
p263
S'If your looking for a fuck about then just swipe left  '
p264
sS'LLHOEFPHFLLK'
p265
S''
p266
sS'BRTUEZHAHDZS'
p267
g26
sS'ITEEOWDPPBYT'
p268
S' Edinburgh'
p269
sS'AKRMAXSUNZDS'
p270
g26
sS'NZPZGFKARVWZ'
p271
S'psychology student at edinburgh uni bios are shit so just come chat to me ae '
p272
sS'WUNIBCLQMBPB'
p273
S"I'm a fucking punmeister Looking for a drinking partner  someone to take me to Rotato for a jacket potato "
p274
sS'EWLUGCXNKTPF'
p275
S'From northern England Sunderland Student in Edinburgh'
p276
sS'OCGLQHUCJQQK'
p277
S''
p278
sS'GDNNFBUGOXAO'
p279
S'nd year Accounting student at Edinburgh UniFrom Fife'
p280
sS'PDNVWIIZPKTA'
p281
g26
sS'WFFVVKWQPYPQ'
p282
g26
sS'KXLWUGCDBRKX'
p283
g26
sS'NFXTOIRKCCGK'
p284
S"Bulgarian working in Manchester  'Life isn't about waiting for the storm to pass it is about learning how to dance in the rain'"
p285
sS'PNTLHGCPGHMJ'
p286
S'Never done anything like this before Friend has been raving about it Please be gentle with me '
p287
sS'OIMYTSHNTDSP'
p288
g26
sS'GVMQZUCRTJTG'
p289
g26
sS'DJEVEQKJBXIO'
p290
S' nd y UoE Will go on a date with a guy who knows how to work in CAD'
p291
sS'FMFFVWEPAGIL'
p292
S"I'm a fucking punmeister Looking for a drinking partner  someone to take me to Rotato for a jacket potato "
p293
sS'ZUTGRZWCKKIH'
p294
S'Edinburgh Allergic to cats and bullshit Please give me none '
p295
sS'DGKOPDYCLLKX'
p296
S"I'm a fucking punmeister Looking for a drinking partner  someone to take me to Rotato for a jacket potato "
p297
sS'QAIXMFWWIZSD'
p298
S''
p299
sS'OEXNYVUQJJAF'
p300
g26
sS'UYHLNFJKARHA'
p301
S'McGill Faculty of Law Living in Edinburgh Scotland until June I live to travel'
p302
sS'WWLXNZOTOFSD'
p303
S'what is haaaappeninFrom Northern Ireland  living in Edinburgh'
p304
sS'OPBRQIZEGUBU'
p305
S"I'm a fucking punmeister Looking for a drinking partner  someone to take me to Rotato for a jacket potato "
p306
sS'PGRSWEHCGYSM'
p307
S'Edinburgh Uni Medic Occasional blonde moments '
p308
sS'GRIUTBMXBJOJ'
p309
g26
sS'PDTJFUSUVIIP'
p310
S"Traveling Europe until the th Let's get a drink and see how awkward a date could be"
p311
sS'GXAYWNKEWFYZ'
p312
S'Work in an officeSnapchat  allannahh'
p313
sS'KIXAIPKJAATD'
p314
S''
p315
sS'VTFCXRKDVWIJ'
p316
S'Instagram lucygrace'
p317
sS'SFWZPVMBQUFO'
p318
S'ChesterEdinburghnd year vet medGenuinely want to meet my husband on here'
p319
sS'EQJRDPCZTGFC'
p320
S'Probably somewhere between ECA and my hometown of Oxford'
p321
sS'AWMHTYRBWIWC'
p322
S'Ambitious and outgoing law student from Denmark studying at the University of Edinburgh for one semester Love singing dancing movies food and tea'
p323
sS'EKKDGKTTEZZE'
p324
S"I'm a fucking punmeister Looking for a drinking partner  someone to take me to Rotato for a jacket potato "
p325
sS'FYBWGWSCDBIW'
p326
g26
sS'ADKSNNMUVPNF'
p327
S'Edinburgh Insta JACQX'
p328
sS'NPLDHSCMDWCO'
p329
S"EdinburghLondon Let's play carpenters first we get hammered then I nail you"
p330
sS'SYXLCGDUHKAZ'
p331
g26
sS'DOZWBYMZFEIB'
p332
g26
sS'DEMTMYXVROSW'
p333
S'st year University of Edinburgh  London gal'
p334
sS'KLFDFMJDVRWK'
p335
S"I am awful with this about me stuff so i am going to keep it short and sweet I'm an Edinburgh girl Work in retail Adore meeting new people Have the bestest group of girlys Have a couple of tattoo's Enjoy trying new things Will pretty much chat to anyone and everyone that will listen Snapchat sammywatsonxox Anything else you want to know send me a message                             "
p336
sS'XKIJVHLPYJHL'
p337
S'Snapchat  Instagram  lauraxxoxxBeauty Therapist Edinburgh'
p338
sS'XZYJBEPMOMYD'
p339
S''
p340
sS'ZZILULPKBMKE'
p341
g26
sS'ZIWDRAEDMXMR'
p342
S'born in germany with polish parents on an exchange year in edinburgh studying maths playing the violin enyoing arts jazz painting'
p343
sS'NPIXCDBSIGUK'
p344
S"I'm a fucking punmeister Looking for a drinking partner  someone to take me to Rotato for a jacket potato "
p345
sS'QQYCGVVFZBWG'
p346
S"I'm a fucking punmeister Looking for a drinking partner  someone to take me to Rotato for a jacket potato "
p347
sS'EOGBKKODCPTY'
p348
S'First year maths student Idk how to write an appealing bio so I guess u just gotta judge me by my face'
p349
sS'MWWFVBPREUHX'
p350
S''
p351
sS'VDKIFBWPKSEQ'
p352
S'French Just looking for a funny or interesting chat Maybe more according to the chat'
p353
sS'IMQAEMBSZNHN'
p354
S'Art and fashion student'
p355
sS'BUNOFZSERFXR'
p356
S'nd year law student at the university of edinburghvegetarianwine and gigs are my favouritei play guitarIG  tanyawalterss'
p357
sS'VFXMCAPXCSFF'
p358
S''
p359
sS'CGXVJACVOUFN'
p360
S'Snapchat  siobahn'
p361
sS'XESHSGPWUBSC'
p362
S"I'm a fucking punmeister Looking for a drinking partner  someone to take me to Rotato for a jacket potato "
p363
sS'WCQRMPFJUYHU'
p364
S'East SussexEdinburghMaths student'
p365
sS'ZSBPWHPFOKII'
p366
S''
p367
sS'PXLXQAQVEJBP'
p368
S'Belfast  Edinburgh'
p369
sS'TYPFLTJICMYZ'
p370
S'Live in Edinburgh work in London '
p371
sS'NJJSEZXYYICX'
p372
S''
p373
sS'ROBXGBQXIHDU'
p374
S'Mech Eng student at Edinburgh'
p375
sS'FCKPHWJTCGYZ'
p376
S'LondonEdinburgh Studying Arabic and Persian '
p377
sS'SITRWVGUGZLE'
p378
S' Business Management Student Countryside lover from EdinburghEast Lothian'
p379
sS'IMTKHRSXEHVM'
p380
g26
sS'LWDXPNOTEFVA'
p381
S"Love the life you live  from Edinburgh Love tattoos and piercings Anything you want to know just ask Snapchat meganmclayDon't be afraid to message me first "
p382
sS'WKDBATTLHCSB'
p383
S'nd year forensic student at GCU  FifeGlasgow Work at Knockhill racing circuit snapchatInstagram karapirie'
p384
sS'OCEIYSDULFZN'
p385
g26
sS'RNRWYAYSCAKH'
p386
S' Lifeguard'
p387
sS'CGFKUTYTNWAM'
p388
S"embarrassingly stereotypical art student unless you're a pisces theres not much point in trying tbh  "
p389
sS'XFBXJENXCOMN'
p390
S''
p391
sS'GVOKNSKEOTTE'
p392
S"I'm a fucking punmeister Looking for a drinking partner  someone to take me to Rotato for a jacket potato "
p393
sS'ZGBCZVZPGXMI'
p394
S''
p395
sS'JFKUJDPXSXIS'
p396
S"Love sarcasmPeoples facial expressions Edinburgh  ft There's a huge crack in my screen So playing tinder is a bit of Russian roulette atm "
p397
sS'TQQGTWKMMTBH'
p398
S'Love sports love travels'
p399
sS'JVZXCKUCLCZA'
p400
S''
p401
sS'TLBSXVJOIQVW'
p402
g26
sS'PNGDGHRZSLSV'
p403
S"I'm a fucking punmeister Looking for a drinking partner  someone to take me to Rotato for a jacket potato "
p404
sS'IXRSVSHBVRZJ'
p405
S' snapchat emmajulie  Mum of  from Musselburgh '
p406
sS'XGXLONTEDLYQ'
p407
g26
sS'MHXTNAAGHQTP'
p408
S''
p409
sS'GIBIEKNTPFQS'
p410
S"EdinburghStudying maths at Heriot WattKeeping up training for tough mudder next year although looking at me you'd never think it ft  tiny don't laugh "
p411
sS'OOENSTPBGOYU'
p412
S"part time gig photographer full time bar wench i've embarrassed myself in front of sir ian mckellan in tesco so there's that "
p413
sS'PNOVBBXJDWHD'
p414
S'Hi  ArchitectLove sports'
p415
sS'CAHIAAXDKKMJ'
p416
S'Borders girl currently in Edinburgh studying Health  Fitness Hoping to travel within the next year '
p417
sS'KKHYHJAIOTXR'
p418
S''
p419
sS'YHURCHAMTHAR'
p420
S'Book nerd and coffee snob  Fun friendly and full figuredor fat depends if you want to sugar coat it or not either way I am who I am Positively Honest'
p421
sS'FANDODTUOJWZ'
p422
S'Gym  Dance  Cook  Bake  Love  Travel  Be crazy  Be happyPeople should smile more Personal Trainer Student'
p423
sS'SMNBHJGHEIZQ'
p424
g26
sS'AWENCRBOMYWL'
p425
S"I'm a fucking punmeister Looking for a drinking partner  someone to take me to Rotato for a jacket potato "
p426
sS'SLLSBXXIIANO'
p427
S'ChesterEdinburghnd year vet medGenuinely want to meet my husband on here'
p428
sS'JHOXCXQABMFN'
p429
S'Snapchat  jimmyjamjew '
p430
sS'VKNZMHQMYOPH'
p431
S'Just meeting new people Nothing more nothing less '
p432
sS'ZUWGOKJQJGEY'
p433
S'Gettysburg College Basketball and track'
p434
sS'ZZGHXLYNUQND'
p435
S"I'm like a lightbulb I light up the room when you turn me on and if you stand on me you'll end up in hospital"
p436
sS'VUMXCTDGZOZM'
p437
g26
sS'RNVZOUQBIJEW'
p438
S''
p439
sS'FIFJSXXQSVSD'
p440
S''
p441
sS'LJZKMWHVVMKL'
p442
S'Irish living in Edinburgh '
p443
sS'RSIEVFARIPCQ'
p444
S' snapchat emmajulie  Mum of  from Musselburgh '
p445
sS'CYOJOMECWLDR'
p446
S'Staff nurse Voice of the Corran FerryI like caramel lattes and Paolo Nutini '
p447
sS'UGAVVYDZCADW'
p448
S"I'm a fucking punmeister Looking for a drinking partner  someone to take me to Rotato for a jacket potato "
p449
sS'YVYFPMUQNYCU'
p450
S'Journalism student Edinburgh'
p451
sS'JQDWXRHKEINB'
p452
g26
sS'YVMNISYVKNAX'
p453
S''
p454
sS'XMCRBCHWVUAX'
p455
S'If ye dinny laugh ye greetEdinburgh ScotlandLa gente esta muy loca'
p456
sS'NBKIVXFGBAKV'
p457
S"I'm a fucking punmeister Looking for a drinking partner  someone to take me to Rotato for a jacket potato "
p458
sS'QSPYUIOSYMPY'
p459
S' Medical sciences studentEdinbrah Looking for a soulmate obvz'
p460
sS'VVHSZPCWTUBA'
p461
S'Edinburgh and AberdeenStudying a useless degree and I love it Apparently I look like the crescent moon emojiWe should hang out '
p462
sS'RSHPFYPNCHND'
p463
S"EdinburghScottish ' redhead Not looking for a serious relationship Likes tall men uniforms beautiful women music dancing outdoors going out staying in watching Netflix being comfy getting dressed up laughing being spontaneous playing practical jokes tattoos  more I also have a very high sex drive bit of a wild child love house parties You only live once and I going to live it to the full so I'd love to find a few sexy people to join me and be my partners in crime "
p464
sS'QOTLKJLKNMWM'
p465
S"Don't take yourself too seriously "
p466
sS'JSPNULPIGRJO'
p467
S'Give me bestworst your chat up line '
p468
sS'SGMDKRDTEZRJ'
p469
S"I'm a fucking punmeister Looking for a drinking partner  someone to take me to Rotato for a jacket potato "
p470
sS'RCSCMMWFXSZP'
p471
g26
sS'XKHUDQLLEHEY'
p472
S''
p473
sS'LGAHUQXGWMDP'
p474
g26
sS'YEARRGYGFRUS'
p475
g26
sS'XYRIBSRTWSWA'
p476
g26
sS'KMBBNOYRTWTU'
p477
S'Edinburgh girl '
p478
sS'KVDAHELYUMOE'
p479
S"Easy goingI'm chubby love me or hate meNot here just for funBe honestDon't fuck me about"
p480
sS'EXHKHXQZWTFP'
p481
S'Live in Edinburgh and work for the farm assurance office Go to young farmers and have had ponies since I was a toddler'
p482
sS'TZXGKPGQNGQQ'
p483
S"Netflix and chill is stupidly overrated  s'all about ghost hunting climbing trees and drinking excess amounts of gin and cocktailsAlso since height seems to be a compulsory factor   I am ' of sheer wonder"
p484
sS'QYRDAZUPWUQC'
p485
g26
sS'BPEYJSSEFXCV'
p486
S" polyamorous anarcho queer feminist I'm in a serious relationship but we see other people outside it I'm currently looking for casual fun and to meet new people and make friends No jembles please          "
p487
sS'AXILXAFCCDQM'
p488
S'Snapchat  siobahn'
p489
sS'YCTWPFKMXWKZ'
p490
S'Gettysburg College Basketball and track'
p491
sS'QAFVXMPYZGUR'
p492
S'Edinburgh Midwifery student '
p493
sS'UTUXINXOFDYI'
p494
S" Claire  Don't Be Shy  "
p495
sS'EIOFKSFJWBBZ'
p496
S''
p497
sS'EHJCASEBPOFQ'
p498
S' Edinburgh uni psychology student '
p499
sS'ITPDQUEBIADJ'
p500
g26
sS'PNZKMZKIYQIS'
p501
S'Caitlyn Strathclyde university childhood practiceManager of an out of school care setting Anything else just ask '
p502
sS'FRPYMCFJNXTV'
p503
S"EdinburghNursery Practitioner I'm an easy going girl who enjoys meeting new people I enjoying spending time with friends and prefer to be busy when I'm not busy at work I'm either at the gym with mates or enjoying a good movie Looking for a date "
p504
sS'HLOFKCMWKASU'
p505
S''
p506
sS'WMBKRVRMWCIA'
p507
S'Charlotteee  snapchat Fife '
p508
sS'ZTJUURMWBEED'
p509
S'Probably somewhere between ECA and my hometown of Oxford'
p510
sS'TUPTMDFOEUPP'
p511
S''
p512
sS'ZHEBKJDSFBOU'
p513
S'Beauty therapist Snapchat  joannapullar Instagram  joannajoyy'
p514
sS'JSUCPIKJJKXA'
p515
S'From Edinburgh Dundee Uni'
p516
sS'IJXWRLSYSTXP'
p517
S' University of Edinburgh for the year getting my MSc '
p518
sS'LCYAGMAZILLV'
p519
S'English language student at Edinburgh Uni Like music and books and cooking and getting drunk'
p520
sS'FNTDTATWIHQY'
p521
S'Edinburgh uni '
p522
sS'FXXOJXYMGQEF'
p523
S"I'm a fucking punmeister Looking for a drinking partner  someone to take me to Rotato for a jacket potato "
p524
sS'MUAWONUUPCNX'
p525
S'EdinburghMy hobbies include Netflix  Chill minesweeping drinks in George Street nightclubs and taking romantic walks with you to the cash machine'
p526
sS'QBFHSHSTTAHJ'
p527
S'Edin Uni rd Year'
p528
sS'OEWXOMWCTOKT'
p529
S'A wee X file I like cartoons and science fiction '
p530
sS'YQHMYKJOTDIR'
p531
S'I like dogs more than people'
p532
sS'KHUTDFJLHAZL'
p533
S''
p534
sS'PXFLARPDAKNN'
p535
S"Weybridge  SurreyPortsmouth UniElegant trippy chaotic flavourAbout meExtremely fond of facials and hair and facial hair Great at giving head Massages I love gin Apologies my Instagram doesn't have endless amount of selfies but there is the odd one in there to prove I'm a solid "
p536
sS'UKBEOKFATBQU'
p537
S"I'm a fucking punmeister Looking for a drinking partner  someone to take me to Rotato for a jacket potato "
p538
sS'UFTIRWKUTMXY'
p539
S'Studying Business '
p540
sS'CYZUXZSPJDSS'
p541
S'Studying Business '
p542
sS'UVACWEXPBYZW'
p543
S"Just moved back to Edinburgh after being in Florida for  years Please don't swipe right unless you actually want a conversation I like honest dominant men who are protective Nice feet and hairy chests too "
p544
sS'ZWLPDXBRSSFU'
p545
S"Hi Norwegian studying physiotherapy in EdinburghMusic  footballI'm looking for someone with a PS or Xbox with COD so I can come over and shoot something "
p546
sS'NBMTSGVNJPBJ'
p547
g26
sS'HXADZCZAWBDW'
p548
g26
sS'QOBLBGLKSEUM'
p549
S''
p550
sS'RJNHTKHOTTFK'
p551
S"I'm no  ha  play football Edinburgh X "
p552
sS'XBOFVFYKAOPS'
p553
S''
p554
sS'LDDIJTKALVGF'
p555
g26
sS'PADTRYCMBBSV'
p556
S'USA University of Edinburgh Postgrad I like a side of vodka with my orange juice at breakfast Netflix connoisseur Talk nerdy to me   '
p557
sS'GITFYKMGPRGN'
p558
S'Studying business in edinburgh'
p559
sS'ZHSWWKXUKUSA'
p560
S'McGill Faculty of Law Living in Edinburgh Scotland until June I live to travel'
p561
sS'IXFWHAPGLHLW'
p562
S''
p563
sS'OWUHLTWZWTVX'
p564
S' not Snapchatt amylownieee '
p565
sS'HLSNOCWKYETA'
p566
g26
sS'TWDSKQURZVWF'
p567
S''
p568
sS'MGZJPIAUJNMT'
p569
g26
sS'CDUOXKKQDGGB'
p570
S''
p571
sS'AYLKQVYJNODL'
p572
S'Studying law and French at the University of Edinburgh'
p573
sS'MXIESSGHCTEJ'
p574
S'soft indie grunge'
p575
sS'FATHRLTFLANU'
p576
S'Last year of uni  Speak a few languages Love to dance Can salsa and bachataLove cookingWork in retail and training on the sideHoping to be an officer soon '
p577
sS'QBQNVVITQDHB'
p578
S''
p579
sS'DMISRKMLDKKC'
p580
g26
sS'TMMWBASEVPUH'
p581
S'Laughter is the best medicine Jayac is so amazingsexy D  I will not kill him if I find this'
p582
sS'CKBQWIJKQFKY'
p583
S"Acting student edinburgh if you don't like messy eaters then i'm not your gal "
p584
sS'VYBPHJZMJNKF'
p585
g26
sS'AYJYWMWDQZWI'
p586
S'Accounting student at Herriot Watt '
p587
sS'VBFQPOQLPNUZ'
p588
S'Studying chemical physics at Edinburgh uni Bilingual and love to travel for real though'
p589
sS'QKFSVNTBOVMK'
p590
S''
p591
sS'HUCTAHAHAOWX'
p592
S"I'm a fucking punmeister Looking for a drinking partner  someone to take me to Rotato for a jacket potato "
p593
sS'JFXOKAEVTDHW'
p594
S''
p595
sS'KBGLLUFNADPR'
p596
S'Chemistry student at University of EdinburghLove my dug more than anyone else '
p597
sS'XDRGVUEUTIHX'
p598
S'tattoos  piercingscatsTaylor Swift is God'
p599
sS'TIVAJFCUNMAV'
p600
g26
sS'IHUCNCYMVROS'
p601
g26
sS'OOMJDSKGNUJU'
p602
S"Half Turkish festival and events student  bartender in Edinburgh steak connoisseur and gaming addict  aim to organise E one day  Little lass in the pool is my cousin ain't she a sweetie  oh also guys that have 'netflix' in their bios can u not "
p603
sS'RJFRNZUKPXRH'
p604
g26
sS'HRYSSLNRXXWI'
p605
S''
p606
sS'KMFDSJYHVIUC'
p607
S'Snapchat  carriebainnn'
p608
sS'WCSEAFOCYNFI'
p609
S"Drummer English geek and the one on the left pulling the stupid face Decided Yorkshire wasn't quite cold enough so shall be heading up to Edinburgh Uni in September"
p610
sS'JXWCWUKVVHRW'
p611
S''
p612
sS'GAIAYDISGOWY'
p613
S'American studying in Edinburgh '
p614
sS'PUVFKWUZBDDI'
p615
S'nd year law student at the university of edinburghvegetarianwine and gigs are my favouritei play guitarIG  tanyawalterss'
p616
sS'PQRWESDHBAJX'
p617
g26
sS'IQRFOKMQHRHG'
p618
S'From Edinburgh  Snapchat ashleighx'
p619
sS'FFGOEEGKAMWK'
p620
S"Edinburgh Law GraduateJack Daniels enthusiast' on a good hair dayHobbies include trying to get less awful at guitar and watching disney movies in the bathInstagram ines"
p621
sS'WNNFQKKXQPBN'
p622
S'Never done anything like this before Friend has been raving about it Please be gentle with me '
p623
sS'JBMXQYLRMQET'
p624
S'StudentScottish Short'
p625
sS'HPWSBRHTZYZK'
p626
S''
p627
sS'AHBLPPFSKLPI'
p628
S'soft indie grunge'
p629
sS'GQTBEXKJUJZL'
p630
g26
sS'KVOAWHOIXMHC'
p631
S'I once watched Les Mis without crying'
p632
sS'TNVKUXDQSTHO'
p633
S"I'm a fucking punmeister Looking for a drinking partner  someone to take me to Rotato for a jacket potato "
p634
sS'RQTCPURSLNQA'
p635
S'From Glasgow studying in EdinburghArt student  th yearBit of a movie geekGot a motorbike Giraffes are kinda my thing '
p636
sS'MXPGARWFZKYG'
p637
S'Half Hong Kong half Scottish  ex firefighter and now studying accounting  just moved to Edinburgh '
p638
sS'TXGGRTIHXKJN'
p639
S'Snapchat samhadden '
p640
sS'LXBEOPXIHVLK'
p641
S'Lived in Finland and New Zealand nowadays in Edinburgh for uni  Excited about life '
p642
sS'RKSUBJYTAJCJ'
p643
g26
sS'CGAJJPLXPGLE'
p644
g26
sS'UKGQPNLKYLCS'
p645
g26
sS'RIPAMCBYZQWF'
p646
S''
p647
sS'KUYBRCLZANSL'
p648
S''
p649
sS'ROWSRANWAKOR'
p650
S"I like spending time with friends and family going out for dinner going to the cinema and cooking I've done ice skating since I was a little and like playingwatching most sports "
p651
sS'YGVZEXKWBEKS'
p652
g26
sS'OQWFBAIWRPZJ'
p653
g26
sS'FQITSTKDXDCZ'
p654
S'I jump out of bed in the morning and promptly turn my swag on '
p655
sS'HTDJETDAYQLR'
p656
S"I'm a fucking punmeister Looking for a drinking partner  someone to take me to Rotato for a jacket potato "
p657
sS'ZWIBBQMOUBCH'
p658
S'Taylor ParisCool Cool cool cool insta  taylorparis'
p659
sS'LOSOJSMXCBUP'
p660
S'Hi                              '
p661
sS'MGXUJHMFCLVS'
p662
S'Snapchat jadeboydxo'
p663
sS'VRDSFUBWSXEG'
p664
S'Radiography student Edinburgh '
p665
sS'WKLGJCTRLBAR'
p666
S"I'm a daydreamer and a nightthinker aka I go to bed at about am most nightsnd year theatre and film student  big tea lover and Christmas obsessedI'm not the kinda girl you will meet in a club I like hanging out in my flat or going out to a pub with my friends Slytherin and proud  I write scripts in my free time and I spend a lot of time with my friends who are all massive geeksnerds what ever you call them who I mum  but they keep me laughing which I love  "
p667
sS'ROAMFZNUNFQK'
p668
S"part time gig photographer full time bar wench i've embarrassed myself in front of sir ian mckellan in tesco so there's that "
p669
sS'UHIABXQDBDPN'
p670
S'Events Management  QMUSnapchat  alyssahall'
p671
sS'DDMHMNAKCQJZ'
p672
S'EdinburghTattoosSnapchat hollihunterx'
p673
sS'YWOLZGOEJIRS'
p674
S"I'm a fucking punmeister Looking for a drinking partner  someone to take me to Rotato for a jacket potato "
p675
sS'GMSQBQOPGQBY'
p676
S"I AM NOT A PSYCHO'I'm  and Looking for someone who wants to drink some beers and will let me use their bath"
p677
sS'PYOUDWIYRPDS'
p678
S''
p679
sS'FRMABJCDLQLL'
p680
S''
p681
sS'EGABCUNXGZFW'
p682
S'Snap me  Sarahwilson '
p683
sS'FOHFRAXHXCZF'
p684
S"Hi I'm Vicky  from Livingston Single but here to meet new friends  I am quite shy but when I get to know you more I come out of my shellIf you want to talk I'll try my best I love animals and I love anime manga  anything to do with Japanese culture I also like games Pokemon too   a good laugh My dream is to travel a lot see the sights  I am also quite a thrill seeker  always up to try something new Also love horror movies  theme parks very family orientated"
p685
sS'JMWIIYNUDUXP'
p686
g26
sS'ODQMWOCBMRXV'
p687
S''
p688
sS'MZEXELUYQNZU'
p689
S'Bsc Hon in physics Back in Edinburgh after a year teaching in ShanghaiI missed Percy Pigs a lot Peanut butter NCIS and Jumpers'
p690
sS'FFVIRTZFVQIS'
p691
S'Student nurse in Edinburgh '
p692
sS'HBSDJDVXDYMT'
p693
S'Instagram  ejfieldxDo you ever drive on the motorway and see someone fit and wish you could give them your number somehow'
p694
sS'IKFJGZLFSJGV'
p695
S'Edinburgh UniBeen stuck on the last level of snail mail for  years HelpSometimes I put paper in the general waste '
p696
sS'DRRNQYIJXBCE'
p697
S'UoESailing singing drinking socialising etc '
p698
sS'JTCBLIACUHRG'
p699
g26
sS'HXYONSNQBNQI'
p700
S'Looking for friends and more than friends Feeling lonely far from homeIf you love long walks in the park or in the beach The women for you is not only for sex When swipe right and meet up  xx'
p701
sS'EZEWCLMZTWTB'
p702
S'Oot every weekendCan lick ma own nips xMa snap chat is  bethanshankie'
p703
sS'HEVLTPZZMRPN'
p704
S"I'm a fucking punmeister Looking for a drinking partner  someone to take me to Rotato for a jacket potato "
p705
sS'JIROQLGAWADC'
p706
S"I identify with Spinelli from Recess on a spiritual level and I'm shamelessly emotionally attached to my bike Also my name is Zo but Tinder apparently can't handle diacritics What a shame "
p707
sS'BPJKLYPTQULC'
p708
S'History of Art Edinburgh '
p709
sS'NZAMVLSSYCWC'
p710
S'media student at qmu  full time alcohol enthusiast '
p711
sS'MTKSXCRKZHPH'
p712
S'Instagram chloconnollySnap chat chloecon'
p713
sS'RYCVFHIUPACO'
p714
g26
sS'JEICRXHVRFKH'
p715
g26
sS'SXNRVPNFMYND'
p716
S'instagram amydunbar '
p717
sS'CZVAPKYSPZUV'
p718
g26
sS'FBAHGALMXDVO'
p719
g26
sS'POVPPCVVEXTA'
p720
g26
sS'EFCBIUEGLSHJ'
p721
S'Liverpool  EdinburghStudent NurseTea addictParty girl'
p722
sS'KXYWYFBTDDYH'
p723
g26
sS'TRTZAJQTFTKZ'
p724
S'Instagram olivia '
p725
sS'LYVXYUEUWCAM'
p726
S"I'm hilarious tall and I like good music That's about it Chat to me and we can be pals "
p727
sS'HGKTMFVFWXZD'
p728
S"I'm a fucking punmeister Looking for a drinking partner  someone to take me to Rotato for a jacket potato "
p729
sS'KSLZDVDEOQTR'
p730
S"I never send x's nothing personalTry impress meHigh expectationsEither boogie hard or go home "
p731
sS'CDXFSNWEOPWW'
p732
S"Started fresh on tinder here Maybe this time round it won't be so disappointing rd year psychology student Born  raised in Glasgow Anything else yOu want to know then just ask meGive me your chat "
p733
sS'JDIYUTBHCYOZ'
p734
S''
p735
sS'MKFZAMEQNILC'
p736
S'Instagram  chloejessicaxoSnapchat  chloejessicaxx'
p737
sS'TFRDEAXKBVZV'
p738
S'QMUEvent and business management '
p739
sS'UGULILQRNWNP'
p740
S'Snapchat xmorganxInstagram xmorganxDunfermlineEdinburgh Scotland Nursing student at Edinburgh Napier university '
p741
sS'VYASZEOKEHGL'
p742
S"I'm a fucking punmeister Looking for a drinking partner  someone to take me to Rotato for a jacket potato "
p743
sS'RRJOTMKHEYDH'
p744
S'Aspiring actormusician Lover of all things chicken Queen of mediocre puns '
p745
sS'SUVHNHUFDYAO'
p746
S'snap chat ashwaaay'
p747
sS'XQWBECWVSTZU'
p748
S"I'm new in Edinburgh and just want to meet new people "
p749
sS'BGAKQPZGYXAA'
p750
g26
sS'NQOWUWJLARTA'
p751
S"I'm a fucking punmeister Looking for a drinking partner  someone to take me to Rotato for a jacket potato "
p752
sS'WUTEGVHUNOMK'
p753
S"I'm a fucking punmeister Looking for a drinking partner  someone to take me to Rotato for a jacket potato "
p754
sS'XAQPLFCBFMRS'
p755
S"Je m'appelle Gayle I have cracked my head open a few times and I broke my collar bone the first day snowboarding on real snow I'm slightly clumsyI love dogs and stags but I don't think that it would practical to have a pet deerI love stationery not to be confused with stationary However I also quite like being stationary but not too much I like changing car wheels I don't like potholes "
p756
sS'LDQRXYFVBHWJ'
p757
g26
sS'DOGOPROYHODB'
p758
S'An English girl living in Scotland and studying PhilosophyPolitics at Edinburgh nd yearYorkshire born'
p759
sS'QSNAMNCDFKYN'
p760
S'Edinburgh Snapchat  nevadaxFacebook  Nevada Fitzner '
p761
sS'JVAHYXVXHCOZ'
p762
S'Looking for my Chuck Bass '
p763
sS'MXKBETUCQBEX'
p764
S'Oot every weekendCan lick ma own nips xMa snap chat is  bethanshankie'
p765
sS'LCJNKKGBRZQQ'
p766
S"It's unfair that breakfast in bed is romantic but dinner in bed is a cry for help"
p767
sS'WCQJLPVHBSPR'
p768
S"I'm a fucking punmeister Looking for a drinking partner  someone to take me to Rotato for a jacket potato "
p769
sS'LDMHVBGBGDVC'
p770
g26
sS'GUZMDBWAMEXA'
p771
S"I'm a fucking punmeister Looking for a drinking partner  someone to take me to Rotato for a jacket potato "
p772
sS'DYGIBQJBLAFU'
p773
S"snapchat amyproud Instagram amyyproud I'm actually  just Facebook doesn't let me change itMost likely won't talk first "
p774
sS'EZMLOWXSJGWP'
p775
S'London  Edinburgh'
p776
sS'LOJUMYIQBBSN'
p777
g26
sS'XXTHASADDLTT'
p778
S'Snapchat  caznelly'
p779
sS'ISJSAPOXWJGB'
p780
S"I'm a fucking punmeister Looking for a drinking partner  someone to take me to Rotato for a jacket potato "
p781
sS'MGPPMOKVSFRW'
p782
S'If you dinny like documentaries your no for me Soz'
p783
sS'FREYEEADWRPR'
p784
S"I'm a fucking punmeister Looking for a drinking partner  someone to take me to Rotato for a jacket potato "
p785
sS'XTNWRUDFATNJ'
p786
S'Dundee gal studying Costume Design in Edinburgh Addicted to custard creams and I make a cracking cup of tea'
p787
sS'FKWFKLWCCRQD'
p788
S'Edinburgh UniBeen stuck on the last level of snail mail for  years HelpSometimes I put paper in the general waste '
p789
sS'XNZXGHGHXQWI'
p790
S'E D I N B U R G HSnapchat jessmcgovernx'
p791
sS'GRUNILJZWAUV'
p792
S"I'm a fucking punmeister Looking for a drinking partner  someone to take me to Rotato for a jacket potato "
p793
sS'PEUSFJCMHXDA'
p794
g26
sS'IPJSXHLSUBPD'
p795
g26
sS'ZFBLHLIUHTDE'
p796
S'Live in Edinburgh studying drama                                     Snapchat  leahmac'
p797
sS'YNOYABSRTUUF'
p798
g26
sS'OCYYLDQYGDUR'
p799
S''
p800
sS'VYINLTXRPZCQ'
p801
S'snapchat  prettylittleem Instagram  emmajohnston dancer masseuse '
p802
sS'ANTPCCQVMHHA'
p803
S''
p804
sS'NIORQCDADMRK'
p805
S''
p806
sS'UQNKBXZZXCQR'
p807
S'Edinburgh uni '
p808
sS'PYJTJDACEUWE'
p809
S'Physics Edinburgh '
p810
sS'WYWRPJXNUXEU'
p811
S'  Irish   Radiography student at QMU '
p812
sS'FRNHFTXEGZKP'
p813
S"Politics theatre UN coffee addict postgraduate law and history student traveller huge fan of old tv series as well as action and science fiction moviesHell isn't merely paved with good intentions it is walled and roofed with them  Aldous Huxley"
p814
sS'FMVRPTOSUEPI'
p815
S'snapchat kirstenwindever'
p816
sS'IJJBTNDWSFBW'
p817
S'Living in Edinburgh and living life to the full'
p818
sS'JVHPRHIIESXF'
p819
g26
sS'VGWAGINIVQYC'
p820
S"I'm a fucking punmeister Looking for a drinking partner  someone to take me to Rotato for a jacket potato "
p821
sS'UZZEUMWDQBAJ'
p822
S"Environmental student that's a bit of a film nerd "
p823
sS'JQTMJNQAYYMN'
p824
S'Student Edinburgh '
p825
sS'TXCQPCFBHPYA'
p826
S'StudentScottish Short'
p827
sS'BOYBMDHGQRXX'
p828
S'Snapchat sharastevens '
p829
sS'KOZTAWZGQODP'
p830
S"I'm a fucking punmeister Looking for a drinking partner  someone to take me to Rotato for a jacket potato "
p831
sS'TQPDUKCQWDER'
p832
S'Snapchat slmull Beauty therapist at the retreat health and beauty'
p833
sS'FBSFWAAKKJEF'
p834
g26
sS'PQJKFMOOSNLH'
p835
S''
p836
sS'OOBHPUSCKQUV'
p837
g26
sS'CREHRAOJGYCG'
p838
S''
p839
sS'DCZOQFQCJCLU'
p840
S"I am awful with this about me stuff so i am going to keep it short and sweet I'm an Edinburgh girl Work in retail Adore meeting new people Have the bestest group of girlys Have a couple of tattoo's Enjoy trying new things Will pretty much chat to anyone and everyone that will listen Snapchat sammywatsonxox Anything else you want to know send me a message                             "
p841
sS'JUCEMWNISCDN'
p842
S' NCL Edinburgh Biology student bartender keen traveller dog lover '
p843
sS'KOMVVVSJOFVZ'
p844
S'Instagram lucygrace'
p845
sS'EXACGQLZMGVD'
p846
S'Are you a banana Because I find you appealing '
p847
sS'MGXTCIRNEBUX'
p848
S'Edinburgh'
p849
sS'BKJTSFIUXZLK'
p850
S' Kirkcaldy '
p851
sS'UMRGTWUNSHRF'
p852
S'Lived in Finland and New Zealand nowadays in Edinburgh for uni  Excited about life '
p853
sS'QNYDBZGXCSFC'
p854
S' nd year actuarial student at HW  '
p855
sS'MVOHLPFSROXF'
p856
S"LondonEdinburghSocial anthropology student Be nice Be fun Be friendly Don't be boring "
p857
sS'WZPMSTIIRTZA'
p858
g26
sS'NSDSNQRZOTFX'
p859
g26
sS'EYRWXZAVBWSP'
p860
S'Aussie traveller '
p861
sS'ODAVQYRDNVDG'
p862
S'Edinburgh '
p863
sS'LBJHOYSYZMFX'
p864
g26
sS'YIAIXAOJLRYU'
p865
S' Fife If we match send me a message Instagram kirstenhamilton'
p866
sS'ZHALBDQXJFTP'
p867
S''
p868
sS'OGNNKKMQTENL'
p869
S''
p870
sS'HFXZJSSYVRUP'
p871
S"UoE Swedish bakar utmrkt kladdkaka sick dance moves with and without tequila in my systemJe parle franais je jure and  other languagesIf we match don't be shy"
p872
sS'EYALFIEZFENE'
p873
S'EdinburghStranraer'
p874
sS'OBDEVVLQPFGL'
p875
S"Student skiier paddler Taylor Swift enthusiast ' of not taking life very seriously I like mountains and being outside "
p876
sS'MMEPJNRCHWSD'
p877
g26
sS'FVJCQCAGQXVU'
p878
g26
sS'UQSXJZAYMNHU'
p879
g26
sS'IJWRJPHCBXQQ'
p880
S"I'm a fucking punmeister Looking for a drinking partner  someone to take me to Rotato for a jacket potato "
p881
sS'DFMHCISWRKQK'
p882
S'East SussexEdinburghMaths student'
p883
sS'CCUMGUJLJHQM'
p884
S"I'm a fucking punmeister Looking for a drinking partner  someone to take me to Rotato for a jacket potato "
p885
sS'RKTAITHBINKD'
p886
S'Are you a banana Because I find you appealing '
p887
sS'POOUTNXWFKAZ'
p888
S"So I'm a bit of a traveler and excited to explore more of the world really into having a drink and getting my boogie on at the weekend Love animals  minus the spiders I honestly just want someone to cuddle up with and watch tv with "
p889
sS'QWPFCFCOWKED'
p890
S''
p891
sS'OZWMPHVSRWCL'
p892
S"They call me gillette coz am the best a man can get Also I'll cut you I have tina turners name and date of birth tattood on me just coz I can dinny like her swipe left n dae us all a favour Kirlcaldy  instagram heatherritchieo"
p893
sS'ZAUSIRZYPPIC'
p894
S'I like a good pair of balls'
p895
sS'DZDDJQSCTPEB'
p896
g26
sS'GNWMSSOABXXQ'
p897
S"Let's be real I just need new funny screenshots for my group chat"
p898
sS'HVRXSVLRYYUR'
p899
S''
p900
sS'WWOLXRHDLQJA'
p901
S''
p902
sS'XCMYBMNNIMFY'
p903
S"I'm actually quite a nice person Love fitness and Jaffa cakes Message first please "
p904
sS'ESRLKMDBSBHX'
p905
g26
sS'JMEWWKYUBVDK'
p906
g26
sS'KBPKXVJBQGFS'
p907
S''
p908
sS'KMMCWYQPCQDC'
p909
S"HND Acting and performing studentI like guys in bands and I've got a thing for drummers"
p910
sS'KTJTHGTPWUQK'
p911
g26
sS'VJCVJZSMWRAX'
p912
S'Northern Ireland Edinburgh Napier Skiing Hockey Travelling  '
p913
sS'VTQRJMLZAXRE'
p914
S'BelfastDundee  Law with German  RowerLifeguard '
p915
sS'UDGHXRVQDJQW'
p916
S''
p917
sS'MBZBSIFKGNAF'
p918
S'Hi there '
p919
sS'SJTLETRVXXVH'
p920
g26
sS'XNYOKYPJAVWW'
p921
S'EdinburghYorkArt Student '
p922
sS'WUMUKHNFBCUJ'
p923
g26
sS'TJPTRAIGLGQH'
p924
g26
sS'HIYHZXYKIHYC'
p925
S'EdinburghGlasgow Strathclyde Uni '
p926
sS'AEVZJUXVITBW'
p927
S'Whut'
p928
sS'TZMYFKAGURBY'
p929
S"Just a nice always smiling girl living in Edinburgh originally from Poland Looking for a chat a friend a remedy to boredomI like going out having fun singing enjoying life in general ' "
p930
sS'FBVOCLDWKZUV'
p931
g26
sS'WGZLFXRZNGOH'
p932
S"Edinburgh Eng Lit student and waitress I read lots of books and try not to throw wine all over people with mixed success ' "
p933
sS'BSXSEAHQRWTE'
p934
S'Fashion student Snapchat  chloemillar'
p935
sS'VCSVKJYQJZJI'
p936
S'QMUEvent and business management '
p937
sS'DQNOIRRSBNOX'
p938
g26
sS'AQYZVFFMBKEL'
p939
g26
sS'NLFUEWJTASCD'
p940
S"I'm a fucking punmeister Looking for a drinking partner  someone to take me to Rotato for a jacket potato "
p941
sS'URVJWWUPHOVW'
p942
S'EdinburghGlasgow Strathclyde Uni '
p943
sS'FFAJGZLJIMRH'
p944
S" years through the best adventure anyone could ever haveGot a map on my arm so I don't get lostAlso got my dog tattood on meMy car is just one big stickerSemi famous snowboarder with a famous dogProfessional adventure to mountains skateparks lakes bars quirky shops and anywhere with dogsAustralian taking shelter in ScotlandWhen I was younger I looked like Tina from Bobs Burgers"
p945
sS'RGAJGVCNYTDD'
p946
g26
sS'NNDGRIWSTJFV'
p947
S"I'm a fucking punmeister Looking for a drinking partner  someone to take me to Rotato for a jacket potato "
p948
sS'TOZWWPPJMHAF'
p949
g26
sS'XCKBMTFQDSPW'
p950
S"I'm a fucking punmeister Looking for a drinking partner  someone to take me to Rotato for a jacket potato "
p951
sS'UTAYEXLADSMN'
p952
S'Ayla  student scoutAnything else just ask'
p953
sS'ASQNXNCFSISM'
p954
S"I'm a fucking punmeister Looking for a drinking partner  someone to take me to Rotato for a jacket potato "
p955
sS'NSGLVWQWSSQB'
p956
g26
sS'EZOEJQECNOJW'
p957
S'Edinburgh '
p958
sS'BRDDXTGQCJWQ'
p959
S''
p960
sS'NVLAXMLEIYBM'
p961
S"Snapchat hannahwootten Insta HannwoottenEdinburgh Hairdresser Tattoos Have a little boy he's my world If we match message me "
p962
sS'CLDFZCNJZBBD'
p963
S''
p964
sS'ESFDGDGUALJN'
p965
S"I'm a fucking punmeister Looking for a drinking partner  someone to take me to Rotato for a jacket potato "
p966
sS'YFEVRRKHYONL'
p967
g26
sS'VOIUWUEIOYZJ'
p968
g26
sS'MEFWJASTRKQL'
p969
S"I'm a fucking punmeister Looking for a drinking partner  someone to take me to Rotato for a jacket potato "
p970
sS'THFEQXBALZBQ'
p971
S"Started fresh on tinder here Maybe this time round it won't be so disappointing rd year psychology student Born  raised in Glasgow Anything else yOu want to know then just ask meGive me your chat "
p972
sS'ZMVXGTUKWMWV'
p973
g26
sS'DRIHVWEDOQJW'
p974
S'Live in Edinburgh Snapchat shannonrileyInstagram shannonriley'
p975
sS'XVACMBYTWEBU'
p976
S'Belfast  Edinburgh'
p977
sS'SUQICBRYYDZA'
p978
S'EdinburghSnapchat indialaingx'
p979
sS'TBVAKFBHZQNH'
p980
S''
p981
sS'JOYLJILAJKHD'
p982
S'Snap chat emssl '
p983
sS'UHICXSATYEUS'
p984
S'nd year Accounting student at Edinburgh UniFrom Fife'
p985
sS'XNAMBUZBNYKB'
p986
S'Half Hong Kong half Scottish  ex firefighter and now studying accounting  just moved to Edinburgh '
p987
sS'GOGLKRPCMSJM'
p988
S''
p989
sS'CXCFPUNDWFEP'
p990
g26
sS'WSITTYHEGVWC'
p991
S' Edinburgh '
p992
sS'AIILVYYIXTDN'
p993
S"I'm a fucking punmeister Looking for a drinking partner  someone to take me to Rotato for a jacket potato "
p994
sS'AQLUYWXDKWOD'
p995
S''
p996
sS'NJSKBMRUZURT'
p997
S"I'm a fucking punmeister Looking for a drinking partner  someone to take me to Rotato for a jacket potato "
p998
sS'SHSHVYPQQPVT'
p999
S'Instagram chelseakildayxSnapchat chelseakilday '
p1000
sS'FMKJAVJHAELO'
p1001
S'Journalism student Edinburgh'
p1002
sS'FUGPFUXJIRDZ'
p1003
g26
sS'UMEOFTPEFQDR'
p1004
S''
p1005
sS'AUUNPDUPMCTI'
p1006
S"I'm a fucking punmeister Looking for a drinking partner  someone to take me to Rotato for a jacket potato "
p1007
sS'ECYEUGZZCYFG'
p1008
S"I'm a fucking punmeister Looking for a drinking partner  someone to take me to Rotato for a jacket potato "
p1009
sS'OJMFRGEWNMPJ'
p1010
S'Edinburgh Uni Medic Occasional blonde moments '
p1011
sS'CIBGJYODUSUL'
p1012
S'Australian fugitive on the run in Edinburgh graceless'
p1013
sS'JDKBCLAJPCOH'
p1014
S'jo perrin X'
p1015
sS'NNOMQODHHFTX'
p1016
S'Hi new to this '
p1017
sS'LQXNWXWOMQKX'
p1018
S'Ig sofiaellenadolfina snap sofiadolfina floorball'
p1019
sS'YXQELMXDMPOE'
p1020
S'Not enough characters here to tell you about myself '
p1021
sS'QPFZEDJEYXAZ'
p1022
S'Edinburgh uni Napier students need not apply '
p1023
sS'MQXIGEBWHTLP'
p1024
S'Social Sciences student Bi making my way through life enjoying it when I can '
p1025
sS'UJVYRYMYAVHA'
p1026
g26
sS'JTZVPOYBJSTH'
p1027
S"I'm a fucking punmeister Looking for a drinking partner  someone to take me to Rotato for a jacket potato "
p1028
sS'RMBAGULVTFVT'
p1029
S'Social Sciences student Bi making my way through life enjoying it when I can '
p1030
sS'ZYSWASTLJPRB'
p1031
S''
p1032
sS'SDSVZZWSBOTK'
p1033
S''
p1034
sS'JJDXHTFTVPMJ'
p1035
g26
sS'UTBFOVLZRQTY'
p1036
g26
sS'MYDMIQHEQMWF'
p1037
S'Whut'
p1038
sS'PTDQSDKIXNVA'
p1039
S'Rebecca  Living in Edinburgh Early Education and Childcare student '
p1040
sS'TOBBESOWGTON'
p1041
S' Edinburgh'
p1042
sS'IZIHCEBVGIHP'
p1043
S"'Death is just life's next adventure'Food naps alcohol and rugby keep me happy snapchat  lauradickson"
p1044
sS'XYEDGXKDIXLU'
p1045
g26
sS'GINCLQSSQZSZ'
p1046
S'Stirling Uni  Mental Health NursingLivingston is home'
p1047
sS'MFSBJCOGVYHV'
p1048
S'Stirling Uni  Mental Health NursingLivingston is home'
p1049
sS'DQADNFJURCHL'
p1050
g26
sS'LDINYIMRDPPU'
p1051
g26
sS'KWKOLFHKHLHC'
p1052
S'Aspiring actormusician Lover of all things chicken Queen of mediocre puns '
p1053
sS'HFVHCJBYOBAT'
p1054
S'If you have a dog then you get an instant swipe right '
p1055
sS'PBEIVFJBXRQK'
p1056
S'Olivia  New York born Looking to get to know Edinburgh through good company and good food '
p1057
sS'KLDMPDPYSILA'
p1058
S''
p1059
sS'DVHXFILVGLOJ'
p1060
S"Student skiier paddler Taylor Swift enthusiast ' of not taking life very seriously I like mountains and being outside "
p1061
sS'ISMLITAGLRQZ'
p1062
S'Caitlyn Strathclyde university childhood practiceManager of an out of school care setting Anything else just ask '
p1063
sS'ICOHIQTHJYFS'
p1064
S'I love footballgym i work as a hairdresser and accountant '
p1065
sS'BYTEZEWNWCQG'
p1066
S''
p1067
sS'UTLDGQZOKPIK'
p1068
S'studying art at college xox'
p1069
sS'ERSNFTOWDNDM'
p1070
S"I'm a fucking punmeister Looking for a drinking partner  someone to take me to Rotato for a jacket potato "
p1071
sS'NDGQPFICHQWL'
p1072
S'Want to know anything just ask Sure no one reads this anyways'
p1073
sS'HMSAOPKJLXYN'
p1074
S"I am an easy going laid back person I love spending time with my friends and family enjoying watching a good game of football I like the idea of being adventurous just haven't got around to it I will bungee jump one day i am sure "
p1075
sS'UDSYVNBTIWFS'
p1076
S'LondonEdinburgh Part time barmaid full time female UoE ArabicFrench'
p1077
sS'VLTGVVBCHBSV'
p1078
S'UoE Economics '
p1079
sS'YPAJNVXNRQUH'
p1080
S'Basel BrusselsI vibe Insta eleanorroseshortland'
p1081
sS'TGFVVLKYPCSK'
p1082
g26
sS'ZEXYHFLFXNSE'
p1083
S''
p1084
sS'GQYJQYPDNPVQ'
p1085
S'HK in Edinburgh '
p1086
sS'XHDAGKLTKIOA'
p1087
g26
sS'KRETGWJIJVYO'
p1088
S''
p1089
sS'BIIJFVLNHWUB'
p1090
S"I'm a fucking punmeister Looking for a drinking partner  someone to take me to Rotato for a jacket potato "
p1091
sS'EOCIJCFUFVQD'
p1092
S''
p1093
sS'FTZYKNLQNQOE'
p1094
S'Just happy Instagram louhunter'
p1095
sS'JTWIGJAEPKJV'
p1096
g26
sS'BTFQRUGRIMFX'
p1097
S'Student at Edinburgh University ScottishGamer on PS'
p1098
sS'XBDMZIGKQERR'
p1099
S"If you don't like sarcasm don't bother "
p1100
sS'SHZNCPHXIMZV'
p1101
S'Studying architecture at Edinburgh university Love to travel Big fan of silliness Terribly English Should never be allowed to drink at lunch'
p1102
sS'JWRLUJMXAZGE'
p1103
S'A firm believer that hangovers should not be dealt with aloneGeordie girl '
p1104
sS'UNRVIVNNDKFA'
p1105
g26
sS'SPZCAQENZWLW'
p1106
g26
sS'EIGVMJCXPYUN'
p1107
S'hi im from perth  I love all sports especially horse riding and skiing'
p1108
sS'KZHASVUAOBAX'
p1109
S'Toni  EdinburghGlasgow Music Student Community Arts Assistant '
p1110
sS'YWMPRLOXEHKF'
p1111
S''
p1112
sS'ABUNYDICXPVZ'
p1113
S''
p1114
sS'RJEWZTWVWABA'
p1115
S'Snapchat TilleyChanel                        i love sitting on guys knees '
p1116
sS'WXJQUMGZOIBM'
p1117
S''
p1118
sS'JGOPZBZQFCLZ'
p1119
S''
p1120
sS'VOZBLYUXANHT'
p1121
S'Medic at Edinburgh '
p1122
sS'ACDEIFSTJBRH'
p1123
S'Medic at Edinburgh '
p1124
sS'AGNKPLWUFLVE'
p1125
g26
sS'CFPMKCZQHFKN'
p1126
S''
p1127
sS'WSTGRGFAWKOS'
p1128
S''
p1129
sS'FAABMJRJLQEU'
p1130
S'Studying Primary Teaching at Edinburgh uni '
p1131
sS'JXOKPFOJSZRO'
p1132
S'Metal Vikings gigs festivals and cats are my things  studying business with French  German in Edinburgh'
p1133
sS'IPDQKCMTBKGZ'
p1134
S" Irish  and Living in Edinburgh accept the the things you can't changebe brave to change the things you canand be wise to know the difference"
p1135
sS'FHWTHZDOZOFB'
p1136
g26
sS'FZMFAHGKMBEZ'
p1137
S' nd year actuarial student at HW  '
p1138
sS'RRDYPRNFXVNB'
p1139
S''
p1140
sS'GSTIGRTLZAYD'
p1141
S'Business student at Edinburgh UniversityFrom Manchester'
p1142
sS'HZLWQMGKVDHM'
p1143
g26
sS'YBFVBWAJUSCM'
p1144
S'Make up artistry student VodkaMarvelNetflixSnapchat eemmaa'
p1145
sS'GQNEVSEPZEKJ'
p1146
S''
p1147
sS'MRLWSXOBGBQR'
p1148
S'Business Student at the University of Edinburgh'
p1149
sS'SRPXRPDFBTQB'
p1150
S'Toni  EdinburghGlasgow Music Student Community Arts Assistant '
p1151
sS'OGJSQVGCUZSW'
p1152
S"I just got Fallout  so I may not be replying often right now I will be backThis app makes me feel like Sauron I see youI like long walks on the beach Star Trek and casual sexIf you haven't seen Garth Marenghi's Darkplace I would be happy to introduce it to you"
p1153
sS'AMNUCDHCINDP'
p1154
S'Edinburgh chick'
p1155
sS'FZVKIDTUYNOX'
p1156
S' Edinburgh '
p1157
sS'ABTOPLNIKFIE'
p1158
S"Loves to paint act and sing can't be bothered to make money outta them If you can't handle tattoos you can't handle me Rather dislike beards love tall tall guys and any height of girl Dying of the flu at the moment so I can appreciate the type of Netflix and chill where you feed me soup "
p1159
sS'YOPGQTOHHFLS'
p1160
g26
sS'NJVPAYFVUQCE'
p1161
g26
sS'PBIMEDLJCDLV'
p1162
g26
sS'YHSGUIGUHYIC'
p1163
g26
sS'SNMPZCBJIVWB'
p1164
S'Two words'
p1165
sS'TYZGFTZMXZWB'
p1166
S"I'm a fucking punmeister Looking for a drinking partner  someone to take me to Rotato for a jacket potato "
p1167
sS'AQWAFRXVIHQE'
p1168
S"I know it says  but I'm  "
p1169
sS'DZCMDOBIVXJI'
p1170
S'Love new adventure  road trips Love traveling If we match message me Facebook httpsmfacebookcomNicoleeeeee'
p1171
sS'XUIBLHXRZDXQ'
p1172
S'Forresedinburgh Criminology at Napier '
p1173
sS'BHQJLQQXUYLD'
p1174
S'Norwegian   Student '
p1175
sS'JGJXTJLRHFDD'
p1176
S'Living and studying in Edinburgh '
p1177
sS'ZXPGLILRVETN'
p1178
S'Snapchat  ellebelle '
p1179
sS'SRAVZLBZMCXG'
p1180
S"EdinburghScottish ' redhead Not looking for a serious relationship Likes tall men uniforms beautiful women music dancing outdoors going out staying in watching Netflix being comfy getting dressed up laughing being spontaneous playing practical jokes tattoos  more I also have a very high sex drive bit of a wild child love house parties You only live once and I going to live it to the full so I'd love to find a few sexy people to join me and be my partners in crime "
p1181
sS'LEFNHGJPNAYC'
p1182
S'Undefeated Lord of the Rings trivia championActresswhisky enthusiast'
p1183
sS'AMQAMYGQFKAB'
p1184
g26
sS'JMRKPUGNWZWA'
p1185
S"I'm a fucking punmeister Looking for a drinking partner  someone to take me to Rotato for a jacket potato "
p1186
sS'ICMBSIIDHVQP'
p1187
S''
p1188
sS'MPGUPJCXJWKO'
p1189
g26
sS'MUBSSPSAFWXX'
p1190
S'Love sports love travels'
p1191
sS'VDDNVSKKPWQG'
p1192
S"I'm a fucking punmeister Looking for a drinking partner  someone to take me to Rotato for a jacket potato "
p1193
sS'ULLXVFYGTCEM'
p1194
S'Lacking balls and panache since '
p1195
sS'USHSEBOODVXK'
p1196
S"Travel obsessed pierced and inked After working in Romania Madagascar and Nepal I'm spending some time at home in Edinburgh to focus on my dance career and work out what the hell I'm doing with my life If you've heard of The LaFontaines we can probably be friends"
p1197
sS'LJEQEUGVGRBI'
p1198
g26
sS'IMSQNUGQCFBV'
p1199
S'Not enough characters here to tell you about myself '
p1200
sS'URSGBJRZCOAW'
p1201
S'Edinburgh Uni  Cambridge '
p1202
sS'TQWIIYZTDPJD'
p1203
S'english lit studenti like people places and thingsthe kind of girl you could take home to meet your parents until your dad inevitably leaves your mum to be with me instead '
p1204
sS'QUWXMBQFZPOW'
p1205
S'snap chat ashwaaay'
p1206
sS'KIUGODRSBJKJ'
p1207
g26
sS'AVDKEVDJLKVN'
p1208
S'Edinburgh Instagram katiehmferguson '
p1209
sS'QJKTVZLYYONT'
p1210
g26
sS'BEHBIFFDWIQU'
p1211
g26
sS'XAXBEKMXSHPO'
p1212
S''
p1213
sS'DVJQRZQTYBLO'
p1214
S'RGU graduate new to Edinburgh '
p1215
sS'MCSXWMCFWMCF'
p1216
S''
p1217
sS'TJKNSEXAYYLZ'
p1218
g26
sS'BPWTQEJMBOOE'
p1219
g26
sS'LCHEJKZCZRVQ'
p1220
S"I'm a fucking punmeister Looking for a drinking partner  someone to take me to Rotato for a jacket potato "
p1221
sS'CZXSOEEUSHIO'
p1222
S' '
p1223
sS'VZIDXUJYTJGW'
p1224
S"I'm a trouble And I love weird people And Opium Polish Crazy But lovely"
p1225
sS'NWPRVRHMUJTU'
p1226
g26
sS'JCLCDXRLNPYZ'
p1227
S' '
p1228
sS'IWWULFJAPHCE'
p1229
g26
sS'EPOENLQWHRTX'
p1230
S"I am  and Stydying Psychology I'm not interested in half the things it says I am I can't remember liking them on Facebook but what's done is done "
p1231
sS'ZPKPBHDZTXMX'
p1232
S'Edinburgh physio student Instagram laurarobertsonx Snapchat laurarobertsonx '
p1233
sS'HSZMECHGGZLN'
p1234
g26
sS'DJUVYFPPPLAK'
p1235
S'edinburghfootballlaw student '
p1236
sS'ZKLLWRYXJVJJ'
p1237
g26
sS'GPVMNEAPLNWR'
p1238
S'some people just put an Instant Smile on your face '
p1239
sS'WUPQBNNMKPTB'
p1240
S"I'm a fucking punmeister Looking for a drinking partner  someone to take me to Rotato for a jacket potato "
p1241
sS'AWUMQWXFABRM'
p1242
S''
p1243
sS'PCIPPIFWCQGZ'
p1244
S'  Voluptuous fat  lazy recovering netflix junkie with an offensive sense of humour I like people I can laugh with my very existence is a joke I like gay barsDont tend to message first im shy like that PSnapchat bitchitsyasmine'
p1245
sS'RQHUAUURBFLE'
p1246
g26
sS'LMPAAXLEYFDU'
p1247
g26
sS'PPXGXAFECFWX'
p1248
S"I'm a fucking punmeister Looking for a drinking partner  someone to take me to Rotato for a jacket potato "
p1249
sS'LGOWBJBXSWBL'
p1250
S"I'm a fucking punmeister Looking for a drinking partner  someone to take me to Rotato for a jacket potato "
p1251
sS'AJQHRNNYOJUA'
p1252
g26
sS'ESZLIENWOPZC'
p1253
S'edinburghfootballlaw student '
p1254
sS'YJLZEINUKESE'
p1255
g26
sS'DRZOWQIZQWDW'
p1256
S'Fine Art MA  ECA Brummie born and bred My neighbors think my accent is hilarious Instagram mollyhk'
p1257
sS'OOKLLNJNUEDN'
p1258
g26
sS'IQASGNYGOKLI'
p1259
S'Live on a farm in the middle of nowhere Fitness and game of thrones enthusiast with a mild peanut butter addiction Enjoy skiing baking weights training and attending young farmers shindigs If you dont appreciate a good game of monopoly we cant be friends  instagram emilynimmo facebook Emily Nimmo '
p1260
sS'LWWBIAXCGKAT'
p1261
S"I'm a fucking punmeister Looking for a drinking partner  someone to take me to Rotato for a jacket potato "
p1262
sS'KQNAKLDTEZQU'
p1263
S'Snapchat  allyblack '
p1264
sS'MWDLQCTBWXEW'
p1265
S'Scotland Brazil'
p1266
sS'DHLIFXNBXOKL'
p1267
g26
sS'HTUKFZDHVEUV'
p1268
S''
p1269
sS'TJRMBTYUCEQB'
p1270
S'Business student living it up in the big city '
p1271
sS'TKIOWQMZKJGD'
p1272
g26
sS'FWALZABYXEEK'
p1273
g26
sS'DQRWLHPJPCGG'
p1274
S'Civil Engineering student'
p1275
sS'GEUCHOXLOCGP'
p1276
S'I need a writer friend apply within'
p1277
sS'QMJGFXYHFXIN'
p1278
S"I'm the type of girl who gets a tattoo and finds out it's a Jonas Brothers song three minutes laterWork at Boots I want to go to places I'd never dream of going to "
p1279
sS'RRRCUWYGBIPZ'
p1280
S"Edinburgh Uni student If you don't like me at my Hive you don't deserve me at my George Street "
p1281
sS'YUIYSEGBECBP'
p1282
S'London  Edinburgh'
p1283
sS'RIOTBJSQVPIE'
p1284
S"' English Lit student at UoE"
p1285
sS'CXKEQKEYOZON'
p1286
g26
sS'WCCBJBGXKCXV'
p1287
g26
sS'NILOZLPWKSJW'
p1288
g26
sS'WAZYZTFMQOUL'
p1289
S'Dundee gal studying Costume Design in Edinburgh Addicted to custard creams and I make a cracking cup of tea'
p1290
sS'KVRMQGABSUOV'
p1291
S'Art student at ECA Fancy dress is the way forward '
p1292
sS'HZRXPIBRVLUI'
p1293
S''
p1294
sS'WTDNUMZDQLCW'
p1295
S'Av had  vodka cokes and am mwi'
p1296
sS'HILRLHCXDNWF'
p1297
S''
p1298
sS'AHZYBTEDGFHT'
p1299
S'Australian fugitive on the run in Edinburgh graceless'
p1300
sS'TWSWKTRMNWUA'
p1301
S'Make me laugh '
p1302
sS'RGEUDNGEWDMT'
p1303
S'Art student at ECA Fancy dress is the way forward '
p1304
sS'UZXOQUWEASYH'
p1305
g26
sS'UJKWOPGZOYVW'
p1306
S'Studying at Edinburgh for the semester'
p1307
sS'YEYKIANGXIUH'
p1308
g26
sS'JNCRXJNRBOIH'
p1309
S'Edinburgh '
p1310
sS'GRSBXUGJSFIA'
p1311
S''
p1312
sS'KCEFOBQPDDNF'
p1313
S''
p1314
sS'ZPHICPHARSMJ'
p1315
g26
sS'PHLEIBYKETOD'
p1316
g26
sS'TBRSCEVUUVQE'
p1317
S"Half Turkish festival and events student  bartender in Edinburgh steak connoisseur and gaming addict  aim to organise E one day  Little lass in the pool is my cousin ain't she a sweetie  oh also guys that have 'netflix' in their bios can u not "
p1318
sS'EFLIKEGJKXQS'
p1319
S'From Edinburgh  Snapchat ashleighx'
p1320
sS'QZCKGQGMVDWM'
p1321
S' Illustration student Foodie Guernsey  Singapore Living in Edinburgh  '
p1322
sS'XVKEBJYTRCIP'
p1323
S'Make up artistry student VodkaMarvelNetflixSnapchat eemmaa'
p1324
sS'RWMVGZSLPHTN'
p1325
S''
p1326
sS'QATXWFGVPGKE'
p1327
S''
p1328
sS'RBBBEXNUDRQL'
p1329
S'Banter '
p1330
sS'TGEEEXKSEUDF'
p1331
g26
sS'GWQKAPTUPQJW'
p1332
S''
p1333
sS'QZSATJUEPQTE'
p1334
g26
sS'LBZOZJQLOSHA'
p1335
S'LOVE LIFELife isnt about waiting for the storm to pass its about learning to dance in the rain'
p1336
sS'RPGPJNAKVJZW'
p1337
g26
sS'ZZKHFGSDVKYE'
p1338
S'Just looking for peeps to chill and watch movies with '
p1339
sS'OTWOJVQILZYT'
p1340
S"I'm a fucking punmeister Looking for a drinking partner  someone to take me to Rotato for a jacket potato "
p1341
sS'PGQWROLCIKHH'
p1342
S'I like long romantic walks to the bar'
p1343
sS'MBLUPIIQRZHL'
p1344
S'Banter '
p1345
sS'KTRLIJSVLGYA'
p1346
S' fife '
p1347
sS'PJAAMENGIXQK'
p1348
S"Bulgarian working in Manchester  'Life isn't about waiting for the storm to pass it is about learning how to dance in the rain'"
p1349
sS'XWHOZFPBLMJL'
p1350
S'Snapchat slmull Beauty therapist at the retreat health and beauty'
p1351
sS'YSTCYWFLENNM'
p1352
S'Staff nurse Voice of the Corran FerryI like caramel lattes and Paolo Nutini '
p1353
sS'DDYCDTBHBTVG'
p1354
S'Linguistics and Literature student                                                                 I speak Spanish                                                                                       Pizza and beer enthusiast                                                                        Bon Iver fangirl                                                                                    Cuddle slut  Just say hi '
p1355
sS'OYYPODLKFTBK'
p1356
S'ft  and hate rude people '
p1357
sS'OSCLVSTURTZY'
p1358
S"Edinburgh Can't ski Didn't go to uni Don't have snapchat  "
p1359
sS'HWOSBNBZESJD'
p1360
S"I love adventures and people who can make me laugh I'm always up for coffeewhisky with new people Looking for friends and drinkingexplorer buddies "
p1361
sS'SMHDRLIIDNTV'
p1362
S''
p1363
sS'OIRBMAQZULSA'
p1364
S''
p1365
sS'TRYHBHADYCER'
p1366
S''
p1367
sS'XBXQHQATYSCM'
p1368
S'BarcelonaEdinburghNot a onenight stand girl materialInterests '
p1369
sS'RUQTOGHRHFAN'
p1370
g26
sS'YAJWJCDZVMLS'
p1371
g26
sS'CJZNDJBDRZVE'
p1372
S"I'm a fucking punmeister Looking for a drinking partner  someone to take me to Rotato for a jacket potato "
p1373
sS'TFIROJDUQZMK'
p1374
S'From EdinburghJust give me a message to find out moreIgnore my interests'
p1375
sS'BFVMDCTYUESB'
p1376
S"My mum thinks I'm cool"
p1377
sS'FUBZRGZGIGXV'
p1378
S'LondonEdinburgh Studying Arabic and Persian '
p1379
sS'RWNLHTFZPRSU'
p1380
S'Starwars xbox my puppyyup'
p1381
sS'WWISVZEIVKWX'
p1382
S''
p1383
sS'CYZYVYHMCTON'
p1384
S"I AM NOT A PSYCHO'I'm  and Looking for someone who wants to drink some beers and will let me use their bath"
p1385
sS'XWFDJVODUPWN'
p1386
S'If you dinny like documentaries your no for me Soz'
p1387
sS'MCBVNRIJDARQ'
p1388
g26
sS'POIERDMOFKDV'
p1389
S"If you think you've ever made a bad decision then just remember I ran the Tough Mudder hungover"
p1390
sS'FNYAYHFAEJHK'
p1391
S'Instagram  ejfieldxDo you ever drive on the motorway and see someone fit and wish you could give them your number somehow'
p1392
sS'OJDTADBQXCQY'
p1393
S'Edinburgh Uni  Cambridge '
p1394
sS'AIFYKTIOOMVK'
p1395
S"I'm a fucking punmeister Looking for a drinking partner  someone to take me to Rotato for a jacket potato "
p1396
sS'XUFXCOIRRNQU'
p1397
g26
sS'OCUTIUORAAQV'
p1398
S'Ambitious and outgoing law student from Denmark studying at the University of Edinburgh for one semester Love singing dancing movies food and tea'
p1399
sS'CQXTOWODIQCT'
p1400
g26
sS'YSIGDPQGYCAO'
p1401
g26
sS'JMXZQTTJISXM'
p1402
S'History of Art Edinburgh '
p1403
sS'KYZGUYKWGRQC'
p1404
g26
sS'LTGERFGBGEXE'
p1405
S"Edinburgh Uni student If you don't like me at my Hive you don't deserve me at my George Street "
p1406
sS'PDZNFKEAZTYA'
p1407
S'EdinburghTattoosSnapchat hollihunterx'
p1408
sS'FWNEFFEIZQMX'
p1409
g26
sS'BQJIMBRJLGEX'
p1410
S"I'm a fucking punmeister Looking for a drinking partner  someone to take me to Rotato for a jacket potato "
p1411
sS'FEPTNBTJADSP'
p1412
S"First year Nursing student at Edinburgh Uni I can't make you better if you get ill but I will do a stellar job of washing my hands"
p1413
sS'KSRXIHETLUEK'
p1414
S'EdinburghSnapchat indialaingx'
p1415
sS'UITSEREHKFXD'
p1416
g26
sS'HBFDNKTRZALD'
p1417
S'Snapchat chanteelleex '
p1418
sS'FGCBEEJRJPSL'
p1419
S"I'm a fucking punmeister Looking for a drinking partner  someone to take me to Rotato for a jacket potato "
p1420
sS'GGRUYLXGCXKZ'
p1421
S'Business student living it up in the big city '
p1422
sS'QZXWPSNFBERU'
p1423
S"I'm a fucking punmeister Looking for a drinking partner  someone to take me to Rotato for a jacket potato "
p1424
sS'VSNRVKWZNITV'
p1425
S"UoE Swedish bakar utmrkt kladdkaka sick dance moves with and without tequila in my systemJe parle franais je jure and  other languagesIf we match don't be shy"
p1426
sS'ZYYTDDFBFQTX'
p1427
S'EdinburghLondon'
p1428
sS'VZDPIZCTNPXB'
p1429
S"I'm a fucking punmeister Looking for a drinking partner  someone to take me to Rotato for a jacket potato "
p1430
sS'OGIBMYQAHIWU'
p1431
g26
sS'MUIZGNZXYDTD'
p1432
S'Student nurse in Edinburgh '
p1433
sS'WLEZYSBEWSAA'
p1434
S''
p1435
sS'EWFPEBDPLVQC'
p1436
S"I'm a fucking punmeister Looking for a drinking partner  someone to take me to Rotato for a jacket potato "
p1437
sS'LJNITQQFWXCU'
p1438
g26
sS'FUXEGMKDNCGN'
p1439
g26
sS'XVRNCNOSXNEF'
p1440
g26
sS'UBPZQPGPAKLX'
p1441
S''
p1442
sS'CUQRMWQVRFKR'
p1443
S"I'm a fucking punmeister Looking for a drinking partner  someone to take me to Rotato for a jacket potato "
p1444
sS'ECKCXDMKOVQI'
p1445
S"Just a nice always smiling girl living in Edinburgh originally from Poland Looking for a chat a friend a remedy to boredomI like going out having fun singing enjoying life in general ' "
p1446
sS'SCGNDDEEMJSO'
p1447
S''
p1448
sS'HQZWRASTTVEP'
p1449
S''
p1450
sS'EFEHNTAMPXDZ'
p1451
S'Instagram chloconnollySnap chat chloecon'
p1452
sS'ESIRXROHCQIK'
p1453
S"I'm a fucking punmeister Looking for a drinking partner  someone to take me to Rotato for a jacket potato "
p1454
sS'HDSPIUCNMKVX'
p1455
S"I'm a fucking punmeister Looking for a drinking partner  someone to take me to Rotato for a jacket potato "
p1456
sS'OOVZOUKICBCL'
p1457
S'PhD studentVeganFeministPansexualSapiosexual'
p1458
sS'ZXQZPAWXYMJV'
p1459
g26
sS'HUPRVMROJJOB'
p1460
S'Gin dogs and good food'
p1461
sS'AHTFINVNWFJX'
p1462
S"I'm from fife In Love with family guy love playing piano  but it says  ft curvy pop up"
p1463
sS'LCWQPZXPKJGY'
p1464
S'english lit studenti like people places and thingsthe kind of girl you could take home to meet your parents until your dad inevitably leaves your mum to be with me instead '
p1465
sS'MYVALEHFPXFI'
p1466
S'Av had  vodka cokes and am mwi'
p1467
sS'YJUNMDNNVVSI'
p1468
S"If you think you've ever made a bad decision then just remember I ran the Tough Mudder hungover"
p1469
sS'JFYVMAWOCOSY'
p1470
S''
p1471
sS'FCTCAACLQOHY'
p1472
g26
sS'WFLQAVIPVIEV'
p1473
S'EdinburghLondon'
p1474
sS'CIPOGITQRQHB'
p1475
g26
sS'EWCNREYAKWSC'
p1476
S"EdinburghLondon Let's play carpenters first we get hammered then I nail you"
p1477
sS'AQUENHLHPQTS'
p1478
S'Names Emily year abroad in Scotland from straight out of America  drink and smoke too much but still functional  hit me up if you are chill and like to have a good time   '
p1479
sS'SXAZJVLUTKIH'
p1480
S'Hey there  x'
p1481
sS'VZWROUVCMWRJ'
p1482
S'Canadian  just moved to EdinburghI just want someone who makes me laugh I make art snowboard and can do circus tricks'
p1483
sS'BNTXEPMFDZBJ'
p1484
g26
sS'KBLIDNJOVGMQ'
p1485
S''
p1486
sS'YUUTZOBANORL'
p1487
g26
sS'UWLDNRXSUXAU'
p1488
S''
p1489
sS'QQGDSLCSIEAL'
p1490
S'Edinburgh student I like cheese and tequila Sometimes together '
p1491
sS'WTJBMMFAPRKI'
p1492
S"I'm a fucking punmeister Looking for a drinking partner  someone to take me to Rotato for a jacket potato "
p1493
sS'UIGGISXLNWLY'
p1494
S"I never send x's nothing personalTry impress meHigh expectationsEither boogie hard or go home "
p1495
sS'JRYBYEPUHVNM'
p1496
S'Living in Edinburgh and living life to the full'
p1497
sS'OPWINBODTTCX'
p1498
S'GlasgowEdinburghStudying Civil Engineering at HeriotWatt '
p1499
sS'RXTXLDRSYJMS'
p1500
g26
sS'VKALUKDKYJHQ'
p1501
S''
p1502
sS'KHIQXTSPFHQT'
p1503
S"I'm a fucking punmeister Looking for a drinking partner  someone to take me to Rotato for a jacket potato "
p1504
sS'DZXZQLEBOEFN'
p1505
g26
sS'AJQODVINECGL'
p1506
g26
sS'KQVCKFSEFXIW'
p1507
S'Costume student at queen Margaret uni in Edinburgh Witty oneliner required for bio please leave suggestions in message form '
p1508
sS'DEDFREFBQCKD'
p1509
S'Student Edinburgh'
p1510
sS'MZAOSZPJGMTV'
p1511
S''
p1512
sS'KKKGLXRCXCDV'
p1513
g26
sS'RMQWHOAXYMGW'
p1514
S'ECA'
p1515
sS'ROCWSMTMBVLJ'
p1516
S'if i had to choose between believing in aliens and believing in love i would choose the aliens except for space i also spend a lot of time thinking about dinosaursalso im swedish'
p1517
sS'VMKYKSRLNDIU'
p1518
S' runner '
p1519
sS'AXBYCOUDJQEE'
p1520
g26
sS'ZDUURJCUUDKF'
p1521
S'Second year at Edinburgh university '
p1522
sS'XOVKBHOWPQIZ'
p1523
S"I know it says  but I'm  "
p1524
sS'WDJGYXWQSQWS'
p1525
S"I'm a kiwi who has come to work and travel in the UK  Hoping to make my way through europe   food wine traveljapan"
p1526
sS'KNPGXWCTMCMO'
p1527
g26
sS'QZRVBUBLPMCQ'
p1528
S"I love adventures and people who can make me laugh I'm always up for coffeewhisky with new people Looking for friends and drinkingexplorer buddies "
p1529
sS'POUTBCTYROVR'
p1530
S"Dont expect me to jump into your bed cause you've swiped right im a lady not a whore "
p1531
sS'JUQITCRUNURJ'
p1532
S'th year Zoologist at Edinburgh Uni A man who dares to waste one hour of time has not discovered the value of life'
p1533
sS'FGAVUEZWGPKO'
p1534
g26
sS'GHBQJAZOGSKB'
p1535
S"I'm a fucking punmeister Looking for a drinking partner  someone to take me to Rotato for a jacket potato "
p1536
sS'ELGJULUZDTHG'
p1537
g26
sS'KVBBJVQZIEHR'
p1538
S"I'm a fucking punmeister Looking for a drinking partner  someone to take me to Rotato for a jacket potato "
p1539
sS'AASNGQEFMFSY'
p1540
S"I'm a fucking punmeister Looking for a drinking partner  someone to take me to Rotato for a jacket potato "
p1541
sS'UGWKEULWXVXU'
p1542
S'Snapchat xAshleySmithx                               Excitement  adventure '
p1543
sS'MAJICCBWHYCE'
p1544
S'Edinburgh  Psychology StudentBartender Travelling '
p1545
sS'SYGFFTXWQECN'
p1546
S'Science graduate currently living and working in Edinburgh  '
p1547
sS'KOCMXQNQRMGB'
p1548
S"DogspeopleI'm the blonde less attractive one "
p1549
sS'YAEQFYDJEQZT'
p1550
g26
sS'HVFCESKAMVOM'
p1551
S' Half Italian Edinburgh'
p1552
sS'BHBYKKXTOTSJ'
p1553
S"I'm actually really cool "
p1554
sS'REQUZWWUMGQF'
p1555
S"I'm a fucking punmeister Looking for a drinking partner  someone to take me to Rotato for a jacket potato "
p1556
sS'VWQECXLIRNUK'
p1557
S"PersianGymnast I'm in the tab"
p1558
sS'MXKZFKGCMCNW'
p1559
S'Instagram kirstinsands'
p1560
sS'FIXYKUTHFIBU'
p1561
S'Am kidding '
p1562
sS'POOFDLMBYPGI'
p1563
S''
p1564
sS'BLMWWVIXSDQN'
p1565
S"LondonEdinburghSocial anthropology student Be nice Be fun Be friendly Don't be boring "
p1566
sS'DWQPCUSOVOPD'
p1567
S"I'm a fucking punmeister Looking for a drinking partner  someone to take me to Rotato for a jacket potato "
p1568
sS'EWYHWUPNXQYN'
p1569
g26
sS'SBLFWUDTZLRL'
p1570
S'You are now about to witness the power of street knowledge '
p1571
sS'ZLWVUAOVBBZP'
p1572
S"I'm really fun honest I like holidays elephants crisps and wine "
p1573
sS'CLDQSOWOPLMV'
p1574
S"I'm a fucking punmeister Looking for a drinking partner  someone to take me to Rotato for a jacket potato "
p1575
sS'WGBPWTQODERD'
p1576
S'probs taller than your fridge musically enthused DAMN THE MAN SAVE THE EMPIRE'
p1577
sS'VWZYZBBEGAUQ'
p1578
g26
sS'IEZHPABUEFCU'
p1579
S'apprentice mechanical fitter                     dunfermline'
p1580
sS'WVIIWRRPJZFB'
p1581
S'A simple hello could lead to a million things'
p1582
sS'IWTFPQXEYEAT'
p1583
S"' string bean studying at Edinburgh College of ArtWill usually be found dancing around to music covered in glitter "
p1584
sS'GICMCTXDJFQZ'
p1585
S"' string bean studying at Edinburgh College of ArtWill usually be found dancing around to music covered in glitter "
p1586
sS'YSYVBZYTFLXM'
p1587
S''
p1588
sS'UQJJWWLGEHTB'
p1589
S'Live in Edinburgh studying drama                                     Snapchat  leahmac'
p1590
sS'HBVVGPKIIMPM'
p1591
S''
p1592
sS'YTZDYWEAUSFY'
p1593
S"I'm a fucking punmeister Looking for a drinking partner  someone to take me to Rotato for a jacket potato "
p1594
sS'MYUMRJYZIYGC'
p1595
S"I'm a fucking punmeister Looking for a drinking partner  someone to take me to Rotato for a jacket potato "
p1596
sS'PUIHTLNOHKCT'
p1597
g26
sS'FLOIAXUOOCFM'
p1598
S'what is haaaappeninFrom Northern Ireland  living in Edinburgh'
p1599
sS'OUTBZDUGFCCZ'
p1600
g26
sS'RYXOXEKIPMAS'
p1601
S'Leeds  EdinburghBiological sciences studentMeat free I like travelling n being in the sea '
p1602
sS'HVSVKVSPBPNA'
p1603
S'BelfastDundee  Law with German  RowerLifeguard '
p1604
sS'EFSSDUEFWFXH'
p1605
S' Edinburgh '
p1606
sS'TQSRWWTBGNFH'
p1607
S'Yvonne tes bonneUSA to UK '
p1608
sS'VNVUFVEFLOFM'
p1609
S'Edinburgh uniBusiness studentPart time receptionist Love sports and trying new things '
p1610
sS'CJIMXNDDIIBJ'
p1611
S'Edin Uni rd Year'
p1612
sS'HUVIDOCFKPZE'
p1613
S"I'm a fucking punmeister Looking for a drinking partner  someone to take me to Rotato for a jacket potato "
p1614
sS'RPKRWZGJOIZN'
p1615
S'From BarbadosStudying brewing  distilling at HeriotWatt university '
p1616
sS'CULKSYACLBDE'
p1617
g26
sS'PWLHIHRXMBIX'
p1618
S'Irish studying in QMU EdinburghHi or hey will guarantee reluctance to reply Instagram  ciaramurray'
p1619
sS'NXSXSKHQQITF'
p1620
S' NCL Edinburgh Biology student bartender keen traveller dog lover '
p1621
sS'JOIIHGJYSBXI'
p1622
S'Hayley Marie Campbell Snapchathayleymarie '
p1623
sS'UQLWTEBNTZZJ'
p1624
g26
sS'SLILPMKDYMQW'
p1625
S''
p1626
sS'RHAVUCLTHXNR'
p1627
S'Snap chat nicolapicola'
p1628
sS'KZBQCQXWXMRG'
p1629
g26
sS'HQPTOVUQJKNY'
p1630
g26
sS'VQUFEZAISVAJ'
p1631
S' Edinburgh Engineering Northern Irish Pop punk Action films Marvel Can be funny sometimes Definitely interested if you have a catWant to learn to play drums help a gal out '
p1632
sS'JQXCVEHJLOZC'
p1633
S"I'm a fucking punmeister Looking for a drinking partner  someone to take me to Rotato for a jacket potato "
p1634
sS'LVBAAGBLFQXT'
p1635
g26
sS'WBJXLMKCAVUY'
p1636
S"Love the life you live  from Edinburgh Love tattoos and piercings Anything you want to know just ask Snapchat meganmclayDon't be afraid to message me first "
p1637
sS'OTQNJJOAFFQH'
p1638
g26
sS'YDRXBURCSALG'
p1639
S' interested in human rights law and studying at UoE '
p1640
sS'FXOPJVWDKSCI'
p1641
S''
p1642
sS'BFWHWBLCXUTI'
p1643
g26
sS'OYKVLEWONION'
p1644
g26
sS'NKLSXZHJQEQN'
p1645
S'BCUWelsh '
p1646
sS'ARTBZOPAJFEA'
p1647
S"Drama and Performance student at QMU I dream of having a pug one day Its the main goal in my life really The way to my heart is food literally any food and i'll be happy Twitter  Instagram sarahlbrownx"
p1648
sS'VFWUQRJNZMNR'
p1649
S' I love cooking reggae and rock climbing but most of all I just really love pie'
p1650
sS'IAVYGLDMWETO'
p1651
S' I love cooking reggae and rock climbing but most of all I just really love pie'
p1652
sS'BMVEQFWRIWJI'
p1653
S'Half MalaysianHalf Scottish '
p1654
sS'PZYCZEWDTICE'
p1655
S'Norwegian   Student '
p1656
sS'FTGHRSIWCCAR'
p1657
g26
sS'BBHSRNUXCKCX'
p1658
S'I like long romantic walks to the bar'
p1659
sS'RVCDKBTTWDRP'
p1660
S'Snapchat  libsnedxInstagram  libsnedTwitter  libsned'
p1661
sS'GSUDEIXZPIHR'
p1662
S'Snapchat sharastevens '
p1663
sS'MPGVQPVTALRH'
p1664
g26
sS'WMOMRAAPCEND'
p1665
S"Hi i'm Elley  studying costume design at ECA "
p1666
sS'OGUPQINUQLZF'
p1667
S'I enjoy a nicely packed bowl placed on top of a bong Plainfield IL USA Let me be your American sweetheart Edinburgh for the next  weeks Lots to see drink smoke and explore here '
p1668
sS'OEWEFNKQIOJW'
p1669
S'Edinburgh chick'
p1670
sS'FJKSNGZPNITY'
p1671
S'Currently studenting in edinburgh '
p1672
sS'JWWWAGEOTVML'
p1673
g26
sS'FZLEKSYDBODE'
p1674
S'Snapchat  caznelly'
p1675
sS'XNWKSXLYBWDP'
p1676
S"I like to work out music and comedy I'm also a PhD student in architectural history Good cook like beer and hate girly drinks No hookups "
p1677
sS'WYBMCHHJDSSW'
p1678
S' '
p1679
sS'SOTUQIAXWWPN'
p1680
S"PersianGymnast I'm in the tab"
p1681
sS'KAMYBOEVDIVQ'
p1682
S'Northern Ireland Edinburgh Napier Skiing Hockey Travelling  '
p1683
sS'JQGWFCNYADRA'
p1684
S''
p1685
sS'EBXITBUBUTPE'
p1686
S'From northern England Sunderland Student in Edinburgh'
p1687
sS'PNGPNKIPDWPV'
p1688
S'Edinburgh'
p1689
sS'DROCUMMJGXWA'
p1690
S'Snapchattaelorsmith  '
p1691
sS'CZQVFAGPJZYU'
p1692
S'Sport and exercise student Stirling uni '
p1693
sS'TAUIWSPNVGHG'
p1694
S"I'm a fucking punmeister Looking for a drinking partner  someone to take me to Rotato for a jacket potato "
p1695
sS'FUORFXZOPHJJ'
p1696
S''
p1697
sS'WLYADGKHVQMP'
p1698
g26
sS'GACLGZUNTCWK'
p1699
g26
sS'WVIQSDKPDTFU'
p1700
S'French student  Internship in Edinburgh for  months'
p1701
sS'XRQTUCAOONZD'
p1702
S"Socialist and feminist Love the arts mostly music Oh should mention that I'm looking for friends so no funny bussiness "
p1703
sS'YNDXDJAPEEHL'
p1704
S''
p1705
sS'UBIQAUEDDGOA'
p1706
S''
p1707
sS'QXIOJQRODJKH'
p1708
S'UoESailing singing drinking socialising etc '
p1709
sS'CUPJUCKUXZTK'
p1710
S"Just want to travel Don't message first but will reply xYes I do have snapchat so just ask "
p1711
sS'VJXADKCVCEJK'
p1712
S'From Edinburgh Instagram megaandrydenn '
p1713
sS'ZVRKEEXTZPRE'
p1714
S'English language student at Edinburgh Uni Like music and books and cooking and getting drunk'
p1715
sS'LGDQUNEKPRIM'
p1716
S'EdinburghMy hobbies include Netflix  Chill minesweeping drinks in George Street nightclubs and taking romantic walks with you to the cash machine'
p1717
sS'OJIHTSDYTQXD'
p1718
S"I'm a fucking punmeister Looking for a drinking partner  someone to take me to Rotato for a jacket potato "
p1719
sS'NXBLVINXTYBF'
p1720
g26
sS'RSNCRTIVDAYB'
p1721
S'History student at Edinburgh University  '
p1722
sS'JNDWOCQDUPGJ'
p1723
S''
p1724
sS'HUAOIMAKZSBH'
p1725
S''
p1726
sS'PUHSIMCURDZB'
p1727
g26
sS'DMEJGFZYQHIB'
p1728
S' '
p1729
sS'WWQORHNDXVYL'
p1730
S'Edinburgh Midwifery student '
p1731
sS'ZMFSROIPZNWD'
p1732
S'Final year student from nireland '
p1733
sS'EKWAERLRYWEN'
p1734
g26
sS'TVVKVYINOZBZ'
p1735
g26
sS'WAIEHYKEDVAC'
p1736
g26
sS'BEZBNJPELPRN'
p1737
S'here to laugh at peanut headsI uninstall this often so soz'
p1738
sS'QRXEKOFCEPON'
p1739
S'Studying at UCL for a bit'
p1740
sS'XVYFFKISWKWU'
p1741
S''
p1742
sS'MCACWWTJMALC'
p1743
g26
sS'CXVMMBWAKHPK'
p1744
S'Art student in Edinburgh'
p1745
sS'UFHISUHSAEBI'
p1746
g26
sS'MNGRUAWFDSZM'
p1747
S''
p1748
sS'THOFTPJDJDIE'
p1749
g26
sS'UCQRAVFCYIBO'
p1750
S"I'm in love with David Attenborough "
p1751
sS'KMQCZIHJKHMZ'
p1752
g26
sS'ITGNIVAQPQSS'
p1753
g26
sS'VZNZLEZJWHUT'
p1754
S'Taylor ParisCool Cool cool cool insta  taylorparis'
p1755
sS'TTJSZPZERXIX'
p1756
S"I'm a fucking punmeister Looking for a drinking partner  someone to take me to Rotato for a jacket potato "
p1757
sS'VCYNVTHXFVVV'
p1758
S''
p1759
sS'JOOAANFYHWHA'
p1760
S"I'm in love with David Attenborough "
p1761
sS'SEBGNIJVPWOU'
p1762
S'psychology student at edinburgh uni bios are shit so just come chat to me ae '
p1763
sS'YQPUGNKMGAWI'
p1764
S'I study psychology at the University of Edinburgh and I like skiing and hiking Also enjoy reading pretty much anything scifi and too many tv series'
p1765
sS'FZTFQKSPRHCL'
p1766
S'I am a vet nurse staying in Edinburgh Animals are better than people '
p1767
sS'WAWAVANSLUSC'
p1768
S''
p1769
sS'OJTWSNBLJJSW'
p1770
S'HK in Edinburgh '
p1771
sS'GWECCFQFRIXH'
p1772
g26
sS'TOCZYYIZIWBD'
p1773
S"I'm counting on your standards being lower than mineStudying Marketing at uni in Edinburgh but still no idea what I want to do in life Instagram  caitlinmjordanTwitter  muppetkay "
p1774
sS'DLQOVGRKUOPX'
p1775
g26
sS'DNEFYTWEEPSR'
p1776
S"I'm a fucking punmeister Looking for a drinking partner  someone to take me to Rotato for a jacket potato "
p1777
sS'MVLZXDAJYEXZ'
p1778
S"your bloody mary's lacking in tabasco "
p1779
sS'RWOZDYIUQAAS'
p1780
S"I'm a fucking punmeister Looking for a drinking partner  someone to take me to Rotato for a jacket potato "
p1781
sS'UXKCSDYTIYAV'
p1782
S'Basel BrusselsI vibe Insta eleanorroseshortland'
p1783
sS'TIQEIIUPVNHX'
p1784
g26
sS'VEACMEQTOHKO'
p1785
S"I'm a fucking punmeister Looking for a drinking partner  someone to take me to Rotato for a jacket potato "
p1786
sS'SEEZBEYMGZYT'
p1787
g26
sS'ZHGCFIEKURZA'
p1788
S'Edinburgh The less you reveal the more people wonder Insta gbrutherford'
p1789
sS'LKTRCCVRXITA'
p1790
S"Stirling Uni  If you are reading this I am metaphorically smiling at you  Go smile at someone else now  it will make their day  I love Marvel films Let's build a pillow fort "
p1791
sS'PDIEMFZQRUGZ'
p1792
g26
sS'SYOTCVEVSROI'
p1793
S'BCUWelsh '
p1794
sS'QZUDYAYUXXLT'
p1795
S''
p1796
sS'HWCXNOWCVVHU'
p1797
S'snapchat kirstenwindever'
p1798
sS'POYDJEEPIIVH'
p1799
S"philosophy student at UoE avid jazz n folk loverif you don't like cats or cakes swipe left now "
p1800
sS'CQKLENZWBIXG'
p1801
g26
sS'RSZRMJLXAATI'
p1802
S"Tinder c'est mon dada "
p1803
sS'ZTNVFVMAMZXU'
p1804
S"It's unfair that breakfast in bed is romantic but dinner in bed is a cry for help"
p1805
sS'XIQQVTIUIPHM'
p1806
S"DerryEdinburgh Love having a bitta craic can be pretty sarcastic at times I reckon I'm pretty friendly though modest too so feel free to send me a wee message "
p1807
sS'MTVEJQPLIJFA'
p1808
S"Canadian gal who moved from the family igloo to haggis land I like binge watching breaking bad in bed being nocturnal camping the ocean rainy days hot drinks indie music and naps Let's get together throw a Catalina wine mixer and do activities Also I can name all  original Pokemon If that doesn't impress you I don't know what will Ps If you have a beard I will love u eva I'm so alone"
p1809
sS'SYPAXBJZWPJH'
p1810
S'A ridiculously sarcastic midget that loves beards '
p1811
sS'MDDFYGSJBUQY'
p1812
S"' English Lit student at UoE"
p1813
sS'NVFAFHKZQBPN'
p1814
S'Instagram  laaaurensmith'
p1815
sS'XHOERGINMKRI'
p1816
g26
sS'KHJSZIRLHVFI'
p1817
g26
sS'PAZCMEAISGYN'
p1818
g26
sS'TETAYRIPRFTK'
p1819
S"Just moved back to Edinburgh after being in Florida for  years Please don't swipe right unless you actually want a conversation I like honest dominant men who are protective Nice feet and hairy chests too "
p1820
sS'EFBRSMOPFJUQ'
p1821
S'Just Gin and bear it  DStudentEvents management  Not afraid to say hi first Genuinely nice '
p1822
sS'RPCJKABCWGQT'
p1823
S'NewcastleEdinburgh '
p1824
sS'FHYEJDQKSLHL'
p1825
S'Forresedinburgh Criminology at Napier '
p1826
sS'DUEUIRXWSFEY'
p1827
S"I'm a fucking punmeister Looking for a drinking partner  someone to take me to Rotato for a jacket potato "
p1828
sS'YQIRNLBVNSSK'
p1829
S'Half MalaysianHalf Scottish '
p1830
sS'MGAKXWIYNMNC'
p1831
S"Just want to travel Don't message first but will reply xYes I do have snapchat so just ask "
p1832
sS'RLMEJCEKGZDH'
p1833
S'Love Toy Story and a good pair of socks '
p1834
sS'AHHKIWVZPTEL'
p1835
g26
sS'IELTDMEWAHEV'
p1836
g26
sS'UCGWXRVFOVZO'
p1837
S"I'm a fucking punmeister Looking for a drinking partner  someone to take me to Rotato for a jacket potato "
p1838
sS'MIGIEZVDDPJX'
p1839
g26
sS'JGHNQWDUXDJO'
p1840
g26
sS'BRVASRUNLYZK'
p1841
S"I'm a daydreamer and a nightthinker aka I go to bed at about am most nightsnd year theatre and film student  big tea lover and Christmas obsessedI'm not the kinda girl you will meet in a club I like hanging out in my flat or going out to a pub with my friends Slytherin and proud  I write scripts in my free time and I spend a lot of time with my friends who are all massive geeksnerds what ever you call them who I mum  but they keep me laughing which I love  "
p1842
sS'DHIKHSWTAPJI'
p1843
S"I'm a fucking punmeister Looking for a drinking partner  someone to take me to Rotato for a jacket potato "
p1844
sS'RMCBOPHPCQGX'
p1845
S''
p1846
sS'JBJBHFKXTIFZ'
p1847
S"I'm a fucking punmeister Looking for a drinking partner  someone to take me to Rotato for a jacket potato "
p1848
sS'RJBRORLNSJWE'
p1849
S"HND Acting and performing studentI like guys in bands and I've got a thing for drummers"
p1850
sS'MOBNEWNOOJYQ'
p1851
S'A simple hello could lead to a million things'
p1852
sS'UORYNHVWDAYL'
p1853
S'  Irish   Radiography student at QMU '
p1854
sS'FCUJBNMALNVH'
p1855
S"I'm a fucking punmeister Looking for a drinking partner  someone to take me to Rotato for a jacket potato "
p1856
sS'QGGCBWHPDNEL'
p1857
S'Events Management  QMUSnapchat  alyssahall'
p1858
sS'IZADRLANHZTA'
p1859
S"I'm really fun honest I like holidays elephants crisps and wine "
p1860
sS'ICXLGVNZJQDL'
p1861
g26
sS'WKRWIWTIBLYA'
p1862
g26
sS'WRXCVWPKGDSH'
p1863
S''
p1864
sS'PUVELXFLFENV'
p1865
S'Accounting student at Herriot Watt '
p1866
sS'BNCBDRQPVGVD'
p1867
S'I love footballgym i work as a hairdresser and accountant '
p1868
sS'SYAEINQDTQZT'
p1869
S'From EdinburghJust give me a message to find out moreIgnore my interests'
p1870
sS'XNHTRINKFFNM'
p1871
S'Live in Edinburgh and work for the farm assurance office Go to young farmers and have had ponies since I was a toddler'
p1872
sS'DQFNXJLFJOGU'
p1873
g26
sS'ZRYOBAEPFYKQ'
p1874
S"I literally love talking to people So anyone up for a chat please feel free to drop a message Can always hold a good conversation I'm the one in the middle Snapchat  dannlouu"
p1875
sS'UZPLTJVDCFME'
p1876
S"I don't do Netflix and chill "
p1877
sS'UAGNEROCRGXV'
p1878
S"I'm a fucking punmeister Looking for a drinking partner  someone to take me to Rotato for a jacket potato "
p1879
sS'XTRJSFIOYZPO'
p1880
S''
p1881
sS'ARWXDWBVAJVI'
p1882
S''
p1883
sS'FMXIZUGGMTZH'
p1884
g26
sS'OYABCBPRFVQF'
p1885
S'Spent my summer living in Spain'
p1886
sS'LRNKVVFIUHGC'
p1887
S''
p1888
sS'WIDGEUJESJIA'
p1889
S''
p1890
sS'WYDEGOQAHKGA'
p1891
g26
sS'UULKZSTWITPZ'
p1892
S''
p1893
sS'TWAPHBMDTMJY'
p1894
S"Stirling Uni  If you are reading this I am metaphorically smiling at you  Go smile at someone else now  it will make their day  I love Marvel films Let's build a pillow fort "
p1895
sS'RJKPNBIOBWLJ'
p1896
g26
sS'VOWTSBJPJGOA'
p1897
S'If you like water you already like  of me EdinburghSnapchat hazbazx '
p1898
sS'OHZBSZPJBHLD'
p1899
S'Edinburgh Instagram katiehmferguson '
p1900
sS'JNSNNFBEWIXL'
p1901
g26
sS'JIGZSAEBYMPX'
p1902
S' Half Italian Edinburgh'
p1903
sS'MPEHLLXVOOLA'
p1904
S'UoE Economics '
p1905
sS'USDVIZZXZNQN'
p1906
g26
sS'WEAQCETWCFQQ'
p1907
S"I'm a fucking punmeister Looking for a drinking partner  someone to take me to Rotato for a jacket potato "
p1908
sS'PZKSFAXCCJYB'
p1909
S"I'm studying chemical engineering at Edinburgh I like to communicate using sounds rather than words sometimes"
p1910
sS'DVZJNAEMALYW'
p1911
S'Love new adventure  road trips Love traveling If we match message me Facebook httpsmfacebookcomNicoleeeeee'
p1912
sS'PFMZJESNMOTB'
p1913
S'Living and studying in Edinburgh '
p1914
sS'VNAPMRCWUJKP'
p1915
S"I'm a fucking punmeister Looking for a drinking partner  someone to take me to Rotato for a jacket potato "
p1916
sS'ILWOTFCWCJZN'
p1917
S'German Lives in Singapore moving to Edinburgh Hit me up '
p1918
sS'LRGWTWAMKYPV'
p1919
S' '
p1920
sS'VZNMHFCLXSUN'
p1921
g26
sS'WIHEYXQMZLNV'
p1922
g26
sS'ZTXQYAULXNMU'
p1923
S'Gym  Dance  Cook  Bake  Love  Travel  Be crazy  Be happyPeople should smile more Personal Trainer Student'
p1924
sS'HXFKUKVDYCHI'
p1925
g26
sS'UFSQFURHOZPR'
p1926
S'hopefully be a student by January year old son '
p1927
sS'IWBOHYHCWABS'
p1928
S''
p1929
sS'MKMAJDSFMEDS'
p1930
S"I'm a fucking punmeister Looking for a drinking partner  someone to take me to Rotato for a jacket potato "
p1931
sS'ALWYTHKHZCTY'
p1932
g26
sS'OAXOMMANXDNB'
p1933
S'Just looking for peeps to chill and watch movies with '
p1934
sS'MXIDWJNBTRGU'
p1935
S"I'm a fucking punmeister Looking for a drinking partner  someone to take me to Rotato for a jacket potato "
p1936
sS'WVHDAVCSIXQB'
p1937
g26
sS'BWCBOKSUPSOI'
p1938
S'Welsh girl usually based in Edinburgh work in marketing gym promotions constantly travelling Work between US and UK'
p1939
sS'XOXIIPGQUXYJ'
p1940
S'From the Scottish hills working in costume for film and tv'
p1941
sS'ZAPYXQANNHXM'
p1942
g26
sS'RQKDFFEWSNAL'
p1943
g26
sS'DVYZOTYBEHBD'
p1944
S''
p1945
sS'CERVYVIIKJVC'
p1946
g26
sS'EBIXCCBPLMRD'
p1947
g26
sS'LJYZENCQUNCD'
p1948
S'If you like water you already like  of me EdinburghSnapchat hazbazx '
p1949
sS'WWSAXWGJZDMX'
p1950
S'st year University of Edinburgh  London gal'
p1951
sS'IWUPCPXEJZNX'
p1952
S"I'm the blonde with glasses in the photo and in the other that's about the only time I look that cute when I'm sleeping lol"
p1953
sS'ZHVWFAXLFPGX'
p1954
S'Apprentice Electrician'
p1955
sS'KCITTLMNWDAO'
p1956
S'Student  Cheerleader  My favourite things are Ice Hockey and Event Planning Twitter  JenIsabellaxx'
p1957
sS'NAWSIXAGSPWU'
p1958
S'Snapchat jadeboydxo'
p1959
sS'RVKIFYLOHARQ'
p1960
S'edinburgh uni student tottenham hotspur fan dog personi like good grammar and cheesey chatup lines'
p1961
sS'BKQQUFUIMZJO'
p1962
S"I'm a fucking punmeister Looking for a drinking partner  someone to take me to Rotato for a jacket potato "
p1963
sS'JBOYUNQHMMMG'
p1964
g26
sS'MIBKMECKDLIT'
p1965
S"Ideally looking for someone to make new memories with  chat friendship or maybe even moreSomething about meLoves outdoors exploring to read having a giggle snuggles history Not really sure what to make of Tinder Please say more than hi how are you As hello and I'm doing fine"
p1966
sS'CTZHUCHFJDHB'
p1967
S''
p1968
sS'WEUNIPZSFMGJ'
p1969
S'ft  and hate rude people '
p1970
sS'LFWEBALHWOZH'
p1971
S"I'm a fucking punmeister Looking for a drinking partner  someone to take me to Rotato for a jacket potato "
p1972
sS'JKCMXGLGVACQ'
p1973
g26
sS'LJCAMKQRDVJC'
p1974
g26
sS'JYFZIHXCMAGI'
p1975
S''
p1976
sS'ODEQIJQEVVXV'
p1977
S'Indian classical dancer who gets Marx'
p1978
sS'YRYJDIODFRMC'
p1979
S'E D I N B U R G HSnapchat jessmcgovernx'
p1980
sS'UVFIEAVRSAUM'
p1981
S'From EdinburghTechnical Theatre student in GlasgowEasy going and cheery but apparently  can be to honest for my own good sometimes'
p1982
sS'NJPDPMTAWCQB'
p1983
S'LivingstonEdinburghCurrently studying at Edinburgh College then hopefully off to Aberdeen Music television photography art travelling football  rugby sleeping writing  hope to one day live in Oz or the USA Add me on Snapchat if you want  krisberridgexo'
p1984
sS'MBZEPKXQFNTF'
p1985
S"Katie  Born and bread in North Yorkshire  I'm studying Anthropology at The University of Edinburgh I love music more than anything I drink a lot of tequila I am also a vegetarian  "
p1986
sS'KUVOPDENMKPW'
p1987
S'LOVE LIFELife isnt about waiting for the storm to pass its about learning to dance in the rain'
p1988
sS'KJTGOKNXWHTS'
p1989
S'German studying in the Netherlands on exchange in the UK'
p1990
sS'AYJNUTTDZDSG'
p1991
g26
sS'YRKSLJJKDJTI'
p1992
g26
sS'VVZGFINARMXG'
p1993
S'Edinburgh Uni  PE'
p1994
sS'AHRJESQNLPWF'
p1995
S'Instagram  eloiseevans '
p1996
sS'TVCJBKRELGAT'
p1997
S'Working full time No kids and I drive so no need for a chauffeur also the braces are gone now '
p1998
sS'XQTHGDROJIPE'
p1999
S''
p2000
sS'ILYCHIAEEMCB'
p2001
g26
sS'IDTOBQGXQNVG'
p2002
S'  Voluptuous fat  lazy recovering netflix junkie with an offensive sense of humour I like people I can laugh with my very existence is a joke I like gay barsDont tend to message first im shy like that PSnapchat bitchitsyasmine'
p2003
sS'MXSRCBGHULNG'
p2004
g26
sS'CBOKGSMWLCGZ'
p2005
g26
sS'DSTSSNPEWPNF'
p2006
S'studying art at college xox'
p2007
sS'HTBLSDRCMBUH'
p2008
S'Currently studenting in edinburgh '
p2009
sS'GMSANORAVJGD'
p2010
S'Illustration student at Edinburg uni'
p2011
sS'LWJMMMIPOCMA'
p2012
S'Music books traveling shitty s films '
p2013
sS'TSZBSNTUAXQI'
p2014
S'Edinburgh Uni  PE'
p2015
sS'XZKSFFLHIAFJ'
p2016
S'LondonEdinburgh Part time barmaid full time female UoE ArabicFrench'
p2017
sS'XIJPDPOGDEVM'
p2018
g26
sS'SWYKADSPWIKE'
p2019
S'French Just looking for a funny or interesting chat Maybe more according to the chat'
p2020
sS'TPJYWYLZNWQN'
p2021
S'Fife boxerfitness fanatic Instagram justinewaterston'
p2022
sS'XHNCIAUBLZBF'
p2023
S''
p2024
sS'ANVRRWVNTMRZ'
p2025
S"If I had a pound for every time someone asked me if my hair was naturally ginger I'd have nothing No one talks to me "
p2026
sS'QUDGAATJWZNC'
p2027
g26
sS'VBWPICUMCEZI'
p2028
S"I'm a fucking punmeister Looking for a drinking partner  someone to take me to Rotato for a jacket potato "
p2029
sS'LCDPVVIPSZAA'
p2030
S''
p2031
sS'VSNARKBCSTAJ'
p2032
S'Edinburgh student I like cheese and tequila Sometimes together '
p2033
sS'RQVJKCSZFYII'
p2034
S''
p2035
sS'SUMDIOUQGJQH'
p2036
S"I'm a fucking punmeister Looking for a drinking partner  someone to take me to Rotato for a jacket potato "
p2037
sS'WFHNYVPXIKXZ'
p2038
S'tattoos  piercingscatsTaylor Swift is God'
p2039
sS'MCKPVFIFDDON'
p2040
S"They call me gillette coz am the best a man can get Also I'll cut you I have tina turners name and date of birth tattood on me just coz I can dinny like her swipe left n dae us all a favour Kirlcaldy  instagram heatherritchieo"
p2041
sS'WJRXKKFWEGVD'
p2042
S'Nurse graduate RAF applicant Gym running kayaking Gin gin and more gin '
p2043
sS'IHESIHOAFGGF'
p2044
S'Events management student music lover and Disney enthusiast Living in the moment '
p2045
sS'IJYPNJECMJET'
p2046
S"I'm a fucking punmeister Looking for a drinking partner  someone to take me to Rotato for a jacket potato "
p2047
sS'CRMGPDNYEGDB'
p2048
S''
p2049
sS'TOHDWPVZKTOI'
p2050
g26
sS'JBETIJQHGSZD'
p2051
S'Date scenario take you out to laser tag proceed to be amazing win Celebratory drinks and bragging ruin all chances of second date Work hard sleep hard '
p2052
sS'JYNYIBXOSUTI'
p2053
S'Snapchat stephrobertsoon '
p2054
sS'OOZEMQJUFILV'
p2055
g26
sS'ERUTGGSEIJBA'
p2056
S'German Lives in Singapore moving to Edinburgh Hit me up '
p2057
sS'YERKVEFXJCCB'
p2058
S'probs taller than your fridge musically enthused DAMN THE MAN SAVE THE EMPIRE'
p2059
sS'AZUHPSNUHTAS'
p2060
S' University of Edinburgh for the year getting my MSc '
p2061
sS'XTEASPEOEORA'
p2062
S"Music  Mixtapes  Vibing  National Geographic  Landscapes  Tea  Morning Flavoured Lattes  Muffins  Netflix  Cinema  Yoga  ' "
p2063
sS'XHJSOGKYJVEZ'
p2064
S'photography student from fifequeen of shite chat up lines lover of gin and cheap wine need a man to get extremely drunk with me all the time '
p2065
sS'BORTXROGGMFL'
p2066
S"I'm like a lightbulb I light up the room when you turn me on and if you stand on me you'll end up in hospital"
p2067
sS'TBJKMUDXXHFW'
p2068
S'Illustration student at Edinburg uni'
p2069
sS'IIUDPJGVFVMB'
p2070
S'From italy Love photography Traveler '
p2071
sS'DEGXKNNJYRXP'
p2072
S"I literally love talking to people So anyone up for a chat please feel free to drop a message Can always hold a good conversation I'm the one in the middle Snapchat  dannlouu"
p2073
sS'FVIHHTBSZQVH'
p2074
g26
sS'RDWRYEMBUIQU'
p2075
g26
sS'TBHXILINUXMR'
p2076
g26
sS'SANWPZHTMLVZ'
p2077
S'Indian classical dancer who gets Marx'
p2078
sS'SJJMNSVWJLGZ'
p2079
S"I'm a fucking punmeister Looking for a drinking partner  someone to take me to Rotato for a jacket potato "
p2080
sS'HXJGYFIUDNUI'
p2081
S''
p2082
sS'XULQRSCMLPOT'
p2083
g26
sS'IREJVSGBSUYL'
p2084
S'Radiography student Edinburgh '
p2085
sS'LTXIKOXQWQVR'
p2086
S' Lifeguard'
p2087
sS'FJVXGHYWBMNX'
p2088
g26
sS'JALFFHFIORBF'
p2089
g26
sS'DPUOJFPETYCU'
p2090
S'PhD studentVeganFeministPansexualSapiosexual'
p2091
sS'PGBGGOTIRRGD'
p2092
S'ftinsta roachyx'
p2093
sS'YHDCLVPTEAMY'
p2094
S"I'm a fucking punmeister Looking for a drinking partner  someone to take me to Rotato for a jacket potato "
p2095
sS'GPOCBPRKTZHC'
p2096
S'GlasgowEdinburghStudying Civil Engineering at HeriotWatt '
p2097
sS'MHFYIVWRNIOE'
p2098
S' Kirkcaldy '
p2099
sS'WTGVLBMJHVKI'
p2100
S'From Edinburgh Dundee Uni'
p2101
sS'ZVMOPGKIEEKG'
p2102
S'Media  Communications studentExcellent banterVery short EdinburghIgnore all the Facebook likes I was  '
p2103
sS'EMTPAQZRGWOO'
p2104
S"I'm a fucking punmeister Looking for a drinking partner  someone to take me to Rotato for a jacket potato "
p2105
sS'DOMNVXBKXAIY'
p2106
g26
sS'IKULVWEHMHZZ'
p2107
S"I am DTF  Darn Tootin' Fun"
p2108
sS'NBVGNSXGNOVK'
p2109
g26
sS'TXQDRDDXJLYU'
p2110
S''
p2111
sS'ANLQGJPBPVUK'
p2112
S"I'm a fucking punmeister Looking for a drinking partner  someone to take me to Rotato for a jacket potato "
p2113
sS'BZKAZVSMRAZX'
p2114
S"I'm actually really cool "
p2115
sS'IEJQONSAVOYN'
p2116
S''
p2117
sS'FVESKFVEIGZP'
p2118
S'Edinburgh The less you reveal the more people wonder Insta gbrutherford'
p2119
sS'TONYPTBYNRIW'
p2120
S'Medic at Edinburgh Uni '
p2121
sS'UWSUOTQBQMBZ'
p2122
S''
p2123
sS'IXXKVOSFBSAP'
p2124
S'From italy Love photography Traveler '
p2125
sS'OWSDWYIVGHHG'
p2126
S'Studying in Edinburgh Belgian lived in Dubai Simply love traveling '
p2127
sS'EZFTFBYSPFLP'
p2128
S'ftinsta roachyx'
p2129
sS'NWUBQYEZGUIA'
p2130
S'Edinburgh '
p2131
sS'SEKXZCLQZPMP'
p2132
S"DogspeopleI'm the blonde less attractive one "
p2133
sS'PPTBEWZJPCAR'
p2134
S'NewcastleEdinburgh '
p2135
sS'FYSYKODVFJEU'
p2136
g26
sS'INRMCULDBKYG'
p2137
S'Edinburgh'
p2138
sS'CNUXDRZEUOFA'
p2139
S'Study in edinburgh Play korfball love to dance'
p2140
sS'CLXCQHVRLNOD'
p2141
S"I'm a fucking punmeister Looking for a drinking partner  someone to take me to Rotato for a jacket potato "
p2142
sS'KWUZLOWYIROM'
p2143
g26
sS'CBSJFEMWRSOM'
p2144
S'Business Student at the University of Edinburgh'
p2145
sS'RBQEOVMKLBXN'
p2146
S''
p2147
sS'GMTOGZRPQASL'
p2148
S'Edinburgh and AberdeenStudying a useless degree and I love it Apparently I look like the crescent moon emojiWe should hang out '
p2149
sS'QUDMBOISIBJT'
p2150
g26
sS'PQASHGIJYVIG'
p2151
S'Edinburgh'
p2152
sS'YRLAQZGSRTXS'
p2153
S"Acting student edinburgh if you don't like messy eaters then i'm not your gal "
p2154
sS'VOICJJSHIKWU'
p2155
S'I am a tea addict who dabbles in property '
p2156
sS'EKXNXBMZYFWW'
p2157
S'I work with dance Art cats feminism travels nature and all that stuff Home parties are usually better a night out BAM'
p2158
sS'YTCBWFBKKNPS'
p2159
S'Sport Science StudentEdinburgh'
p2160
sS'CWVVGIKEWJJX'
p2161
S' nd y UoE Will go on a date with a guy who knows how to work in CAD'
p2162
sS'PGPWHCDMXRFO'
p2163
g26
sS'ABZQQJHBNYLO'
p2164
S'A ridiculously sarcastic midget that loves beards '
p2165
sS'SVUMDSUGIPBA'
p2166
S'History student at Edinburgh University  '
p2167
sS'UFSXXTNXFXCX'
p2168
S"Dont expect me to jump into your bed cause you've swiped right im a lady not a whore "
p2169
sS'EUYEXJQWJPNU'
p2170
S''
p2171
sS'TFNYWFKXROMV'
p2172
S'Adult Nursing at Napier Yorkshire Gal'
p2173
sS'QTLDXJODHKSA'
p2174
S''
p2175
sS'DHEHWEIIGING'
p2176
g26
sS'WBCKPFQXQRGZ'
p2177
S''
p2178
sS'DHYDQITDPLEQ'
p2179
S"Trying out being an adult at the moment I've not killed anyone yet so I think it's going well I'm a nerd at heart spending my time watching movies and playing video games so trying to put off responsibility as long as I can I wish I could craft one of those epic 'about you' sections but I guess mediocrity will have to do "
p2180
sS'UGUGGVVUPHTV'
p2181
S'Plan on travelling the world and loving lifeThe position of handsome companion is open '
p2182
sS'ARFWETVLDADX'
p2183
g26
sS'OOBFKXLZFJYS'
p2184
S'Snapchat stephrobertsoon '
p2185
sS'OQFSMREVLHQM'
p2186
g26
sS'YENLTPSDIHXP'
p2187
S"I'm a fucking punmeister Looking for a drinking partner  someone to take me to Rotato for a jacket potato "
p2188
sS'FQERSQOQHCLV'
p2189
S'politics with stats student '
p2190
sS'HZIHJXIGGZEJ'
p2191
S"I don't have an inside laugh I always wish there was more gin and cats That's pretty much it "
p2192
sS'NAITJVMLEIQY'
p2193
S"I'm Grace  and I love sports Mostly going to the gym which I'm a tad obsessed with specifically powerlifting I love TV shows such as pretty little liars and the last ship My music taste varies but I like most musicChat to me if you want to "
p2194
sS'CMQQHAXHIHTA'
p2195
S"I'm a fucking punmeister Looking for a drinking partner  someone to take me to Rotato for a jacket potato "
p2196
sS'IYWONRKLHPKT'
p2197
S' not Snapchatt amylownieee '
p2198
sS'FVHZOTKYUKQE'
p2199
S''
p2200
sS'YIHMKUGHCBUJ'
p2201
S"Hi I'm Vicky  from Livingston Single but here to meet new friends  I am quite shy but when I get to know you more I come out of my shellIf you want to talk I'll try my best I love animals and I love anime manga  anything to do with Japanese culture I also like games Pokemon too   a good laugh My dream is to travel a lot see the sights  I am also quite a thrill seeker  always up to try something new Also love horror movies  theme parks very family orientated"
p2202
sS'CMZAYCEHOTTZ'
p2203
g26
sS'OVCKGTQVQTXC'
p2204
S"I'm a fucking punmeister Looking for a drinking partner  someone to take me to Rotato for a jacket potato "
p2205
sS'BJDYVAMBWIEJ'
p2206
g26
sS'JOLPEOXDFOEV'
p2207
S"Drama and Performance student at QMU I dream of having a pug one day Its the main goal in my life really The way to my heart is food literally any food and i'll be happy Twitter  Instagram sarahlbrownx"
p2208
sS'UVSFLPJDQPPM'
p2209
S'Interested in art tennis skiing and swimmingPug love is a necessityAnd a good sense of humour'
p2210
sS'OAHKZVXYBWYY'
p2211
S"I'm a fucking punmeister Looking for a drinking partner  someone to take me to Rotato for a jacket potato "
p2212
sS'POHUQELXAZJM'
p2213
g26
sS'QOZKQPSLAWIA'
p2214
S'Art student in Edinburgh'
p2215
sS'PKFOSXERZXCI'
p2216
g26
sS'JBJTJERCCNHV'
p2217
S'Studying Primary Teaching at Edinburgh uni '
p2218
sS'NHOCPRQKOANR'
p2219
g26
sS'IJYNEMTTHTJZ'
p2220
S'Borders girl currently in Edinburgh studying Health  Fitness Hoping to travel within the next year '
p2221
sS'ROAVOZWYBUQU'
p2222
g26
sS'RDVAJMQKICSK'
p2223
g26
sS'JPSIPDWJSSDB'
p2224
S"I'm a fucking punmeister Looking for a drinking partner  someone to take me to Rotato for a jacket potato "
p2225
sS'VTKNTEIIWKTZ'
p2226
S"I'm a fucking punmeister Looking for a drinking partner  someone to take me to Rotato for a jacket potato "
p2227
sS'QFBRRSHUNARF'
p2228
S'Edinburgh Rugby enthusiast with a serious case of wanderlust Gap year X   Insta elliedonaldson '
p2229
sS'ZIXZDIZSLCDN'
p2230
S"Charlie it's not short for anythingEdinburghSculpture "
p2231
sS'CLOIHWRHGDQE'
p2232
S"EdinburghNursery Practitioner I'm an easy going girl who enjoys meeting new people I enjoying spending time with friends and prefer to be busy when I'm not busy at work I'm either at the gym with mates or enjoying a good movie Looking for a date "
p2233
sS'JEMTCCVPACHI'
p2234
S'Edinburgh uniBusiness studentPart time receptionist Love sports and trying new things '
p2235
sS'DEYOFGVCNVAM'
p2236
S"Scotland fife also not  I'm  Anger jealousy bitterness tiredness hope lust love It is everywhere It is conceptual You just cannot see it"
p2237
sS'TWHICPPEETEC'
p2238
S"I'm a fucking punmeister Looking for a drinking partner  someone to take me to Rotato for a jacket potato "
p2239
sS'QAQJJBUWKTVZ'
p2240
g26
sS'XZAIWKKXPCES'
p2241
g26
sS'LAGPDQBDBGYT'
p2242
S"Down to earth designer looking for a like minded person Funny banter and intolerant of rude people From Newcastle but in Edinburgh most of my time studying at uni  Enjoy lifting heavy items and looking after myself So tell me what's your talent "
p2243
sS'GTYVCZLMLXIO'
p2244
g26
sS'HUNCLKQXMVKK'
p2245
S''
p2246
sS'COREZWWRSANS'
p2247
S''
p2248
sS'VJJSOCOPNGJZ'
p2249
S'Spent my summer living in Spain'
p2250
sS'JVSOYQDGVKXF'
p2251
S'Business student at Edinburgh UniversityFrom Manchester'
p2252
sS'MJMUOQNECESF'
p2253
S'nd year design student living in Edinburgh from Glasgow  love an adventure friends and gin'
p2254
sS'MBHMBAQIHCMD'
p2255
S"I'm a fucking punmeister Looking for a drinking partner  someone to take me to Rotato for a jacket potato "
p2256
sS'NMWVWKRMMQYW'
p2257
S'Economics student at University of Edinburgh'
p2258
sS'MPNJMYHEHPAV'
p2259
S'Edinburgh girl '
p2260
sS'HDPUZFXBBPEY'
p2261
S'Looking for my Chuck Bass '
p2262
sS'ZGRMUINUULIH'
p2263
S"'Death is just life's next adventure'Food naps alcohol and rugby keep me happy snapchat  lauradickson"
p2264
sS'MSBEQCSNJDOC'
p2265
S"I'm a fucking punmeister Looking for a drinking partner  someone to take me to Rotato for a jacket potato "
p2266
sS'HWKPUKHHJBFR'
p2267
S'Apprentice Electrician'
p2268
sS'HUBXRURXDMYB'
p2269
g26
sS'GSQQRGNASRUY'
p2270
S'Just Gin and bear it  DStudentEvents management  Not afraid to say hi first Genuinely nice '
p2271
sS'GGJLRDCLQOAH'
p2272
S'Events management student music lover and Disney enthusiast Living in the moment '
p2273
sS'MBXQHEAPPOMD'
p2274
S"I'm a fucking punmeister Looking for a drinking partner  someone to take me to Rotato for a jacket potato "
p2275
sS'IYNUUANAEIEE'
p2276
S''
p2277
sS'XFBZCFEDUXBU'
p2278
g26
sS'ZRKWZULMBGGQ'
p2279
g26
sS'JQSBRIVOBFOP'
p2280
S"I don't have a witty bio hmu if you wanna talk  I might look scary but I promise I'm not Art and design student sharper than any other edge known to man"
p2281
sS'JJNGGHJPJIGA'
p2282
g26
sS'LYNCQKPCMGFY'
p2283
S"Charlie it's not short for anythingEdinburghSculpture "
p2284
sS'SFOCBZMSZWMH'
p2285
S"if you have a sense of humour tattoos love coffee and music you're already halfway there  singerproducer  From Hong Kong "
p2286
sS'GFPZLGNUUDSN'
p2287
S''
p2288
sS'QEIIMIHYULLD'
p2289
S'GlasgowEdinburgh '
p2290
sS'OLBOJORANIKZ'
p2291
S"I'm a fucking punmeister Looking for a drinking partner  someone to take me to Rotato for a jacket potato "
p2292
sS'ELIQVVJYWAOK'
p2293
g26
sS'LIRQVFROJBKD'
p2294
g26
sS'BOLEPHZPSOZO'
p2295
S''
p2296
sS'AXBQHWVULSWE'
p2297
g26
sS'ZJINCLDGDNLC'
p2298
S'Study in edinburgh Play korfball love to dance'
p2299
sS'GXHSOFFOSJRN'
p2300
S'Edinburgh Snapchat  nevadaxFacebook  Nevada Fitzner '
p2301
sS'KCREIBDNVEPU'
p2302
S'I like a good pair of balls'
p2303
sS'QORPSGSTLBZF'
p2304
S"I'm a fucking punmeister Looking for a drinking partner  someone to take me to Rotato for a jacket potato "
p2305
sS'XPSWHFUOZJSH'
p2306
g26
sS'KCNGENRGZKLT'
p2307
S'Katiebooobaaaby  '
p2308
sS'YAJYTWGCXNBS'
p2309
S' Edinburgh '
p2310
sS'ZLQBQLWSEFRI'
p2311
S' loves Netflix any kind if music art books and moviesFrom the isle of Lewis originally but moved to Edinburgh to study Criminology at Napier universityTraditional Gaelic singer'
p2312
sS'DUQFLJAWHGUR'
p2313
S'Instagram  mdrummond '
p2314
sS'XELWGGKJHKFL'
p2315
S'Beauty therapist Snapchat  joannapullar Instagram  joannajoyy'
p2316
sS'JEDFTCGJPXAR'
p2317
S' '
p2318
sS'SYKAFAVZHIBJ'
p2319
g26
sS'ECUBFZEIETGU'
p2320
S"I'm a th year student in edinburgh  I love travelling and sports As Lorelei would say I stop drinking coffee I stop doing the standing and walking and the wordsputtingintosentence doingI will always cheer for Germany or Bayern Munich in football so don't try to convince me otherwise and yes football not soccerNo I am not on tinder for one nightstands so you might as well swipe left"
p2321
sS'JMCHHQLPEMLE'
p2322
S''
p2323
sS'MSHLIUKLUGRB'
p2324
S'Psychology PhD student From Edinburgh living in London Music lover'
p2325
sS'LQCNROVOOXSO'
p2326
S'Edinburgh Uni PE teaching Dive coach too '
p2327
sS'JBKMILWDPKNK'
p2328
S"snapchat amyproud Instagram amyyproud I'm actually  just Facebook doesn't let me change itMost likely won't talk first "
p2329
sS'TLTLQSQOOJIY'
p2330
g26
sS'QWHKWLVMEWFS'
p2331
S"Edinburgh Eng Lit student and waitress I read lots of books and try not to throw wine all over people with mixed success ' "
p2332
sS'EXQTUKGOKXEM'
p2333
S''
p2334
sS'ODWLYZFLTTIT'
p2335
g26
sS'RHYCCWOYSQOY'
p2336
S'I jump out of bed in the morning and promptly turn my swag on '
p2337
sS'SHFOVGMVXNDK'
p2338
S'          s     Just moved to Newcastle to start my internship  Love skiing filmsbeing outdoors and I never say noto a party x'
p2339
sS'TCUJXSEXMOVE'
p2340
g26
sS'FRRJDTGPDTXZ'
p2341
S"I'm a fucking punmeister Looking for a drinking partner  someone to take me to Rotato for a jacket potato "
p2342
sS'GIKZRFZEUBMJ'
p2343
S'Liverpool  EdinburghStudent NurseTea addictParty girl'
p2344
sS'JGJGJLKCNRXS'
p2345
g26
sS'BPOLBTZICUTY'
p2346
S'Snapchat  jimmyjamjew '
p2347
sS'DZWNXHPZDZLU'
p2348
g26
sS'FVQBGFVYFAZK'
p2349
S'Edinburgh '
p2350
sS'MHVQSUGZEIPM'
p2351
g26
sS'HCHKLEFYQKKL'
p2352
g26
sS'ZEGAWZYLPJJK'
p2353
g26
sS'TQNUQRKVKEQJ'
p2354
S'Acting student living in Edinburgh Massive nerd and cat lover who owns dogsI get confused when people put their heights here'
p2355
sS'KMEHXHQBEZGT'
p2356
S"All you fellas listing your height tattoo status and beard status so I thought I'd do the same to ensure we're on the same page Yah I have tattoos No I can't grow a beard Brewdog anyone"
p2357
sS'LNVRGHBJJKTO'
p2358
g26
sS'BFMWQTUHTSJT'
p2359
S'born on August rd which makes me  LEO Vocally trained Music is my everything InkedInk obsessed Gamer girl Spontaneous Loves walks food excersise lazy days Dog called Charlie Snake called Binx Works as a carer Lives in Dunfermline English girl Looming for datingrelationship Creeps weirdos full of themselves guys need not apply If we match send a message other then just hey  '
p2360
sS'OZOYZEJJFGPL'
p2361
S'I study psychology at the University of Edinburgh and I like skiing and hiking Also enjoy reading pretty much anything scifi and too many tv series'
p2362
sS'SQPORTAXSSZW'
p2363
S"I'm a fucking punmeister Looking for a drinking partner  someone to take me to Rotato for a jacket potato "
p2364
sS'RXWBHUALCEGS'
p2365
S'Plan on travelling the world and loving lifeThe position of handsome companion is open '
p2366
sS'OKKQQKNYFFTT'
p2367
S"Travel obsessed pierced and inked After working in Romania Madagascar and Nepal I'm spending some time at home in Edinburgh to focus on my dance career and work out what the hell I'm doing with my life If you've heard of The LaFontaines we can probably be friends"
p2368
sS'ASBIMVZPERSR'
p2369
g26
sS'IUYHHVOQITBD'
p2370
S"I'm a fucking punmeister Looking for a drinking partner  someone to take me to Rotato for a jacket potato "
p2371
sS'EMYVWYRZUVMT'
p2372
S'th year Zoologist at Edinburgh Uni A man who dares to waste one hour of time has not discovered the value of life'
p2373
sS'ZGOPLQIKXLKY'
p2374
S' '
p2375
sS'JFXBJPINQKZS'
p2376
S"I'm a fucking punmeister Looking for a drinking partner  someone to take me to Rotato for a jacket potato "
p2377
sS'GFGVEXVPDOUJ'
p2378
S''
p2379
sS'JNPLOJESZYEN'
p2380
g26
sS'EDMCAMLJIRAG'
p2381
S' Accountancy graduate Live in Dunfermline work in Edinburgh as trainee tax accountant Disney Marvel and FIFA '
p2382
sS'DWUHRIIUZFKJ'
p2383
S'First year psychologysociology studentOriginally from Leeds England Always up for a laugh playing on Xbox or binge watching Netflix Also enjoys attempting to play the drums Feel free to say hello and message first '
p2384
sS'AXPMJBKEAGJS'
p2385
S"If you don't like sarcasm don't bother "
p2386
sS'DWUIPGNOQWIA'
p2387
S''
p2388
sS'SNJFOROUPQLI'
p2389
g26
sS'CSPTOMFYHWYQ'
p2390
S"Originally from Wales I'm a keen traveller coffee shop frequenter and rugby enthusiast I regularly attempt to cook and am trying to learn French"
p2391
sS'XZXMRLMJSRAT'
p2392
S'I need a writer friend apply within'
p2393
sS'TCLOAJFUGLPI'
p2394
S'Snapchat xmorganxInstagram xmorganxDunfermlineEdinburgh Scotland Nursing student at Edinburgh Napier university '
p2395
sS'MVVCETTRQVNQ'
p2396
S' fife '
p2397
sS'IFGRNSQBGEVI'
p2398
g26
sS'KOZCTBLAYXOT'
p2399
S'French student  Internship in Edinburgh for  months'
p2400
sS'TZDJMMNAPVVA'
p2401
S'Farming girl    Snapchat  laurenlmoore '
p2402
sS'HGSWYOCRPJZS'
p2403
g26
sS'FKJYMPMCPJVO'
p2404
S"Scotland fife also not  I'm  Anger jealousy bitterness tiredness hope lust love It is everywhere It is conceptual You just cannot see it"
p2405
sS'XOZGBSEQCBPN'
p2406
S"Loves to paint act and sing can't be bothered to make money outta them If you can't handle tattoos you can't handle me Rather dislike beards love tall tall guys and any height of girl Dying of the flu at the moment so I can appreciate the type of Netflix and chill where you feed me soup "
p2407
sS'PCDJVHRMMYFM'
p2408
S'EdinburghStranraer'
p2409
sS'KOFGKXRWHPXI'
p2410
S"I'm a fucking punmeister Looking for a drinking partner  someone to take me to Rotato for a jacket potato "
p2411
sS'UDKSQZASSRZV'
p2412
S'Instagram kirstinsands'
p2413
sS'QTYBVLRCKVUX'
p2414
S'Kenyan in Edinburgh Looking for some good chat '
p2415
sS'YXQDTBEMMSQP'
p2416
S'If your looking for a fuck about then just swipe left  '
p2417
sS'BQAZJMCBRLAR'
p2418
g26
sS'CXMANQXSVZCE'
p2419
g26
sS'GRUXTEJOVOZO'
p2420
g26
sS'GBZOPEZNMUDX'
p2421
S'Kenyan in Edinburgh Looking for some good chat '
p2422
sS'QSZEWPHLFUNI'
p2423
S"The goat on the rightWill always ask the DJ to play Kate Bush KNOPE As in 'nope keep swiping' but also Leslie KnopeBonus fact bigger than a monkey but smaller than most people"
p2424
sS'VEYPFXWOBQJZ'
p2425
S' '
p2426
sS'WHHXUWKRVMXI'
p2427
g26
sS'DWKBQATCQHAP'
p2428
g26
sS'PVSVPNCNKQTF'
p2429
g26
sS'VKBYDJQMUPBZ'
p2430
g26
sS'ZPIDJCIZAOVG'
p2431
S'Irish studying in QMU EdinburghHi or hey will guarantee reluctance to reply Instagram  ciaramurray'
p2432
sS'BHSREMBASUEZ'
p2433
S''
p2434
sS'ZFGOSAGAAFZZ'
p2435
g26
sS'XGYCLKSGAOQG'
p2436
S'EdinburghStudying Nutrition and Food Science at QMUPlay rugby for Lismore WRFC '
p2437
sS'EVGSQFGPJJOS'
p2438
S"I'm new in Edinburgh and just want to meet new people "
p2439
sS'XICHXDHBHXTQ'
p2440
g26
sS'LAFAKWPUUWDS'
p2441
S"Student vet nurse and work on the farm when I'm not at uni"
p2442
sS'AGQAHZGQJIGZ'
p2443
g26
sS'UHGOVNTFRZPE'
p2444
g26
sS'USBTRQHWUWGJ'
p2445
S'Live on a farm in the middle of nowhere Fitness and game of thrones enthusiast with a mild peanut butter addiction Enjoy skiing baking weights training and attending young farmers shindigs If you dont appreciate a good game of monopoly we cant be friends  instagram emilynimmo facebook Emily Nimmo '
p2446
sS'YKEMXGJBNTGN'
p2447
g26
sS'CSUKAGLADXDH'
p2448
S'Hit me up for fun and games xx'
p2449
sS'YGRHMHJXHAMZ'
p2450
S'student at HWU music and theatre lover singer and musician film fanatic globetrotter tattoo enthusiast can be quite a smartarse should you ever need oneThere is no i in TEAM but there is an i in PIE'
p2451
sS'WUGODMTNHLAN'
p2452
S'Studying chemical physics at Edinburgh uni Bilingual and love to travel for real though'
p2453
sS'GSLKZOHCIOCN'
p2454
g26
sS'XCQODUVAOYXB'
p2455
S"I'm a fucking punmeister Looking for a drinking partner  someone to take me to Rotato for a jacket potato "
p2456
sS'RBGYAOAUHOCW'
p2457
S'whoreforfoodI want noods not nudes'
p2458
sS'GIBVIRLDPJFY'
p2459
g26
sS'HZRGKWNIYYPZ'
p2460
g26
sS'LQXHAZIOHQOC'
p2461
S'Bsc Hon in physics Back in Edinburgh after a year teaching in ShanghaiI missed Percy Pigs a lot Peanut butter NCIS and Jumpers'
p2462
sS'LFQIZTPHUMAQ'
p2463
S"I'm a fucking punmeister Looking for a drinking partner  someone to take me to Rotato for a jacket potato "
p2464
sS'KBMOPLXIUIMW'
p2465
g26
sS'IRYNKIPPPYRI'
p2466
S'Studying in Edinburgh Belgian lived in Dubai Simply love traveling '
p2467
sS'TJPEEQRCMHVH'
p2468
g26
sS'WNASVDUUWVHN'
p2469
S'Ig sofiaellenadolfina snap sofiadolfina floorball'
p2470
sS'SPOYDYNYKSYA'
p2471
S'First year maths student Idk how to write an appealing bio so I guess u just gotta judge me by my face'
p2472
sS'QDNRXMTXFUCA'
p2473
S"Hi  I'm nd year at Edinburgh uni studying German and History would love to meet someone I could speak German with I love to dance Lindy hop Balboa and Blues  I am intelligent feminist and love to talk music and history as well as general randomness Think Asdf and Monty Python"
p2474
sS'YLUXJCCFLXNB'
p2475
S"I'm a fucking punmeister Looking for a drinking partner  someone to take me to Rotato for a jacket potato "
p2476
sS'QAAIAXFMHJPW'
p2477
S'Studying architecture at Edinburgh university Love to travel Big fan of silliness Terribly English Should never be allowed to drink at lunch'
p2478
sS'MDNIHHZDEWHU'
p2479
g26
sS'ZJBNGAXPTWMP'
p2480
S'Studying at Edinburgh for the semester'
p2481
sS'YXEFCZCEGGPL'
p2482
S''
p2483
sS'BPKILUFWMSOJ'
p2484
g26
sS'VZOLIDJPKKPH'
p2485
S'I work with dance Art cats feminism travels nature and all that stuff Home parties are usually better a night out BAM'
p2486
sS'HTPPSRMMOWNV'
p2487
g26
sS'QCIFUVPUDSFD'
p2488
S'snapchat  prettylittleem Instagram  emmajohnston dancer masseuse '
p2489
sS'KFEHVIQDQPJZ'
p2490
g26
sS'EHWWTEIDAHBH'
p2491
S'media student at qmu  full time alcohol enthusiast '
p2492
sS'DCZKRTXLETTL'
p2493
S"I'm a fucking punmeister Looking for a drinking partner  someone to take me to Rotato for a jacket potato "
p2494
sS'WKTYFGYGHNOI'
p2495
S"Just an American girl livin' in an Edi world Yeah I usually make bad jokes "
p2496
sS'VUTLGWNUSZGM'
p2497
S"I'm a fucking punmeister Looking for a drinking partner  someone to take me to Rotato for a jacket potato "
p2498
sS'EWMHLNHUHUHB'
p2499
S"studying abroadfrom LA Environmental Engineering ' talk nerdy to me "
p2500
sS'WBNOAOVUGBNI'
p2501
g26
sS'UOHHGWPMNRMU'
p2502
S'insta  nateilatan'
p2503
sS'UPJMOGSGOVWI'
p2504
S'Welsh girl usually based in Edinburgh work in marketing gym promotions constantly travelling Work between US and UK'
p2505
sS'MPSRCZTPFONY'
p2506
g26
sS'DGSASWZGRCPL'
p2507
S'nd year design student living in Edinburgh from Glasgow  love an adventure friends and gin'
p2508
sS'RXNRKMOXYBEQ'
p2509
g26
sS'GIXJBHDLJPLR'
p2510
S'An English girl living in Scotland and studying PhilosophyPolitics at Edinburgh nd yearYorkshire born'
p2511
sS'RSZSZIEMWJEQ'
p2512
S"I'm a fucking punmeister Looking for a drinking partner  someone to take me to Rotato for a jacket potato "
p2513
sS'RQMQOSRBJDIC'
p2514
S'Sport and exercise student Stirling uni '
p2515
sS'YMXCICNQAJNW'
p2516
S"Hi  I'm nd year at Edinburgh uni studying German and History would love to meet someone I could speak German with I love to dance Lindy hop Balboa and Blues  I am intelligent feminist and love to talk music and history as well as general randomness Think Asdf and Monty Python"
p2517
sS'PXBKKNFLCUFL'
p2518
S'Books   films  Netflix  walks  museums  galleries  teacake  baking'
p2519
sS'TAXQAXNPECDZ'
p2520
S'Add me on snap chat Emms '
p2521
sS'YDCIJLYRAREI'
p2522
S'Live in Edinburgh Snapchat shannonrileyInstagram shannonriley'
p2523
sS'BJETKWWDUQXU'
p2524
S"If I had a pound for every time someone asked me if my hair was naturally ginger I'd have nothing No one talks to me "
p2525
sS'IBHYIBNEPTSB'
p2526
S"I'm a th year student in edinburgh  I love travelling and sports As Lorelei would say I stop drinking coffee I stop doing the standing and walking and the wordsputtingintosentence doingI will always cheer for Germany or Bayern Munich in football so don't try to convince me otherwise and yes football not soccerNo I am not on tinder for one nightstands so you might as well swipe left"
p2527
sS'LUGKFGJXMASA'
p2528
S"I'm a fucking punmeister Looking for a drinking partner  someone to take me to Rotato for a jacket potato "
p2529
sS'FSVQBCDNCMMJ'
p2530
S''
p2531
sS'YLZDPDUCXGXB'
p2532
S'I like dogs more than people'
p2533
sS'OKIASONVZGZS'
p2534
g26
sS'BVAMVXGUASNZ'
p2535
g26
sS'ZJUEQTFBSHWT'
p2536
g26
sS'ADZETNFRRIRG'
p2537
S'Book nerd and coffee snob  Fun friendly and full figuredor fat depends if you want to sugar coat it or not either way I am who I am Positively Honest'
p2538
sS'UESJIQQZJJBE'
p2539
S''
p2540
sS'LGFEMWKMAWPP'
p2541
S"Not   next month lolJust on here to speak to people at the moment really unwell just now and anything more really doesn't interest me sorry to be a bore"
p2542
sS'PSNTXRXUKOHQ'
p2543
S''
p2544
sS'OGFKSZNGUBAI'
p2545
S'RGU graduate new to Edinburgh '
p2546
sS'IOZYYHTWXJMC'
p2547
g26
sS'DYNLLLFOQSLE'
p2548
g26
sS'FIIZBEXPAUWW'
p2549
g26
sS'GEGCMTOFRFWD'
p2550
S"I'm a fucking punmeister Looking for a drinking partner  someone to take me to Rotato for a jacket potato "
p2551
sS'SYWSLXDIEDGX'
p2552
S"Just an American girl livin' in an Edi world Yeah I usually make bad jokes "
p2553
sS'WUVDLEJJGCBH'
p2554
S"I'm a fucking punmeister Looking for a drinking partner  someone to take me to Rotato for a jacket potato "
p2555
sS'STUQIAOSDIYG'
p2556
S'Working full time No kids and I drive so no need for a chauffeur also the braces are gone now '
p2557
sS'SPBBKRFRFOTC'
p2558
S"I'm a fucking punmeister Looking for a drinking partner  someone to take me to Rotato for a jacket potato "
p2559
sS'JQWLSAVZHRRM'
p2560
S"My busyness is to create Doesn't even matter what  "
p2561
sS'JXHUMHBOKHAN'
p2562
S" Irish  and Living in Edinburgh accept the the things you can't changebe brave to change the things you canand be wise to know the difference"
p2563
sS'DJQSSFMPOZJB'
p2564
S"I'm a fucking punmeister Looking for a drinking partner  someone to take me to Rotato for a jacket potato "
p2565
sS'LUNUHBHBIIHL'
p2566
g26
sS'GDVSCYWLIBGH'
p2567
S'snapchat claudiamoran'
p2568
sS'EEQEIKJGFNAI'
p2569
g26
sS'HVYXSEGPSAEW'
p2570
g26
sS'SLXXFIVIWOAB'
p2571
S"I'm the type of girl who gets a tattoo and finds out it's a Jonas Brothers song three minutes laterWork at Boots I want to go to places I'd never dream of going to "
p2572
sS'RETPLSKVUOTI'
p2573
S' '
p2574
sS'EUEQBZELUNLF'
p2575
S'student at HWU music and theatre lover singer and musician film fanatic globetrotter tattoo enthusiast can be quite a smartarse should you ever need oneThere is no i in TEAM but there is an i in PIE'
p2576
sS'CTCKUOCEIEQP'
p2577
S'Snapchat chanteelleex '
p2578
sS'ZTKAUTAILRJV'
p2579
S'LivingstonEdinburghCurrently studying at Edinburgh College then hopefully off to Aberdeen Music television photography art travelling football  rugby sleeping writing  hope to one day live in Oz or the USA Add me on Snapchat if you want  krisberridgexo'
p2580
sS'JZWYPPJKFOAI'
p2581
S'Just meeting new people Nothing more nothing less '
p2582
sS'TJQSXWTBUEWM'
p2583
S"Lover of puns and good literature st year English Language and Literature at Uni of Edinburgh  I live off folkindie rock and dancing wildly to whatever I'm listening to I enjoy embarrassing my friends by dancing in public I also review artsy things and have a strong penchant for Internet shopping"
p2584
sS'AUOVHVABUCTH'
p2585
S'GlasgowEdinburgh '
p2586
sS'HXVJWJYSVXZX'
p2587
S"I'm a fucking punmeister Looking for a drinking partner  someone to take me to Rotato for a jacket potato "
p2588
sS'MCFHIVEROUVH'
p2589
g26
sS'VKTMHMVJSQRA'
p2590
g26
sS'IUTDSQDXKFJN'
p2591
S'Edinburgh Uni PE teaching Dive coach too '
p2592
sS'HCRMHMPNHDUL'
p2593
S'Student  Cheerleader  My favourite things are Ice Hockey and Event Planning Twitter  JenIsabellaxx'
p2594
sS'JNQGDMGITAKW'
p2595
S' Fife If we match send me a message Instagram kirstenhamilton'
p2596
sS'HCGGJQMETMCL'
p2597
S''
p2598
sS'INPPLBTNLEQL'
p2599
S'AllanaEdinburgh Scotland UKWork travel play Snapchat allanaxxInstagram makeupallana'
p2600
sS'KVONIALDXOFN'
p2601
S"I'm a fucking punmeister Looking for a drinking partner  someone to take me to Rotato for a jacket potato "
p2602
sS'CXFJUVWTTFAW'
p2603
S"I don't have an inside laugh I always wish there was more gin and cats That's pretty much it "
p2604
sS'QHSJGYLZMLHA'
p2605
S''
p2606
sS'QCFZGSKXLSWJ'
p2607
S"I'm a fucking punmeister Looking for a drinking partner  someone to take me to Rotato for a jacket potato "
p2608
sS'HNLHFBHLQRPG'
p2609
S''
p2610
sS'DTNCGXEJQAXF'
p2611
S"I'm a fucking punmeister Looking for a drinking partner  someone to take me to Rotato for a jacket potato "
p2612
sS'FZAJZXZBBMDM'
p2613
S' interested in human rights law and studying at UoE '
p2614
sS'BEAUUJWHVNXO'
p2615
S''
p2616
sS'NCFKZJYOSBWW'
p2617
S''
p2618
sS'ARLSIWEDNXQB'
p2619
S'Snapchat samhadden '
p2620
sS'GVORHEIZWDQI'
p2621
S"I'm a fucking punmeister Looking for a drinking partner  someone to take me to Rotato for a jacket potato "
p2622
sS'QVUFWHMLKFWN'
p2623
g26
sS'GGZTYKMSZTUA'
p2624
S"Call me on    I study history so I'm great with dates "
p2625
sS'OWAAGZNOBOVR'
p2626
S"Edinburgh Law GraduateJack Daniels enthusiast' on a good hair dayHobbies include trying to get less awful at guitar and watching disney movies in the bathInstagram ines"
p2627
sS'GBTFBMETHIAA'
p2628
S'Student Edinburgh'
p2629
sS'TKUTRQOHDKRK'
p2630
S'Studying business in edinburgh'
p2631
sS'VAQBTDEUEDRP'
p2632
S'A firm believer that hangovers should not be dealt with aloneGeordie girl '
p2633
sS'TOYDNWPIZAFH'
p2634
S'Edinburgh Allergic to cats and bullshit Please give me none '
p2635
sS'TJLHVQLGDYND'
p2636
S'Yvonne tes bonneUSA to UK '
p2637
sS'GFLPZEJBRNML'
p2638
S"I'm a fucking punmeister Looking for a drinking partner  someone to take me to Rotato for a jacket potato "
p2639
sS'WCQGEDJWJDUE'
p2640
S' Illustration student Foodie Guernsey  Singapore Living in Edinburgh  '
p2641
sS'NBARSETXVLZX'
p2642
S"I'm a fucking punmeister Looking for a drinking partner  someone to take me to Rotato for a jacket potato "
p2643
sS'FODAAYZQTHAC'
p2644
S"Not   next month lolJust on here to speak to people at the moment really unwell just now and anything more really doesn't interest me sorry to be a bore"
p2645
sS'FKFVSLDZUIWI'
p2646
S''
p2647
sS'DBCMKHQWNOQZ'
p2648
S''
p2649
s.