(dp0
S'HXYONSNQBNQI'
p1
S'Looking for friends and more than friends Feeling lonely far from homeIf you love long walks in the park or in the beach The women for you is not only for sex When swipe right and meet up  xx'
p2
sS'GWQKAPTUPQJW'
p3
S''
p4
sS'ZFTAMZYQEVPD'
p5
S'Snapchat  libsnedxInstagram  libsnedTwitter  libsned'
p6
sS'HEVLTPZZMRPN'
p7
S"I'm a fucking punmeister Looking for a drinking partner  someone to take me to Rotato for a jacket potato "
p8
sS'GBYAKHRDVEIT'
p9
S"My mum thinks I'm cool"
p10
sS'QZSATJUEPQTE'
p11
S''
p12
sS'JIROQLGAWADC'
p13
S"I identify with Spinelli from Recess on a spiritual level and I'm shamelessly emotionally attached to my bike Also my name is Zo but Tinder apparently can't handle diacritics What a shame "
p14
sS'LKTRCCVRXITA'
p15
S"Stirling Uni  If you are reading this I am metaphorically smiling at you  Go smile at someone else now  it will make their day  I love Marvel films Let's build a pillow fort "
p16
sS'RPGPJNAKVJZW'
p17
g12
sS'JEMTCCVPACHI'
p18
S'Edinburgh uniBusiness studentPart time receptionist Love sports and trying new things '
p19
sS'HTBLSDRCMBUH'
p20
S'Currently studenting in edinburgh '
p21
sS'ZLWVUAOVBBZP'
p22
S"I'm really fun honest I like holidays elephants crisps and wine "
p23
sS'FEFDQBDBCLBO'
p24
S"I'm a fucking punmeister Looking for a drinking partner  someone to take me to Rotato for a jacket potato "
p25
sS'GMSANORAVJGD'
p26
S'Illustration student at Edinburg uni'
p27
sS'OTWOJVQILZYT'
p28
S"I'm a fucking punmeister Looking for a drinking partner  someone to take me to Rotato for a jacket potato "
p29
sS'PGQWROLCIKHH'
p30
S'I like long romantic walks to the bar'
p31
sS'MPEOTOXPBEEV'
p32
S"All you fellas listing your height tattoo status and beard status so I thought I'd do the same to ensure we're on the same page Yah I have tattoos No I can't grow a beard Brewdog anyone"
p33
sS'MBLUPIIQRZHL'
p34
S'Banter '
p35
sS'WEUNIPZSFMGJ'
p36
S'ft  and hate rude people '
p37
sS'LCWQPZXPKJGY'
p38
S'english lit studenti like people places and thingsthe kind of girl you could take home to meet your parents until your dad inevitably leaves your mum to be with me instead '
p39
sS'LFCCNMYQNRNQ'
p40
S'Books   films  Netflix  walks  museums  galleries  teacake  baking'
p41
sS'SHFOVGMVXNDK'
p42
S'          s     Just moved to Newcastle to start my internship  Love skiing filmsbeing outdoors and I never say noto a party x'
p43
sS'TSZBSNTUAXQI'
p44
S'Edinburgh Uni  PE'
p45
sS'XZKSFFLHIAFJ'
p46
S'LondonEdinburgh Part time barmaid full time female UoE ArabicFrench'
p47
sS'XIJPDPOGDEVM'
p48
g12
sS'CZVAPKYSPZUV'
p49
g12
sS'OMTWSISMFSRM'
p50
S'Civil Engineering student'
p51
sS'CLDQSOWOPLMV'
p52
S"I'm a fucking punmeister Looking for a drinking partner  someone to take me to Rotato for a jacket potato "
p53
sS'WBJXLMKCAVUY'
p54
S"Love the life you live  from Edinburgh Love tattoos and piercings Anything you want to know just ask Snapchat meganmclayDon't be afraid to message me first "
p55
sS'UJVYRYMYAVHA'
p56
g12
sS'POVPPCVVEXTA'
p57
g12
sS'QOZVLRWVOBQO'
p58
S"if you have a sense of humour tattoos love coffee and music you're already halfway there  singerproducer  From Hong Kong "
p59
sS'YSTCYWFLENNM'
p60
S'Staff nurse Voice of the Corran FerryI like caramel lattes and Paolo Nutini '
p61
sS'XHNCIAUBLZBF'
p62
S''
p63
sS'OYYPODLKFTBK'
p64
S'ft  and hate rude people '
p65
sS'ANVRRWVNTMRZ'
p66
S"If I had a pound for every time someone asked me if my hair was naturally ginger I'd have nothing No one talks to me "
p67
sS'QUDGAATJWZNC'
p68
g12
sS'EFCBIUEGLSHJ'
p69
S'Liverpool  EdinburghStudent NurseTea addictParty girl'
p70
sS'VBWPICUMCEZI'
p71
S"I'm a fucking punmeister Looking for a drinking partner  someone to take me to Rotato for a jacket potato "
p72
sS'FHWTHZDOZOFB'
p73
g12
sS'LCDPVVIPSZAA'
p74
S''
p75
sS'VSNARKBCSTAJ'
p76
S'Edinburgh student I like cheese and tequila Sometimes together '
p77
sS'RQVJKCSZFYII'
p78
S''
p79
sS'RWRNWBLTBXNZ'
p80
S'American studying in Edinburgh '
p81
sS'IPWIHVFNZKME'
p82
S'Am kidding '
p83
sS'BPJKLYPTQULC'
p84
S'History of Art Edinburgh '
p85
sS'SDNKVFTKYXAC'
p86
g12
sS'FUORFXZOPHJJ'
p87
S''
p88
sS'HHJDDIUONKCK'
p89
S'Leeds  EdinburghBiological sciences studentMeat free I like travelling n being in the sea '
p90
sS'FZMFAHGKMBEZ'
p91
S' nd year actuarial student at HW  '
p92
sS'WFHNYVPXIKXZ'
p93
S'tattoos  piercingscatsTaylor Swift is God'
p94
sS'TRTZAJQTFTKZ'
p95
S'Instagram olivia '
p96
sS'JSCRHIWFRTSV'
p97
g12
sS'ROBXGBQXIHDU'
p98
S'Mech Eng student at Edinburgh'
p99
sS'WJRXKKFWEGVD'
p100
S'Nurse graduate RAF applicant Gym running kayaking Gin gin and more gin '
p101
sS'OSCLVSTURTZY'
p102
S"Edinburgh Can't ski Didn't go to uni Don't have snapchat  "
p103
sS'HWOSBNBZESJD'
p104
S"I love adventures and people who can make me laugh I'm always up for coffeewhisky with new people Looking for friends and drinkingexplorer buddies "
p105
sS'SMHDRLIIDNTV'
p106
S''
p107
sS'EIOFKSFJWBBZ'
p108
S''
p109
sS'JFKUJDPXSXIS'
p110
S"Love sarcasmPeoples facial expressions Edinburgh  ft There's a huge crack in my screen So playing tinder is a bit of Russian roulette atm "
p111
sS'HGKTMFVFWXZD'
p112
S"I'm a fucking punmeister Looking for a drinking partner  someone to take me to Rotato for a jacket potato "
p113
sS'TRYHBHADYCER'
p114
S''
p115
sS'OTUNEPZCLIVJ'
p116
S'ECA'
p117
sS'CDXFSNWEOPWW'
p118
S"Started fresh on tinder here Maybe this time round it won't be so disappointing rd year psychology student Born  raised in Glasgow Anything else yOu want to know then just ask meGive me your chat "
p119
sS'JBETIJQHGSZD'
p120
S'Date scenario take you out to laser tag proceed to be amazing win Celebratory drinks and bragging ruin all chances of second date Work hard sleep hard '
p121
sS'JDIYUTBHCYOZ'
p122
S''
p123
sS'MKFZAMEQNILC'
p124
S'Instagram  chloejessicaxoSnapchat  chloejessicaxx'
p125
sS'YVMNISYVKNAX'
p126
S''
p127
sS'XBXQHQATYSCM'
p128
S'BarcelonaEdinburghNot a onenight stand girl materialInterests '
p129
sS'NWUBQYEZGUIA'
p130
S'Edinburgh '
p131
sS'OOZEMQJUFILV'
p132
g12
sS'VYASZEOKEHGL'
p133
S"I'm a fucking punmeister Looking for a drinking partner  someone to take me to Rotato for a jacket potato "
p134
sS'SHNSFKCQVHTN'
p135
S'Philosophy and Theology  University of Edinburgh '
p136
sS'ERUTGGSEIJBA'
p137
S'German Lives in Singapore moving to Edinburgh Hit me up '
p138
sS'RUQTOGHRHFAN'
p139
g12
sS'YAJWJCDZVMLS'
p140
g12
sS'YERKVEFXJCCB'
p141
S'probs taller than your fridge musically enthused DAMN THE MAN SAVE THE EMPIRE'
p142
sS'AZUHPSNUHTAS'
p143
S' University of Edinburgh for the year getting my MSc '
p144
sS'GYSOWIWTOGAR'
p145
S'Heriot Watt uni'
p146
sS'XQWBECWVSTZU'
p147
S"I'm new in Edinburgh and just want to meet new people "
p148
sS'BGAKQPZGYXAA'
p149
g12
sS'NQOWUWJLARTA'
p150
S"I'm a fucking punmeister Looking for a drinking partner  someone to take me to Rotato for a jacket potato "
p151
sS'TFIROJDUQZMK'
p152
S'From EdinburghJust give me a message to find out moreIgnore my interests'
p153
sS'WUTEGVHUNOMK'
p154
S"I'm a fucking punmeister Looking for a drinking partner  someone to take me to Rotato for a jacket potato "
p155
sS'MYVGVLMWQJBN'
p156
S' runner '
p157
sS'BORTXROGGMFL'
p158
S"I'm like a lightbulb I light up the room when you turn me on and if you stand on me you'll end up in hospital"
p159
sS'PTBZTNBHJCZG'
p160
g12
sS'NVRKLDKBXCBK'
p161
S'Music books traveling shitty s films '
p162
sS'FUBZRGZGIGXV'
p163
S'LondonEdinburgh Studying Arabic and Persian '
p164
sS'BSNJQVDSOAVZ'
p165
S"Single because I didn't forward that chain email in Musician '"
p166
sS'RWNLHTFZPRSU'
p167
S'Starwars xbox my puppyyup'
p168
sS'WWISVZEIVKWX'
p169
S''
p170
sS'WMRRCJUVXCTB'
p171
S''
p172
sS'FVIHHTBSZQVH'
p173
g12
sS'XWFDJVODUPWN'
p174
S'If you dinny like documentaries your no for me Soz'
p175
sS'RDWRYEMBUIQU'
p176
g12
sS'ANLQGJPBPVUK'
p177
S"I'm a fucking punmeister Looking for a drinking partner  someone to take me to Rotato for a jacket potato "
p178
sS'TBHXILINUXMR'
p179
g12
sS'LDQRXYFVBHWJ'
p180
g12
sS'LWJMMMIPOCMA'
p181
S'Music books traveling shitty s films '
p182
sS'DOGOPROYHODB'
p183
S'An English girl living in Scotland and studying PhilosophyPolitics at Edinburgh nd yearYorkshire born'
p184
sS'MCBVNRIJDARQ'
p185
g12
sS'POIERDMOFKDV'
p186
S"If you think you've ever made a bad decision then just remember I ran the Tough Mudder hungover"
p187
sS'NJVPAYFVUQCE'
p188
g12
sS'FNYAYHFAEJHK'
p189
S'Instagram  ejfieldxDo you ever drive on the motorway and see someone fit and wish you could give them your number somehow'
p190
sS'YKEMXGJBNTGN'
p191
g12
sS'OJDTADBQXCQY'
p192
S'Edinburgh Uni  Cambridge '
p193
sS'RTYCYCYKYOWX'
p194
g12
sS'AIFYKTIOOMVK'
p195
S"I'm a fucking punmeister Looking for a drinking partner  someone to take me to Rotato for a jacket potato "
p196
sS'XUFXCOIRRNQU'
p197
g12
sS'OCUTIUORAAQV'
p198
S'Ambitious and outgoing law student from Denmark studying at the University of Edinburgh for one semester Love singing dancing movies food and tea'
p199
sS'CQXTOWODIQCT'
p200
g12
sS'MXKBETUCQBEX'
p201
S'Oot every weekendCan lick ma own nips xMa snap chat is  bethanshankie'
p202
sS'PPXGXAFECFWX'
p203
S"I'm a fucking punmeister Looking for a drinking partner  someone to take me to Rotato for a jacket potato "
p204
sS'YSIGDPQGYCAO'
p205
g12
sS'JMXZQTTJISXM'
p206
S'History of Art Edinburgh '
p207
sS'KYZGUYKWGRQC'
p208
g12
sS'LDMHVBGBGDVC'
p209
g12
sS'IREJVSGBSUYL'
p210
S'Radiography student Edinburgh '
p211
sS'GUZMDBWAMEXA'
p212
S"I'm a fucking punmeister Looking for a drinking partner  someone to take me to Rotato for a jacket potato "
p213
sS'PDZNFKEAZTYA'
p214
S'EdinburghTattoosSnapchat hollihunterx'
p215
sS'FWNEFFEIZQMX'
p216
g12
sS'JEICRXHVRFKH'
p217
g12
sS'FJVXGHYWBMNX'
p218
g12
sS'UKFZSXJTMZZC'
p219
S'Edinburgh physio student Instagram laurarobertsonx Snapchat laurarobertsonx '
p220
sS'HBVVGPKIIMPM'
p221
S''
p222
sS'JALFFHFIORBF'
p223
g12
sS'UWSUOTQBQMBZ'
p224
S''
p225
sS'KOMVVVSJOFVZ'
p226
S'Instagram lucygrace'
p227
sS'XXTHASADDLTT'
p228
S'Snapchat  caznelly'
p229
sS'KSRXIHETLUEK'
p230
S'EdinburghSnapchat indialaingx'
p231
sS'UITSEREHKFXD'
p232
g12
sS'EYALFIEZFENE'
p233
S'EdinburghStranraer'
p234
sS'QBFHSHSTTAHJ'
p235
S'Edin Uni rd Year'
p236
sS'ISJSAPOXWJGB'
p237
S"I'm a fucking punmeister Looking for a drinking partner  someone to take me to Rotato for a jacket potato "
p238
sS'HBFDNKTRZALD'
p239
S'Snapchat chanteelleex '
p240
sS'FGCBEEJRJPSL'
p241
S"I'm a fucking punmeister Looking for a drinking partner  someone to take me to Rotato for a jacket potato "
p242
sS'KQVCKFSEFXIW'
p243
S'Costume student at queen Margaret uni in Edinburgh Witty oneliner required for bio please leave suggestions in message form '
p244
sS'FREYEEADWRPR'
p245
S"I'm a fucking punmeister Looking for a drinking partner  someone to take me to Rotato for a jacket potato "
p246
sS'XTNWRUDFATNJ'
p247
S'Dundee gal studying Costume Design in Edinburgh Addicted to custard creams and I make a cracking cup of tea'
p248
sS'QZXWPSNFBERU'
p249
S"I'm a fucking punmeister Looking for a drinking partner  someone to take me to Rotato for a jacket potato "
p250
sS'YQHMYKJOTDIR'
p251
S'I like dogs more than people'
p252
sS'HLOFKCMWKASU'
p253
S''
p254
sS'FEAPZLKGNIWH'
p255
S'Instagram  maddiealiceRGU'
p256
sS'DPUOJFPETYCU'
p257
S'PhD studentVeganFeministPansexualSapiosexual'
p258
sS'ADKSNNMUVPNF'
p259
S'Edinburgh Insta JACQX'
p260
sS'VSNRVKWZNITV'
p261
S"UoE Swedish bakar utmrkt kladdkaka sick dance moves with and without tequila in my systemJe parle franais je jure and  other languagesIf we match don't be shy"
p262
sS'NBMTSGVNJPBJ'
p263
g12
sS'XNZXGHGHXQWI'
p264
S'E D I N B U R G HSnapchat jessmcgovernx'
p265
sS'ZYYTDDFBFQTX'
p266
S'EdinburghLondon'
p267
sS'VZDPIZCTNPXB'
p268
S"I'm a fucking punmeister Looking for a drinking partner  someone to take me to Rotato for a jacket potato "
p269
sS'IMTKHRSXEHVM'
p270
g12
sS'OGIBMYQAHIWU'
p271
g12
sS'SWYKADSPWIKE'
p272
S'French Just looking for a funny or interesting chat Maybe more according to the chat'
p273
sS'BHBYKKXTOTSJ'
p274
S"I'm actually really cool "
p275
sS'TNEJEDSJPCWA'
p276
g12
sS'XNWKSXLYBWDP'
p277
S"I like to work out music and comedy I'm also a PhD student in architectural history Good cook like beer and hate girly drinks No hookups "
p278
sS'PEUSFJCMHXDA'
p279
g12
sS'JOPSGYQSMLJQ'
p280
S'Edinburgh  Psychology StudentBartender Travelling '
p281
sS'GQNEVSEPZEKJ'
p282
S''
p283
sS'WLEZYSBEWSAA'
p284
S''
p285
sS'PNOVBBXJDWHD'
p286
S'Hi  ArchitectLove sports'
p287
sS'EWFPEBDPLVQC'
p288
S"I'm a fucking punmeister Looking for a drinking partner  someone to take me to Rotato for a jacket potato "
p289
sS'AUOTXPUWPPAB'
p290
S"I'm a fucking punmeister Looking for a drinking partner  someone to take me to Rotato for a jacket potato "
p291
sS'YNOYABSRTUUF'
p292
g12
sS'LJNITQQFWXCU'
p293
g12
sS'FUXEGMKDNCGN'
p294
g12
sS'BRVASRUNLYZK'
p295
S"I'm a daydreamer and a nightthinker aka I go to bed at about am most nightsnd year theatre and film student  big tea lover and Christmas obsessedI'm not the kinda girl you will meet in a club I like hanging out in my flat or going out to a pub with my friends Slytherin and proud  I write scripts in my free time and I spend a lot of time with my friends who are all massive geeksnerds what ever you call them who I mum  but they keep me laughing which I love  "
p296
sS'OCYYLDQYGDUR'
p297
S''
p298
sS'JVAHYXVXHCOZ'
p299
S'Looking for my Chuck Bass '
p300
sS'TLSLUDDUWVWD'
p301
S"I'm a fucking punmeister Looking for a drinking partner  someone to take me to Rotato for a jacket potato "
p302
sS'YFEVRRKHYONL'
p303
g12
sS'GIZUNZOHBFSH'
p304
g12
sS'UDNDBVDDNVAB'
p305
S''
p306
sS'JUQITCRUNURJ'
p307
S'th year Zoologist at Edinburgh Uni A man who dares to waste one hour of time has not discovered the value of life'
p308
sS'DIEWIEALAXTV'
p309
S'Love Toy Story and a good pair of socks '
p310
sS'UBPZQPGPAKLX'
p311
S''
p312
sS'PXLXQAQVEJBP'
p313
S'Belfast  Edinburgh'
p314
sS'MHJSEXAOPVVF'
p315
g12
sS'ANTPCCQVMHHA'
p316
S''
p317
sS'VCYNVTHXFVVV'
p318
S''
p319
sS'ESCSTQQXDAJG'
p320
S"Don't really know how this works "
p321
sS'NIORQCDADMRK'
p322
S''
p323
sS'XYRLUEFYTPGU'
p324
S''
p325
sS'ECKCXDMKOVQI'
p326
S"Just a nice always smiling girl living in Edinburgh originally from Poland Looking for a chat a friend a remedy to boredomI like going out having fun singing enjoying life in general ' "
p327
sS'PYOUDWIYRPDS'
p328
S''
p329
sS'WUGODMTNHLAN'
p330
S'Studying chemical physics at Edinburgh uni Bilingual and love to travel for real though'
p331
sS'ZVMOPGKIEEKG'
p332
S'Media  Communications studentExcellent banterVery short EdinburghIgnore all the Facebook likes I was  '
p333
sS'EMTPAQZRGWOO'
p334
S"I'm a fucking punmeister Looking for a drinking partner  someone to take me to Rotato for a jacket potato "
p335
sS'FLOIAXUOOCFM'
p336
S'what is haaaappeninFrom Northern Ireland  living in Edinburgh'
p337
sS'TUPTMDFOEUPP'
p338
S''
p339
sS'FBAHGALMXDVO'
p340
g12
sS'ESIRXROHCQIK'
p341
S"I'm a fucking punmeister Looking for a drinking partner  someone to take me to Rotato for a jacket potato "
p342
sS'JCVAGLWSMXGX'
p343
S"I'm a newly qualified nurse living in Edinburgh Here's the gist folks I don't take life too seriously I require a nice spoonful of Nutella pretty much on a daily basis you will always catch me with a gt on a night out I eat my vegetables and I squat"
p344
sS'XULQRSCMLPOT'
p345
g12
sS'IKULVWEHMHZZ'
p346
S"I am DTF  Darn Tootin' Fun"
p347
sS'WYWRPJXNUXEU'
p348
S'  Irish   Radiography student at QMU '
p349
sS'FRNHFTXEGZKP'
p350
S"Politics theatre UN coffee addict postgraduate law and history student traveller huge fan of old tv series as well as action and science fiction moviesHell isn't merely paved with good intentions it is walled and roofed with them  Aldous Huxley"
p351
sS'NBVGNSXGNOVK'
p352
g12
sS'LCJNKKGBRZQQ'
p353
S"It's unfair that breakfast in bed is romantic but dinner in bed is a cry for help"
p354
sS'TXQDRDDXJLYU'
p355
S''
p356
sS'FMVRPTOSUEPI'
p357
S'snapchat kirstenwindever'
p358
sS'ROUORHOEHWMW'
p359
S"My busyness is to create Doesn't even matter what  "
p360
sS'OCBMRNPHUROR'
p361
S"Currently living in the wrong place for someone who can't stand the coldBut when life hands you"
p362
sS'OOVZOUKICBCL'
p363
S'PhD studentVeganFeministPansexualSapiosexual'
p364
sS'ZXQZPAWXYMJV'
p365
g12
sS'HUPRVMROJJOB'
p366
S'Gin dogs and good food'
p367
sS'SGBKQKPGXCRF'
p368
S'Australian travelling in Europe and the UK  Current location Edinburgh '
p369
sS'BZKAZVSMRAZX'
p370
S"I'm actually really cool "
p371
sS'IEJQONSAVOYN'
p372
S''
p373
sS'ZRFGIOMWZXWF'
p374
S'Instagram  maddiealiceRGU'
p375
sS'PQJKFMOOSNLH'
p376
S''
p377
sS'IJJBTNDWSFBW'
p378
S'Living in Edinburgh and living life to the full'
p379
sS'NZAMVLSSYCWC'
p380
S'media student at qmu  full time alcohol enthusiast '
p381
sS'ZLTQZEAGZSJF'
p382
S'Hit me up for fun and games xx'
p383
sS'IEWMLTIZRXBI'
p384
S" years through the best adventure anyone could ever haveGot a map on my arm so I don't get lostAlso got my dog tattood on meMy car is just one big stickerSemi famous snowboarder with a famous dogProfessional adventure to mountains skateparks lakes bars quirky shops and anywhere with dogsAustralian taking shelter in ScotlandWhen I was younger I looked like Tina from Bobs Burgers"
p385
sS'TONYPTBYNRIW'
p386
S'Medic at Edinburgh Uni '
p387
sS'FVESKFVEIGZP'
p388
S'Edinburgh The less you reveal the more people wonder Insta gbrutherford'
p389
sS'JVHPRHIIESXF'
p390
g12
sS'YJUNMDNNVVSI'
p391
S"If you think you've ever made a bad decision then just remember I ran the Tough Mudder hungover"
p392
sS'VGWAGINIVQYC'
p393
S"I'm a fucking punmeister Looking for a drinking partner  someone to take me to Rotato for a jacket potato "
p394
sS'QTYBVLRCKVUX'
p395
S'Kenyan in Edinburgh Looking for some good chat '
p396
sS'WIHEYXQMZLNV'
p397
g12
sS'QAAIAXFMHJPW'
p398
S'Studying architecture at Edinburgh university Love to travel Big fan of silliness Terribly English Should never be allowed to drink at lunch'
p399
sS'JFYVMAWOCOSY'
p400
S''
p401
sS'IXXKVOSFBSAP'
p402
S'From italy Love photography Traveler '
p403
sS'HWCXNOWCVVHU'
p404
S'snapchat kirstenwindever'
p405
sS'WFLQAVIPVIEV'
p406
S'EdinburghLondon'
p407
sS'JQTMJNQAYYMN'
p408
S'Student Edinburgh '
p409
sS'OWSDWYIVGHHG'
p410
S'Studying in Edinburgh Belgian lived in Dubai Simply love traveling '
p411
sS'TXCQPCFBHPYA'
p412
S'StudentScottish Short'
p413
sS'WLYADGKHVQMP'
p414
g12
sS'SEKXZCLQZPMP'
p415
S"DogspeopleI'm the blonde less attractive one "
p416
sS'QORPSGSTLBZF'
p417
S"I'm a fucking punmeister Looking for a drinking partner  someone to take me to Rotato for a jacket potato "
p418
sS'FZVKIDTUYNOX'
p419
S' Edinburgh '
p420
sS'PPTBEWZJPCAR'
p421
S'NewcastleEdinburgh '
p422
sS'FYSYKODVFJEU'
p423
g12
sS'EWCNREYAKWSC'
p424
S"EdinburghLondon Let's play carpenters first we get hammered then I nail you"
p425
sS'INRMCULDBKYG'
p426
S'Edinburgh'
p427
sS'AQUENHLHPQTS'
p428
S'Names Emily year abroad in Scotland from straight out of America  drink and smoke too much but still functional  hit me up if you are chill and like to have a good time   '
p429
sS'SXAZJVLUTKIH'
p430
S'Hey there  x'
p431
sS'VZWROUVCMWRJ'
p432
S'Canadian  just moved to EdinburghI just want someone who makes me laugh I make art snowboard and can do circus tricks'
p433
sS'DTOUAWFKTSNK'
p434
S'Spanish but in love with the rest of the world'
p435
sS'OAXOMMANXDNB'
p436
S'Just looking for peeps to chill and watch movies with '
p437
sS'GRUNILJZWAUV'
p438
S"I'm a fucking punmeister Looking for a drinking partner  someone to take me to Rotato for a jacket potato "
p439
sS'HXFKUKVDYCHI'
p440
g12
sS'TZCYVGNDSUYX'
p441
S'Instagram  eloiseevans '
p442
sS'BLMWWVIXSDQN'
p443
S"LondonEdinburghSocial anthropology student Be nice Be fun Be friendly Don't be boring "
p444
sS'UHIABXQDBDPN'
p445
S'Events Management  QMUSnapchat  alyssahall'
p446
sS'KBLIDNJOVGMQ'
p447
S''
p448
sS'SUMDIOUQGJQH'
p449
S"I'm a fucking punmeister Looking for a drinking partner  someone to take me to Rotato for a jacket potato "
p450
sS'HPWSBRHTZYZK'
p451
S''
p452
sS'CNUXDRZEUOFA'
p453
S'Study in edinburgh Play korfball love to dance'
p454
sS'XCQODUVAOYXB'
p455
S"I'm a fucking punmeister Looking for a drinking partner  someone to take me to Rotato for a jacket potato "
p456
sS'FBSFWAAKKJEF'
p457
g12
sS'CLXCQHVRLNOD'
p458
S"I'm a fucking punmeister Looking for a drinking partner  someone to take me to Rotato for a jacket potato "
p459
sS'JXHUMHBOKHAN'
p460
S" Irish  and Living in Edinburgh accept the the things you can't changebe brave to change the things you canand be wise to know the difference"
p461
sS'VNTZSPJGJLXD'
p462
S"Don't really know how this works "
p463
sS'QXLZRNWFSXCW'
p464
S'Fine Art MA  ECA Brummie born and bred My neighbors think my accent is hilarious Instagram mollyhk'
p465
sS'CBSJFEMWRSOM'
p466
S'Business Student at the University of Edinburgh'
p467
sS'YUUTZOBANORL'
p468
g12
sS'VXWWPWXIMABT'
p469
S''
p470
sS'RLYMVCEAXGTZ'
p471
g12
sS'QBNXPJTMPBNQ'
p472
S"I'm a fucking punmeister Looking for a drinking partner  someone to take me to Rotato for a jacket potato "
p473
sS'SYXLCGDUHKAZ'
p474
g12
sS'GMTOGZRPQASL'
p475
S'Edinburgh and AberdeenStudying a useless degree and I love it Apparently I look like the crescent moon emojiWe should hang out '
p476
sS'OOBHPUSCKQUV'
p477
g12
sS'CREHRAOJGYCG'
p478
S''
p479
sS'DCZOQFQCJCLU'
p480
S"I am awful with this about me stuff so i am going to keep it short and sweet I'm an Edinburgh girl Work in retail Adore meeting new people Have the bestest group of girlys Have a couple of tattoo's Enjoy trying new things Will pretty much chat to anyone and everyone that will listen Snapchat sammywatsonxox Anything else you want to know send me a message                             "
p481
sS'WTJBMMFAPRKI'
p482
S"I'm a fucking punmeister Looking for a drinking partner  someone to take me to Rotato for a jacket potato "
p483
sS'OGPBIBSRURHB'
p484
g12
sS'FNTDTATWIHQY'
p485
S'Edinburgh uni '
p486
sS'JUCEMWNISCDN'
p487
S' NCL Edinburgh Biology student bartender keen traveller dog lover '
p488
sS'QUDMBOISIBJT'
p489
g12
sS'TBJKMUDXXHFW'
p490
S'Illustration student at Edinburg uni'
p491
sS'YDALKNDJLOEQ'
p492
S"I'm a fucking punmeister Looking for a drinking partner  someone to take me to Rotato for a jacket potato "
p493
sS'COREZWWRSANS'
p494
S''
p495
sS'IJXWRLSYSTXP'
p496
S' University of Edinburgh for the year getting my MSc '
p497
sS'KXLWUGCDBRKX'
p498
g12
sS'AASNGQEFMFSY'
p499
S"I'm a fucking punmeister Looking for a drinking partner  someone to take me to Rotato for a jacket potato "
p500
sS'MGXTCIRNEBUX'
p501
S'Edinburgh'
p502
sS'JRYBYEPUHVNM'
p503
S'Living in Edinburgh and living life to the full'
p504
sS'DOMNVXBKXAIY'
p505
g12
sS'OPWINBODTTCX'
p506
S'GlasgowEdinburghStudying Civil Engineering at HeriotWatt '
p507
sS'YRLAQZGSRTXS'
p508
S"Acting student edinburgh if you don't like messy eaters then i'm not your gal "
p509
sS'FHYEJDQKSLHL'
p510
S'Forresedinburgh Criminology at Napier '
p511
sS'ZVJJTIOMRLJU'
p512
g12
sS'IMFGCTRUEZLR'
p513
S'here to laugh at peanut headsI uninstall this often so soz'
p514
sS'HQLUKNMLUOFT'
p515
S' and '
p516
sS'XNWOZUSLABFV'
p517
S'Snapchat xAshleySmithx                               Excitement  adventure '
p518
sS'VKALUKDKYJHQ'
p519
S''
p520
sS'KHIQXTSPFHQT'
p521
S"I'm a fucking punmeister Looking for a drinking partner  someone to take me to Rotato for a jacket potato "
p522
sS'GVOKNSKEOTTE'
p523
S"I'm a fucking punmeister Looking for a drinking partner  someone to take me to Rotato for a jacket potato "
p524
sS'DZXZQLEBOEFN'
p525
g12
sS'AKRMAXSUNZDS'
p526
g12
sS'UMRGTWUNSHRF'
p527
S'Lived in Finland and New Zealand nowadays in Edinburgh for uni  Excited about life '
p528
sS'DEDFREFBQCKD'
p529
S'Student Edinburgh'
p530
sS'MZAOSZPJGMTV'
p531
S''
p532
sS'HGWSEMCPKNRX'
p533
g12
sS'QNYDBZGXCSFC'
p534
S' nd year actuarial student at HW  '
p535
sS'YTCBWFBKKNPS'
p536
S'Sport Science StudentEdinburgh'
p537
sS'HDZMSRLPGIGW'
p538
S'I enjoy a nicely packed bowl placed on top of a bong Plainfield IL USA Let me be your American sweetheart Edinburgh for the next  weeks Lots to see drink smoke and explore here '
p539
sS'RMQWHOAXYMGW'
p540
S'ECA'
p541
sS'NZPZGFKARVWZ'
p542
S'psychology student at edinburgh uni bios are shit so just come chat to me ae '
p543
sS'CWVVGIKEWJJX'
p544
S' nd y UoE Will go on a date with a guy who knows how to work in CAD'
p545
sS'EYRWXZAVBWSP'
p546
S'Aussie traveller '
p547
sS'PGPWHCDMXRFO'
p548
g12
sS'ODAVQYRDNVDG'
p549
S'Edinburgh '
p550
sS'ROCWSMTMBVLJ'
p551
S'if i had to choose between believing in aliens and believing in love i would choose the aliens except for space i also spend a lot of time thinking about dinosaursalso im swedish'
p552
sS'RLMEJCEKGZDH'
p553
S'Love Toy Story and a good pair of socks '
p554
sS'EVGSQFGPJJOS'
p555
S"I'm new in Edinburgh and just want to meet new people "
p556
sS'VMKYKSRLNDIU'
p557
S' runner '
p558
sS'AXBYCOUDJQEE'
p559
g12
sS'OGNNKKMQTENL'
p560
S''
p561
sS'HFXZJSSYVRUP'
p562
S"UoE Swedish bakar utmrkt kladdkaka sick dance moves with and without tequila in my systemJe parle franais je jure and  other languagesIf we match don't be shy"
p563
sS'YAJYTWGCXNBS'
p564
S' Edinburgh '
p565
sS'WPZZNDJXLQTD'
p566
g12
sS'IHESIHOAFGGF'
p567
S'Events management student music lover and Disney enthusiast Living in the moment '
p568
sS'ZDUURJCUUDKF'
p569
S'Second year at Edinburgh university '
p570
sS'UIGGISXLNWLY'
p571
S"I never send x's nothing personalTry impress meHigh expectationsEither boogie hard or go home "
p572
sS'TXOGZDABPFKA'
p573
g12
sS'UQSXJZAYMNHU'
p574
g12
sS'SVUMDSUGIPBA'
p575
S'History student at Edinburgh University  '
p576
sS'UFSXXTNXFXCX'
p577
S"Dont expect me to jump into your bed cause you've swiped right im a lady not a whore "
p578
sS'OCGLQHUCJQQK'
p579
S''
p580
sS'KNPGXWCTMCMO'
p581
g12
sS'EUYEXJQWJPNU'
p582
S''
p583
sS'RLFPLSZIMBSD'
p584
S"I'm a fucking punmeister Looking for a drinking partner  someone to take me to Rotato for a jacket potato "
p585
sS'XPSWHFUOZJSH'
p586
g12
sS'DAPAMBDBMFWH'
p587
S'Heriot Watt uni'
p588
sS'GDVSCYWLIBGH'
p589
S'snapchat claudiamoran'
p590
sS'QZRVBUBLPMCQ'
p591
S"I love adventures and people who can make me laugh I'm always up for coffeewhisky with new people Looking for friends and drinkingexplorer buddies "
p592
sS'OYGXWMIVCYZK'
p593
S'Studying in Edinburgh from Mallorca'
p594
sS'IJWRJPHCBXQQ'
p595
S"I'm a fucking punmeister Looking for a drinking partner  someone to take me to Rotato for a jacket potato "
p596
sS'POUTBCTYROVR'
p597
S"Dont expect me to jump into your bed cause you've swiped right im a lady not a whore "
p598
sS'DFMHCISWRKQK'
p599
S'East SussexEdinburghMaths student'
p600
sS'IJYPNJECMJET'
p601
S"I'm a fucking punmeister Looking for a drinking partner  someone to take me to Rotato for a jacket potato "
p602
sS'NBPWQRBORMEN'
p603
S'jo perrin X'
p604
sS'OKKQQKNYFFTT'
p605
S"Travel obsessed pierced and inked After working in Romania Madagascar and Nepal I'm spending some time at home in Edinburgh to focus on my dance career and work out what the hell I'm doing with my life If you've heard of The LaFontaines we can probably be friends"
p606
sS'YWIOOCQBNCIM'
p607
S''
p608
sS'KVOAWHOIXMHC'
p609
S'I once watched Les Mis without crying'
p610
sS'QTLDXJODHKSA'
p611
S''
p612
sS'DHEHWEIIGING'
p613
g12
sS'CRMGPDNYEGDB'
p614
S''
p615
sS'WBCKPFQXQRGZ'
p616
S''
p617
sS'OOKLLNJNUEDN'
p618
g12
sS'UDKSQZASSRZV'
p619
S'Instagram kirstinsands'
p620
sS'NXBPDGIUDTPW'
p621
g12
sS'DHYDQITDPLEQ'
p622
S"Trying out being an adult at the moment I've not killed anyone yet so I think it's going well I'm a nerd at heart spending my time watching movies and playing video games so trying to put off responsibility as long as I can I wish I could craft one of those epic 'about you' sections but I guess mediocrity will have to do "
p623
sS'VMPRJHGJCUUG'
p624
g12
sS'RKTAITHBINKD'
p625
S'Are you a banana Because I find you appealing '
p626
sS'IDQQXSPNLCXK'
p627
S'Names Emily year abroad in Scotland from straight out of America  drink and smoke too much but still functional  hit me up if you are chill and like to have a good time   '
p628
sS'RYVVNIYAHOIG'
p629
S'Starwars xbox my puppyyup'
p630
sS'RGAJGVCNYTDD'
p631
g12
sS'ARFWETVLDADX'
p632
g12
sS'ELGJULUZDTHG'
p633
g12
sS'SAEMPPSPCAOP'
p634
S'Forever wanting to be back in Bali '
p635
sS'OQFSMREVLHQM'
p636
g12
sS'SAZJTUKXEDIA'
p637
S''
p638
sS'POOUTNXWFKAZ'
p639
S"So I'm a bit of a traveler and excited to explore more of the world really into having a drink and getting my boogie on at the weekend Love animals  minus the spiders I honestly just want someone to cuddle up with and watch tv with "
p640
sS'EXACGQLZMGVD'
p641
S'Are you a banana Because I find you appealing '
p642
sS'KVBBJVQZIEHR'
p643
S"I'm a fucking punmeister Looking for a drinking partner  someone to take me to Rotato for a jacket potato "
p644
sS'FQERSQOQHCLV'
p645
S'politics with stats student '
p646
sS'HZIHJXIGGZEJ'
p647
S"I don't have an inside laugh I always wish there was more gin and cats That's pretty much it "
p648
sS'NAITJVMLEIQY'
p649
S"I'm Grace  and I love sports Mostly going to the gym which I'm a tad obsessed with specifically powerlifting I love TV shows such as pretty little liars and the last ship My music taste varies but I like most musicChat to me if you want to "
p650
sS'VQEQAFXCCAVT'
p651
S''
p652
sS'NYBKAFEIZUEC'
p653
S' '
p654
sS'IYWONRKLHPKT'
p655
S' not Snapchatt amylownieee '
p656
sS'FVHZOTKYUKQE'
p657
S''
p658
sS'LGGITNAOZYTY'
p659
S'From Edinburgh Instagram megaandrydenn '
p660
sS'SGBJLXIFFYJF'
p661
S'Instagram olivia '
p662
sS'ZAUSIRZYPPIC'
p663
S'I like a good pair of balls'
p664
sS'DZDDJQSCTPEB'
p665
g12
sS'CMZAYCEHOTTZ'
p666
g12
sS'EFSSDUEFWFXH'
p667
S' Edinburgh '
p668
sS'TIUVNLFPBXTQ'
p669
S'          s     Just moved to Newcastle to start my internship  Love skiing filmsbeing outdoors and I never say noto a party x'
p670
sS'HVRXSVLRYYUR'
p671
S''
p672
sS'SYGFFTXWQECN'
p673
S'Science graduate currently living and working in Edinburgh  '
p674
sS'TOHDWPVZKTOI'
p675
g12
sS'KOCMXQNQRMGB'
p676
S"DogspeopleI'm the blonde less attractive one "
p677
sS'OVCKGTQVQTXC'
p678
S"I'm a fucking punmeister Looking for a drinking partner  someone to take me to Rotato for a jacket potato "
p679
sS'BJDYVAMBWIEJ'
p680
g12
sS'JOLPEOXDFOEV'
p681
S"Drama and Performance student at QMU I dream of having a pug one day Its the main goal in my life really The way to my heart is food literally any food and i'll be happy Twitter  Instagram sarahlbrownx"
p682
sS'UVSFLPJDQPPM'
p683
S'Interested in art tennis skiing and swimmingPug love is a necessityAnd a good sense of humour'
p684
sS'YAEQFYDJEQZT'
p685
g12
sS'HVFCESKAMVOM'
p686
S' Half Italian Edinburgh'
p687
sS'MCSXWMCFWMCF'
p688
S''
p689
sS'DIYYSDNZHCLO'
p690
g12
sS'IRCGPZTLITOL'
p691
S'Studying law and French at the University of Edinburgh'
p692
sS'KUVIMEZLKKBS'
p693
S'Work at Edinburgh airport as a CSASnapchat  Kaylamouns'
p694
sS'REQUZWWUMGQF'
p695
S"I'm a fucking punmeister Looking for a drinking partner  someone to take me to Rotato for a jacket potato "
p696
sS'HOFAASVXVFER'
p697
g12
sS'JMEWWKYUBVDK'
p698
g12
sS'IWBOHYHCWABS'
p699
S''
p700
sS'MXKZFKGCMCNW'
p701
S'Instagram kirstinsands'
p702
sS'KBPKXVJBQGFS'
p703
S''
p704
sS'OQUMWJAHCFVP'
p705
S"I'm a fucking punmeister Looking for a drinking partner  someone to take me to Rotato for a jacket potato "
p706
sS'PTQTIXFIZBJI'
p707
S'I go to uni for the SnowsportsI bake a lot too '
p708
sS'OAHKZVXYBWYY'
p709
S"I'm a fucking punmeister Looking for a drinking partner  someone to take me to Rotato for a jacket potato "
p710
sS'FIXYKUTHFIBU'
p711
S'Am kidding '
p712
sS'OZOYZEJJFGPL'
p713
S'I study psychology at the University of Edinburgh and I like skiing and hiking Also enjoy reading pretty much anything scifi and too many tv series'
p714
sS'RKSUBJYTAJCJ'
p715
g12
sS'HUMAWWQVQXKP'
p716
S"Weybridge  SurreyPortsmouth UniElegant trippy chaotic flavourAbout meExtremely fond of facials and hair and facial hair Great at giving head Massages I love gin Apologies my Instagram doesn't have endless amount of selfies but there is the odd one in there to prove I'm a solid "
p717
sS'VJCVJZSMWRAX'
p718
S'Northern Ireland Edinburgh Napier Skiing Hockey Travelling  '
p719
sS'IRWJNJVYTJBY'
p720
S'Philosophy and Theology  University of Edinburgh '
p721
sS'QOZKQPSLAWIA'
p722
S'Art student in Edinburgh'
p723
sS'PZCMEMTLCVJW'
p724
g12
sS'HUYUCJZLYXLN'
p725
S"Single because I didn't forward that chain email in Musician '"
p726
sS'XHDAGKLTKIOA'
p727
g12
sS'MKMAJDSFMEDS'
p728
S"I'm a fucking punmeister Looking for a drinking partner  someone to take me to Rotato for a jacket potato "
p729
sS'POOFDLMBYPGI'
p730
S''
p731
sS'RXNRKMOXYBEQ'
p732
g12
sS'LERXZFCAPAQY'
p733
S'Irish living in Edinburgh '
p734
sS'JBJTJERCCNHV'
p735
S'Studying Primary Teaching at Edinburgh uni '
p736
sS'NHOCPRQKOANR'
p737
g12
sS'SYWSLXDIEDGX'
p738
S"Just an American girl livin' in an Edi world Yeah I usually make bad jokes "
p739
sS'SJTLETRVXXVH'
p740
g12
sS'XNYOKYPJAVWW'
p741
S'EdinburghYorkArt Student '
p742
sS'FXTIIWNCPBKL'
p743
S'Instagram  chloejessicaxoSnapchat  chloejessicaxx'
p744
sS'IJYNEMTTHTJZ'
p745
S'Borders girl currently in Edinburgh studying Health  Fitness Hoping to travel within the next year '
p746
sS'DWQPCUSOVOPD'
p747
S"I'm a fucking punmeister Looking for a drinking partner  someone to take me to Rotato for a jacket potato "
p748
sS'QBFKQYIVFERN'
p749
S'Studying in Edinburgh from Mallorca'
p750
sS'ROAVOZWYBUQU'
p751
g12
sS'HLEKVKOAUVZY'
p752
S"Edinburgh Can't ski Didn't go to uni Don't have snapchat  "
p753
sS'JPSIPDWJSSDB'
p754
S"I'm a fucking punmeister Looking for a drinking partner  someone to take me to Rotato for a jacket potato "
p755
sS'VTKNTEIIWKTZ'
p756
S"I'm a fucking punmeister Looking for a drinking partner  someone to take me to Rotato for a jacket potato "
p757
sS'HIYHZXYKIHYC'
p758
S'EdinburghGlasgow Strathclyde Uni '
p759
sS'GAIAYDISGOWY'
p760
S'American studying in Edinburgh '
p761
sS'GBTFBMETHIAA'
p762
S'Student Edinburgh'
p763
sS'ZIXZDIZSLCDN'
p764
S"Charlie it's not short for anythingEdinburghSculpture "
p765
sS'XOZGBSEQCBPN'
p766
S"Loves to paint act and sing can't be bothered to make money outta them If you can't handle tattoos you can't handle me Rather dislike beards love tall tall guys and any height of girl Dying of the flu at the moment so I can appreciate the type of Netflix and chill where you feed me soup "
p767
sS'AEVZJUXVITBW'
p768
S'Whut'
p769
sS'ABZQQJHBNYLO'
p770
S'A ridiculously sarcastic midget that loves beards '
p771
sS'XNWVASBTEPRB'
p772
S" polyamorous anarcho queer feminist I'm in a serious relationship but we see other people outside it I'm currently looking for casual fun and to meet new people and make friends No jembles please          "
p773
sS'SBLFWUDTZLRL'
p774
S'You are now about to witness the power of street knowledge '
p775
sS'ZZKHFGSDVKYE'
p776
S'Just looking for peeps to chill and watch movies with '
p777
sS'TZMYFKAGURBY'
p778
S"Just a nice always smiling girl living in Edinburgh originally from Poland Looking for a chat a friend a remedy to boredomI like going out having fun singing enjoying life in general ' "
p779
sS'FBVOCLDWKZUV'
p780
g12
sS'FJYYXOHQFSYL'
p781
S'Canadian  just moved to EdinburghI just want someone who makes me laugh I make art snowboard and can do circus tricks'
p782
sS'YENLTPSDIHXP'
p783
S"I'm a fucking punmeister Looking for a drinking partner  someone to take me to Rotato for a jacket potato "
p784
sS'YXFEOEZAEOEI'
p785
S''
p786
sS'WGZLFXRZNGOH'
p787
S"Edinburgh Eng Lit student and waitress I read lots of books and try not to throw wine all over people with mixed success ' "
p788
sS'WGBPWTQODERD'
p789
S'probs taller than your fridge musically enthused DAMN THE MAN SAVE THE EMPIRE'
p790
sS'NIVFYRTVAYYZ'
p791
S'Undefeated Lord of the Rings trivia championActresswhisky enthusiast'
p792
sS'GPOCBPRKTZHC'
p793
S'GlasgowEdinburghStudying Civil Engineering at HeriotWatt '
p794
sS'EKXNXBMZYFWW'
p795
S'I work with dance Art cats feminism travels nature and all that stuff Home parties are usually better a night out BAM'
p796
sS'MYAKTCTQMWMD'
p797
S"I'm a fucking punmeister Looking for a drinking partner  someone to take me to Rotato for a jacket potato "
p798
sS'GGJLRDCLQOAH'
p799
S'Events management student music lover and Disney enthusiast Living in the moment '
p800
sS'BYTEZEWNWCQG'
p801
S''
p802
sS'IWTFPQXEYEAT'
p803
S"' string bean studying at Edinburgh College of ArtWill usually be found dancing around to music covered in glitter "
p804
sS'GICMCTXDJFQZ'
p805
S"' string bean studying at Edinburgh College of ArtWill usually be found dancing around to music covered in glitter "
p806
sS'JQDWXRHKEINB'
p807
g12
sS'BBHSRNUXCKCX'
p808
S'I like long romantic walks to the bar'
p809
sS'MXIDWJNBTRGU'
p810
S"I'm a fucking punmeister Looking for a drinking partner  someone to take me to Rotato for a jacket potato "
p811
sS'TWHICPPEETEC'
p812
S"I'm a fucking punmeister Looking for a drinking partner  someone to take me to Rotato for a jacket potato "
p813
sS'XTEASPEOEORA'
p814
S"Music  Mixtapes  Vibing  National Geographic  Landscapes  Tea  Morning Flavoured Lattes  Muffins  Netflix  Cinema  Yoga  ' "
p815
sS'NSGLVWQWSSQB'
p816
g12
sS'MJMUOQNECESF'
p817
S'nd year design student living in Edinburgh from Glasgow  love an adventure friends and gin'
p818
sS'YSYVBZYTFLXM'
p819
S''
p820
sS'UQJJWWLGEHTB'
p821
S'Live in Edinburgh studying drama                                     Snapchat  leahmac'
p822
sS'XZAIWKKXPCES'
p823
g12
sS'XQTHGDROJIPE'
p824
S''
p825
sS'YQIRNLBVNSSK'
p826
S'Half MalaysianHalf Scottish '
p827
sS'LAGPDQBDBGYT'
p828
S"Down to earth designer looking for a like minded person Funny banter and intolerant of rude people From Newcastle but in Edinburgh most of my time studying at uni  Enjoy lifting heavy items and looking after myself So tell me what's your talent "
p829
sS'AYJNUTTDZDSG'
p830
g12
sS'PBEIVFJBXRQK'
p831
S'Olivia  New York born Looking to get to know Edinburgh through good company and good food '
p832
sS'NLFUEWJTASCD'
p833
S"I'm a fucking punmeister Looking for a drinking partner  someone to take me to Rotato for a jacket potato "
p834
sS'MNKAFXJWWMKH'
p835
g12
sS'ZJBNGAXPTWMP'
p836
S'Studying at Edinburgh for the semester'
p837
sS'YTZDYWEAUSFY'
p838
S"I'm a fucking punmeister Looking for a drinking partner  someone to take me to Rotato for a jacket potato "
p839
sS'MYUMRJYZIYGC'
p840
S"I'm a fucking punmeister Looking for a drinking partner  someone to take me to Rotato for a jacket potato "
p841
sS'URVJWWUPHOVW'
p842
S'EdinburghGlasgow Strathclyde Uni '
p843
sS'OEWXOMWCTOKT'
p844
S'A wee X file I like cartoons and science fiction '
p845
sS'QAIXMFWWIZSD'
p846
S''
p847
sS'KOFGKXRWHPXI'
p848
S"I'm a fucking punmeister Looking for a drinking partner  someone to take me to Rotato for a jacket potato "
p849
sS'XOXIIPGQUXYJ'
p850
S'From the Scottish hills working in costume for film and tv'
p851
sS'PUIHTLNOHKCT'
p852
g12
sS'UWLDNRXSUXAU'
p853
S''
p854
sS'FFAJGZLJIMRH'
p855
S" years through the best adventure anyone could ever haveGot a map on my arm so I don't get lostAlso got my dog tattood on meMy car is just one big stickerSemi famous snowboarder with a famous dogProfessional adventure to mountains skateparks lakes bars quirky shops and anywhere with dogsAustralian taking shelter in ScotlandWhen I was younger I looked like Tina from Bobs Burgers"
p856
sS'PKXZAXMPQJXV'
p857
S'To your good elf  '
p858
sS'VJJSOCOPNGJZ'
p859
S'Spent my summer living in Spain'
p860
sS'BRTUEZHAHDZS'
p861
g12
sS'ITEEOWDPPBYT'
p862
S' Edinburgh'
p863
sS'AJQODVINECGL'
p864
g12
sS'LOSOJSMXCBUP'
p865
S'Hi                              '
p866
sS'OUTBZDUGFCCZ'
p867
g12
sS'WUNIBCLQMBPB'
p868
S"I'm a fucking punmeister Looking for a drinking partner  someone to take me to Rotato for a jacket potato "
p869
sS'MBHMBAQIHCMD'
p870
S"I'm a fucking punmeister Looking for a drinking partner  someone to take me to Rotato for a jacket potato "
p871
sS'EWLUGCXNKTPF'
p872
S'From northern England Sunderland Student in Edinburgh'
p873
sS'NMWVWKRMMQYW'
p874
S'Economics student at University of Edinburgh'
p875
sS'CJZNDJBDRZVE'
p876
S"I'm a fucking punmeister Looking for a drinking partner  someone to take me to Rotato for a jacket potato "
p877
sS'RYXOXEKIPMAS'
p878
S'Leeds  EdinburghBiological sciences studentMeat free I like travelling n being in the sea '
p879
sS'MVOHLPFSROXF'
p880
S"LondonEdinburghSocial anthropology student Be nice Be fun Be friendly Don't be boring "
p881
sS'HVSVKVSPBPNA'
p882
S'BelfastDundee  Law with German  RowerLifeguard '
p883
sS'PDNVWIIZPKTA'
p884
g12
sS'MPNJMYHEHPAV'
p885
S'Edinburgh girl '
p886
sS'WFFVVKWQPYPQ'
p887
g12
sS'HDPUZFXBBPEY'
p888
S'Looking for my Chuck Bass '
p889
sS'UGWKEULWXVXU'
p890
S'Snapchat xAshleySmithx                               Excitement  adventure '
p891
sS'RWMVGZSLPHTN'
p892
S''
p893
sS'ZGRMUINUULIH'
p894
S"'Death is just life's next adventure'Food naps alcohol and rugby keep me happy snapchat  lauradickson"
p895
sS'MSBEQCSNJDOC'
p896
S"I'm a fucking punmeister Looking for a drinking partner  someone to take me to Rotato for a jacket potato "
p897
sS'TQSRWWTBGNFH'
p898
S'Yvonne tes bonneUSA to UK '
p899
sS'VNVUFVEFLOFM'
p900
S'Edinburgh uniBusiness studentPart time receptionist Love sports and trying new things '
p901
sS'BPEYJSSEFXCV'
p902
S" polyamorous anarcho queer feminist I'm in a serious relationship but we see other people outside it I'm currently looking for casual fun and to meet new people and make friends No jembles please          "
p903
sS'HUBXRURXDMYB'
p904
g12
sS'TOZWWPPJMHAF'
p905
g12
sS'XCKBMTFQDSPW'
p906
S"I'm a fucking punmeister Looking for a drinking partner  someone to take me to Rotato for a jacket potato "
p907
sS'UTAYEXLADSMN'
p908
S'Ayla  student scoutAnything else just ask'
p909
sS'GSQQRGNASRUY'
p910
S'Just Gin and bear it  DStudentEvents management  Not afraid to say hi first Genuinely nice '
p911
sS'ASQNXNCFSISM'
p912
S"I'm a fucking punmeister Looking for a drinking partner  someone to take me to Rotato for a jacket potato "
p913
sS'MBXQHEAPPOMD'
p914
S"I'm a fucking punmeister Looking for a drinking partner  someone to take me to Rotato for a jacket potato "
p915
sS'FCTCAACLQOHY'
p916
g12
sS'GVMQZUCRTJTG'
p917
g12
sS'FMFFVWEPAGIL'
p918
S"I'm a fucking punmeister Looking for a drinking partner  someone to take me to Rotato for a jacket potato "
p919
sS'XFBZCFEDUXBU'
p920
g12
sS'BPKILUFWMSOJ'
p921
g12
sS'DJEVEQKJBXIO'
p922
S' nd y UoE Will go on a date with a guy who knows how to work in CAD'
p923
sS'EZOEJQECNOJW'
p924
S'Edinburgh '
p925
sS'ZUTGRZWCKKIH'
p926
S'Edinburgh Allergic to cats and bullshit Please give me none '
p927
sS'DGKOPDYCLLKX'
p928
S"I'm a fucking punmeister Looking for a drinking partner  someone to take me to Rotato for a jacket potato "
p929
sS'LQXNWXWOMQKX'
p930
S'Ig sofiaellenadolfina snap sofiadolfina floorball'
p931
sS'EMYVWYRZUVMT'
p932
S'th year Zoologist at Edinburgh Uni A man who dares to waste one hour of time has not discovered the value of life'
p933
sS'HUVIDOCFKPZE'
p934
S"I'm a fucking punmeister Looking for a drinking partner  someone to take me to Rotato for a jacket potato "
p935
sS'ZRKWZULMBGGQ'
p936
g12
sS'FYBWGWSCDBIW'
p937
g12
sS'BRDDXTGQCJWQ'
p938
S''
p939
sS'CULKSYACLBDE'
p940
g12
sS'JJNGGHJPJIGA'
p941
g12
sS'IIUDPJGVFVMB'
p942
S'From italy Love photography Traveler '
p943
sS'LYNCQKPCMGFY'
p944
S"Charlie it's not short for anythingEdinburghSculpture "
p945
sS'SFOCBZMSZWMH'
p946
S"if you have a sense of humour tattoos love coffee and music you're already halfway there  singerproducer  From Hong Kong "
p947
sS'OEXNYVUQJJAF'
p948
g12
sS'GFPZLGNUUDSN'
p949
S''
p950
sS'UYHLNFJKARHA'
p951
S'McGill Faculty of Law Living in Edinburgh Scotland until June I live to travel'
p952
sS'NVLAXMLEIYBM'
p953
S"Snapchat hannahwootten Insta HannwoottenEdinburgh Hairdresser Tattoos Have a little boy he's my world If we match message me "
p954
sS'NXSXSKHQQITF'
p955
S' NCL Edinburgh Biology student bartender keen traveller dog lover '
p956
sS'WWLXNZOTOFSD'
p957
S'what is haaaappeninFrom Northern Ireland  living in Edinburgh'
p958
sS'QEIIMIHYULLD'
p959
S'GlasgowEdinburgh '
p960
sS'OLBOJORANIKZ'
p961
S"I'm a fucking punmeister Looking for a drinking partner  someone to take me to Rotato for a jacket potato "
p962
sS'WCQRMPFJUYHU'
p963
S'East SussexEdinburghMaths student'
p964
sS'PGRSWEHCGYSM'
p965
S'Edinburgh Uni Medic Occasional blonde moments '
p966
sS'RPKRWZGJOIZN'
p967
S'From BarbadosStudying brewing  distilling at HeriotWatt university '
p968
sS'SLILPMKDYMQW'
p969
S''
p970
sS'KSLZDVDEOQTR'
p971
S"I never send x's nothing personalTry impress meHigh expectationsEither boogie hard or go home "
p972
sS'ODQMWOCBMRXV'
p973
S''
p974
sS'MEFWJASTRKQL'
p975
S"I'm a fucking punmeister Looking for a drinking partner  someone to take me to Rotato for a jacket potato "
p976
sS'PDTJFUSUVIIP'
p977
S"Traveling Europe until the th Let's get a drink and see how awkward a date could be"
p978
sS'GXAYWNKEWFYZ'
p979
S'Work in an officeSnapchat  allannahh'
p980
sS'LBJHOYSYZMFX'
p981
g12
sS'WTGVLBMJHVKI'
p982
S'From Edinburgh Dundee Uni'
p983
sS'DQRWLHPJPCGG'
p984
S'Civil Engineering student'
p985
sS'VTFCXRKDVWIJ'
p986
S'Instagram lucygrace'
p987
sS'THFEQXBALZBQ'
p988
S"Started fresh on tinder here Maybe this time round it won't be so disappointing rd year psychology student Born  raised in Glasgow Anything else yOu want to know then just ask meGive me your chat "
p989
sS'WVIQSDKPDTFU'
p990
S'French student  Internship in Edinburgh for  months'
p991
sS'JBOYUNQHMMMG'
p992
g12
sS'GGRAKOUKDQTR'
p993
S"I'm a fucking punmeister Looking for a drinking partner  someone to take me to Rotato for a jacket potato "
p994
sS'QMJGFXYHFXIN'
p995
S"I'm the type of girl who gets a tattoo and finds out it's a Jonas Brothers song three minutes laterWork at Boots I want to go to places I'd never dream of going to "
p996
sS'SFWZPVMBQUFO'
p997
S'ChesterEdinburghnd year vet medGenuinely want to meet my husband on here'
p998
sS'ZHALBDQXJFTP'
p999
S''
p1000
sS'DRIHVWEDOQJW'
p1001
S'Live in Edinburgh Snapchat shannonrileyInstagram shannonriley'
p1002
sS'XVACMBYTWEBU'
p1003
S'Belfast  Edinburgh'
p1004
sS'XHOERGINMKRI'
p1005
g12
sS'AUOVHVABUCTH'
p1006
S'GlasgowEdinburgh '
p1007
sS'SUQICBRYYDZA'
p1008
S'EdinburghSnapchat indialaingx'
p1009
sS'EQJRDPCZTGFC'
p1010
S'Probably somewhere between ECA and my hometown of Oxford'
p1011
sS'AWMHTYRBWIWC'
p1012
S'Ambitious and outgoing law student from Denmark studying at the University of Edinburgh for one semester Love singing dancing movies food and tea'
p1013
sS'HQPTOVUQJKNY'
p1014
g12
sS'INPPLBTNLEQL'
p1015
S'AllanaEdinburgh Scotland UKWork travel play Snapchat allanaxxInstagram makeupallana'
p1016
sS'VZOLIDJPKKPH'
p1017
S'I work with dance Art cats feminism travels nature and all that stuff Home parties are usually better a night out BAM'
p1018
sS'VQUFEZAISVAJ'
p1019
S' Edinburgh Engineering Northern Irish Pop punk Action films Marvel Can be funny sometimes Definitely interested if you have a catWant to learn to play drums help a gal out '
p1020
sS'QQGDSLCSIEAL'
p1021
S'Edinburgh student I like cheese and tequila Sometimes together '
p1022
sS'UHICXSATYEUS'
p1023
S'nd year Accounting student at Edinburgh UniFrom Fife'
p1024
sS'KCNGENRGZKLT'
p1025
S'Katiebooobaaaby  '
p1026
sS'JQXCVEHJLOZC'
p1027
S"I'm a fucking punmeister Looking for a drinking partner  someone to take me to Rotato for a jacket potato "
p1028
sS'LVBAAGBLFQXT'
p1029
g12
sS'EKKDGKTTEZZE'
p1030
S"I'm a fucking punmeister Looking for a drinking partner  someone to take me to Rotato for a jacket potato "
p1031
sS'OBDEVVLQPFGL'
p1032
S"Student skiier paddler Taylor Swift enthusiast ' of not taking life very seriously I like mountains and being outside "
p1033
sS'JEDFTCGJPXAR'
p1034
S' '
p1035
sS'CXCFPUNDWFEP'
p1036
g12
sS'CXFJUVWTTFAW'
p1037
S"I don't have an inside laugh I always wish there was more gin and cats That's pretty much it "
p1038
sS'NPLDHSCMDWCO'
p1039
S"EdinburghLondon Let's play carpenters first we get hammered then I nail you"
p1040
sS'WSITTYHEGVWC'
p1041
S' Edinburgh '
p1042
sS'AIILVYYIXTDN'
p1043
S"I'm a fucking punmeister Looking for a drinking partner  someone to take me to Rotato for a jacket potato "
p1044
sS'UKBEOKFATBQU'
p1045
S"I'm a fucking punmeister Looking for a drinking partner  someone to take me to Rotato for a jacket potato "
p1046
sS'DOZWBYMZFEIB'
p1047
g12
sS'CSUKAGLADXDH'
p1048
S'Hit me up for fun and games xx'
p1049
sS'YDRXBURCSALG'
p1050
S' interested in human rights law and studying at UoE '
p1051
sS'DEMTMYXVROSW'
p1052
S'st year University of Edinburgh  London gal'
p1053
sS'SYKAFAVZHIBJ'
p1054
g12
sS'KLFDFMJDVRWK'
p1055
S"I am awful with this about me stuff so i am going to keep it short and sweet I'm an Edinburgh girl Work in retail Adore meeting new people Have the bestest group of girlys Have a couple of tattoo's Enjoy trying new things Will pretty much chat to anyone and everyone that will listen Snapchat sammywatsonxox Anything else you want to know send me a message                             "
p1056
sS'BFWHWBLCXUTI'
p1057
g12
sS'GFGVEXVPDOUJ'
p1058
S''
p1059
sS'OYKVLEWONION'
p1060
g12
sS'XKIJVHLPYJHL'
p1061
S'Snapchat  Instagram  lauraxxoxxBeauty Therapist Edinburgh'
p1062
sS'FVJCQCAGQXVU'
p1063
g12
sS'ECUBFZEIETGU'
p1064
S"I'm a th year student in edinburgh  I love travelling and sports As Lorelei would say I stop drinking coffee I stop doing the standing and walking and the wordsputtingintosentence doingI will always cheer for Germany or Bayern Munich in football so don't try to convince me otherwise and yes football not soccerNo I am not on tinder for one nightstands so you might as well swipe left"
p1065
sS'BOLEPHZPSOZO'
p1066
S''
p1067
sS'XZYJBEPMOMYD'
p1068
S''
p1069
sS'JMCHHQLPEMLE'
p1070
S''
p1071
sS'MYDMIQHEQMWF'
p1072
S'Whut'
p1073
sS'PWLHIHRXMBIX'
p1074
S'Irish studying in QMU EdinburghHi or hey will guarantee reluctance to reply Instagram  ciaramurray'
p1075
sS'KFEHVIQDQPJZ'
p1076
g12
sS'ZZILULPKBMKE'
p1077
g12
sS'NKLSXZHJQEQN'
p1078
S'BCUWelsh '
p1079
sS'NJSKBMRUZURT'
p1080
S"I'm a fucking punmeister Looking for a drinking partner  someone to take me to Rotato for a jacket potato "
p1081
sS'CYZYVYHMCTON'
p1082
S"I AM NOT A PSYCHO'I'm  and Looking for someone who wants to drink some beers and will let me use their bath"
p1083
sS'ZIWDRAEDMXMR'
p1084
S'born in germany with polish parents on an exchange year in edinburgh studying maths playing the violin enyoing arts jazz painting'
p1085
sS'FMKJAVJHAELO'
p1086
S'Journalism student Edinburgh'
p1087
sS'FUGPFUXJIRDZ'
p1088
g12
sS'NPIXCDBSIGUK'
p1089
S"I'm a fucking punmeister Looking for a drinking partner  someone to take me to Rotato for a jacket potato "
p1090
sS'MSHLIUKLUGRB'
p1091
S'Psychology PhD student From Edinburgh living in London Music lover'
p1092
sS'HDSPIUCNMKVX'
p1093
S"I'm a fucking punmeister Looking for a drinking partner  someone to take me to Rotato for a jacket potato "
p1094
sS'LQCNROVOOXSO'
p1095
S'Edinburgh Uni PE teaching Dive coach too '
p1096
sS'DQFNXJLFJOGU'
p1097
g12
sS'QQYCGVVFZBWG'
p1098
S"I'm a fucking punmeister Looking for a drinking partner  someone to take me to Rotato for a jacket potato "
p1099
sS'EOGBKKODCPTY'
p1100
S'First year maths student Idk how to write an appealing bio so I guess u just gotta judge me by my face'
p1101
sS'CLDFZCNJZBBD'
p1102
S''
p1103
sS'VFWUQRJNZMNR'
p1104
S' I love cooking reggae and rock climbing but most of all I just really love pie'
p1105
sS'DCZKRTXLETTL'
p1106
S"I'm a fucking punmeister Looking for a drinking partner  someone to take me to Rotato for a jacket potato "
p1107
sS'AUUNPDUPMCTI'
p1108
S"I'm a fucking punmeister Looking for a drinking partner  someone to take me to Rotato for a jacket potato "
p1109
sS'IAVYGLDMWETO'
p1110
S' I love cooking reggae and rock climbing but most of all I just really love pie'
p1111
sS'ECYEUGZZCYFG'
p1112
S"I'm a fucking punmeister Looking for a drinking partner  someone to take me to Rotato for a jacket potato "
p1113
sS'BMVEQFWRIWJI'
p1114
S'Half MalaysianHalf Scottish '
p1115
sS'MDDFYGSJBUQY'
p1116
S"' English Lit student at UoE"
p1117
sS'VDKIFBWPKSEQ'
p1118
S'French Just looking for a funny or interesting chat Maybe more according to the chat'
p1119
sS'TXGGRTIHXKJN'
p1120
S'Snapchat samhadden '
p1121
sS'PZYCZEWDTICE'
p1122
S'Norwegian   Student '
p1123
sS'CIBGJYODUSUL'
p1124
S'Australian fugitive on the run in Edinburgh graceless'
p1125
sS'FTGHRSIWCCAR'
p1126
g12
sS'JDKBCLAJPCOH'
p1127
S'jo perrin X'
p1128
sS'ESFDGDGUALJN'
p1129
S"I'm a fucking punmeister Looking for a drinking partner  someone to take me to Rotato for a jacket potato "
p1130
sS'UVACWEXPBYZW'
p1131
S"Just moved back to Edinburgh after being in Florida for  years Please don't swipe right unless you actually want a conversation I like honest dominant men who are protective Nice feet and hairy chests too "
p1132
sS'BUNOFZSERFXR'
p1133
S'nd year law student at the university of edinburghvegetarianwine and gigs are my favouritei play guitarIG  tanyawalterss'
p1134
sS'RVCDKBTTWDRP'
p1135
S'Snapchat  libsnedxInstagram  libsnedTwitter  libsned'
p1136
sS'VFXMCAPXCSFF'
p1137
S''
p1138
sS'MPGVQPVTALRH'
p1139
g12
sS'WMOMRAAPCEND'
p1140
S"Hi i'm Elley  studying costume design at ECA "
p1141
sS'UQLWTEBNTZZJ'
p1142
g12
sS'XESHSGPWUBSC'
p1143
S"I'm a fucking punmeister Looking for a drinking partner  someone to take me to Rotato for a jacket potato "
p1144
sS'OPBRQIZEGUBU'
p1145
S"I'm a fucking punmeister Looking for a drinking partner  someone to take me to Rotato for a jacket potato "
p1146
sS'ZSBPWHPFOKII'
p1147
S''
p1148
sS'QWHKWLVMEWFS'
p1149
S"Edinburgh Eng Lit student and waitress I read lots of books and try not to throw wine all over people with mixed success ' "
p1150
sS'QPFZEDJEYXAZ'
p1151
S'Edinburgh uni Napier students need not apply '
p1152
sS'MQXIGEBWHTLP'
p1153
S'Social Sciences student Bi making my way through life enjoying it when I can '
p1154
sS'WAZYZTFMQOUL'
p1155
S'Dundee gal studying Costume Design in Edinburgh Addicted to custard creams and I make a cracking cup of tea'
p1156
sS'ODWLYZFLTTIT'
p1157
g12
sS'FJKSNGZPNITY'
p1158
S'Currently studenting in edinburgh '
p1159
sS'KVRMQGABSUOV'
p1160
S'Art student at ECA Fancy dress is the way forward '
p1161
sS'JWWWAGEOTVML'
p1162
g12
sS'VUTLGWNUSZGM'
p1163
S"I'm a fucking punmeister Looking for a drinking partner  someone to take me to Rotato for a jacket potato "
p1164
sS'FZLEKSYDBODE'
p1165
S'Snapchat  caznelly'
p1166
sS'TYPFLTJICMYZ'
p1167
S'Live in Edinburgh work in London '
p1168
sS'NJJSEZXYYICX'
p1169
S''
p1170
sS'GRIUTBMXBJOJ'
p1171
g12
sS'JTZVPOYBJSTH'
p1172
S"I'm a fucking punmeister Looking for a drinking partner  someone to take me to Rotato for a jacket potato "
p1173
sS'WYBMCHHJDSSW'
p1174
S' '
p1175
sS'RMBAGULVTFVT'
p1176
S'Social Sciences student Bi making my way through life enjoying it when I can '
p1177
sS'TVVKVYINOZBZ'
p1178
g12
sS'SOTUQIAXWWPN'
p1179
S"PersianGymnast I'm in the tab"
p1180
sS'FRRJDTGPDTXZ'
p1181
S"I'm a fucking punmeister Looking for a drinking partner  someone to take me to Rotato for a jacket potato "
p1182
sS'KAMYBOEVDIVQ'
p1183
S'Northern Ireland Edinburgh Napier Skiing Hockey Travelling  '
p1184
sS'FCKPHWJTCGYZ'
p1185
S'LondonEdinburgh Studying Arabic and Persian '
p1186
sS'GIKZRFZEUBMJ'
p1187
S'Liverpool  EdinburghStudent NurseTea addictParty girl'
p1188
sS'SDSVZZWSBOTK'
p1189
S''
p1190
sS'JGJGJLKCNRXS'
p1191
g12
sS'JJDXHTFTVPMJ'
p1192
g12
sS'TLBSXVJOIQVW'
p1193
g12
sS'JQGWFCNYADRA'
p1194
S''
p1195
sS'KIUGODRSBJKJ'
p1196
g12
sS'DROCUMMJGXWA'
p1197
S'Snapchattaelorsmith  '
p1198
sS'UTBFOVLZRQTY'
p1199
g12
sS'EBXITBUBUTPE'
p1200
S'From northern England Sunderland Student in Edinburgh'
p1201
sS'YHDCLVPTEAMY'
p1202
S"I'm a fucking punmeister Looking for a drinking partner  someone to take me to Rotato for a jacket potato "
p1203
sS'BLUGXVXEFDSA'
p1204
S'EdinburghStudying Nutrition and Food Science at QMUPlay rugby for Lismore WRFC '
p1205
sS'PNGPNKIPDWPV'
p1206
S'Edinburgh'
p1207
sS'OIMYTSHNTDSP'
p1208
g12
sS'TAUIWSPNVGHG'
p1209
S"I'm a fucking punmeister Looking for a drinking partner  someone to take me to Rotato for a jacket potato "
p1210
sS'LWDXPNOTEFVA'
p1211
S"Love the life you live  from Edinburgh Love tattoos and piercings Anything you want to know just ask Snapchat meganmclayDon't be afraid to message me first "
p1212
sS'FVQBGFVYFAZK'
p1213
S'Edinburgh '
p1214
sS'ZJINCLDGDNLC'
p1215
S'Study in edinburgh Play korfball love to dance'
p1216
sS'HCHKLEFYQKKL'
p1217
g12
sS'CSPTOMFYHWYQ'
p1218
S"Originally from Wales I'm a keen traveller coffee shop frequenter and rugby enthusiast I regularly attempt to cook and am trying to learn French"
p1219
sS'PTDQSDKIXNVA'
p1220
S'Rebecca  Living in Edinburgh Early Education and Childcare student '
p1221
sS'TOBBESOWGTON'
p1222
S' Edinburgh'
p1223
sS'TQNUQRKVKEQJ'
p1224
S'Acting student living in Edinburgh Massive nerd and cat lover who owns dogsI get confused when people put their heights here'
p1225
sS'IZIHCEBVGIHP'
p1226
S"'Death is just life's next adventure'Food naps alcohol and rugby keep me happy snapchat  lauradickson"
p1227
sS'TFNYWFKXROMV'
p1228
S'Adult Nursing at Napier Yorkshire Gal'
p1229
sS'CGFKUTYTNWAM'
p1230
S"embarrassingly stereotypical art student unless you're a pisces theres not much point in trying tbh  "
p1231
sS'QSNAMNCDFKYN'
p1232
S'Edinburgh Snapchat  nevadaxFacebook  Nevada Fitzner '
p1233
sS'XFBXJENXCOMN'
p1234
S''
p1235
sS'KMEHXHQBEZGT'
p1236
S"All you fellas listing your height tattoo status and beard status so I thought I'd do the same to ensure we're on the same page Yah I have tattoos No I can't grow a beard Brewdog anyone"
p1237
sS'VOICJJSHIKWU'
p1238
S'I am a tea addict who dabbles in property '
p1239
sS'YNDXDJAPEEHL'
p1240
S''
p1241
sS'KMQCZIHJKHMZ'
p1242
g12
sS'UBIQAUEDDGOA'
p1243
S''
p1244
sS'QXIOJQRODJKH'
p1245
S'UoESailing singing drinking socialising etc '
p1246
sS'KIXAIPKJAATD'
p1247
S''
p1248
sS'XYEDGXKDIXLU'
p1249
g12
sS'ZGBCZVZPGXMI'
p1250
S''
p1251
sS'CUPJUCKUXZTK'
p1252
S"Just want to travel Don't message first but will reply xYes I do have snapchat so just ask "
p1253
sS'VJXADKCVCEJK'
p1254
S'From Edinburgh Instagram megaandrydenn '
p1255
sS'LXBEOPXIHVLK'
p1256
S'Lived in Finland and New Zealand nowadays in Edinburgh for uni  Excited about life '
p1257
sS'SYAEINQDTQZT'
p1258
S'From EdinburghJust give me a message to find out moreIgnore my interests'
p1259
sS'JVZXCKUCLCZA'
p1260
S''
p1261
sS'CLOIHWRHGDQE'
p1262
S"EdinburghNursery Practitioner I'm an easy going girl who enjoys meeting new people I enjoying spending time with friends and prefer to be busy when I'm not busy at work I'm either at the gym with mates or enjoying a good movie Looking for a date "
p1263
sS'WCQJLPVHBSPR'
p1264
S"I'm a fucking punmeister Looking for a drinking partner  someone to take me to Rotato for a jacket potato "
p1265
sS'MWWFVBPREUHX'
p1266
S''
p1267
sS'DQADNFJURCHL'
p1268
g12
sS'WAIEHYKEDVAC'
p1269
g12
sS'BFVMDCTYUESB'
p1270
S"My mum thinks I'm cool"
p1271
sS'LDINYIMRDPPU'
p1272
g12
sS'SQPORTAXSSZW'
p1273
S"I'm a fucking punmeister Looking for a drinking partner  someone to take me to Rotato for a jacket potato "
p1274
sS'ZVRKEEXTZPRE'
p1275
S'English language student at Edinburgh Uni Like music and books and cooking and getting drunk'
p1276
sS'PNGDGHRZSLSV'
p1277
S"I'm a fucking punmeister Looking for a drinking partner  someone to take me to Rotato for a jacket potato "
p1278
sS'IXRSVSHBVRZJ'
p1279
S' snapchat emmajulie  Mum of  from Musselburgh '
p1280
sS'HXJGYFIUDNUI'
p1281
S''
p1282
sS'XGXLONTEDLYQ'
p1283
g12
sS'HFVHCJBYOBAT'
p1284
S'If you have a dog then you get an instant swipe right '
p1285
sS'MHXTNAAGHQTP'
p1286
S''
p1287
sS'AQYZVFFMBKEL'
p1288
g12
sS'LGDQUNEKPRIM'
p1289
S'EdinburghMy hobbies include Netflix  Chill minesweeping drinks in George Street nightclubs and taking romantic walks with you to the cash machine'
p1290
sS'PNTLHGCPGHMJ'
p1291
S'Never done anything like this before Friend has been raving about it Please be gentle with me '
p1292
sS'IYNUUANAEIEE'
p1293
S''
p1294
sS'GIBIEKNTPFQS'
p1295
S"EdinburghStudying maths at Heriot WattKeeping up training for tough mudder next year although looking at me you'd never think it ft  tiny don't laugh "
p1296
sS'OOENSTPBGOYU'
p1297
S"part time gig photographer full time bar wench i've embarrassed myself in front of sir ian mckellan in tesco so there's that "
p1298
sS'XZXMRLMJSRAT'
p1299
S'I need a writer friend apply within'
p1300
sS'OJIHTSDYTQXD'
p1301
S"I'm a fucking punmeister Looking for a drinking partner  someone to take me to Rotato for a jacket potato "
p1302
sS'NXBLVINXTYBF'
p1303
g12
sS'IUYHHVOQITBD'
p1304
S"I'm a fucking punmeister Looking for a drinking partner  someone to take me to Rotato for a jacket potato "
p1305
sS'RSNCRTIVDAYB'
p1306
S'History student at Edinburgh University  '
p1307
sS'DVHXFILVGLOJ'
p1308
S"Student skiier paddler Taylor Swift enthusiast ' of not taking life very seriously I like mountains and being outside "
p1309
sS'JNDWOCQDUPGJ'
p1310
S''
p1311
sS'HUAOIMAKZSBH'
p1312
S''
p1313
sS'ZGOPLQIKXLKY'
p1314
S' '
p1315
sS'KOZTAWZGQODP'
p1316
S"I'm a fucking punmeister Looking for a drinking partner  someone to take me to Rotato for a jacket potato "
p1317
sS'CAHIAAXDKKMJ'
p1318
S'Borders girl currently in Edinburgh studying Health  Fitness Hoping to travel within the next year '
p1319
sS'ICOHIQTHJYFS'
p1320
S'I love footballgym i work as a hairdresser and accountant '
p1321
sS'KKHYHJAIOTXR'
p1322
S''
p1323
sS'GDNNFBUGOXAO'
p1324
S'nd year Accounting student at Edinburgh UniFrom Fife'
p1325
sS'XNAMBUZBNYKB'
p1326
S'Half Hong Kong half Scottish  ex firefighter and now studying accounting  just moved to Edinburgh '
p1327
sS'JFXBJPINQKZS'
p1328
S"I'm a fucking punmeister Looking for a drinking partner  someone to take me to Rotato for a jacket potato "
p1329
sS'ERSNFTOWDNDM'
p1330
S"I'm a fucking punmeister Looking for a drinking partner  someone to take me to Rotato for a jacket potato "
p1331
sS'QWPFCFCOWKED'
p1332
S''
p1333
sS'QOBLBGLKSEUM'
p1334
S''
p1335
sS'DMEJGFZYQHIB'
p1336
S' '
p1337
sS'WWQORHNDXVYL'
p1338
S'Edinburgh Midwifery student '
p1339
sS'ZMFSROIPZNWD'
p1340
S'Final year student from nireland '
p1341
sS'EKWAERLRYWEN'
p1342
g12
sS'DWUHRIIUZFKJ'
p1343
S'First year psychologysociology studentOriginally from Leeds England Always up for a laugh playing on Xbox or binge watching Netflix Also enjoys attempting to play the drums Feel free to say hello and message first '
p1344
sS'FANDODTUOJWZ'
p1345
S'Gym  Dance  Cook  Bake  Love  Travel  Be crazy  Be happyPeople should smile more Personal Trainer Student'
p1346
sS'DWUIPGNOQWIA'
p1347
S''
p1348
sS'SMNBHJGHEIZQ'
p1349
g12
sS'RNVZOUQBIJEW'
p1350
S''
p1351
sS'BEZBNJPELPRN'
p1352
S'here to laugh at peanut headsI uninstall this often so soz'
p1353
sS'QRXEKOFCEPON'
p1354
S'Studying at UCL for a bit'
p1355
sS'AWENCRBOMYWL'
p1356
S"I'm a fucking punmeister Looking for a drinking partner  someone to take me to Rotato for a jacket potato "
p1357
sS'XBOFVFYKAOPS'
p1358
S''
p1359
sS'XVYFFKISWKWU'
p1360
S''
p1361
sS'ROAMFZNUNFQK'
p1362
S"part time gig photographer full time bar wench i've embarrassed myself in front of sir ian mckellan in tesco so there's that "
p1363
sS'VKNZMHQMYOPH'
p1364
S'Just meeting new people Nothing more nothing less '
p1365
sS'MCACWWTJMALC'
p1366
g12
sS'HMSAOPKJLXYN'
p1367
S"I am an easy going laid back person I love spending time with my friends and family enjoying watching a good game of football I like the idea of being adventurous just haven't got around to it I will bungee jump one day i am sure "
p1368
sS'PJAAMENGIXQK'
p1369
S"Bulgarian working in Manchester  'Life isn't about waiting for the storm to pass it is about learning how to dance in the rain'"
p1370
sS'ZZGHXLYNUQND'
p1371
S"I'm like a lightbulb I light up the room when you turn me on and if you stand on me you'll end up in hospital"
p1372
sS'VLTGVVBCHBSV'
p1373
S'UoE Economics '
p1374
sS'VUMXCTDGZOZM'
p1375
g12
sS'SNJFOROUPQLI'
p1376
g12
sS'TLTLQSQOOJIY'
p1377
g12
sS'KZBQCQXWXMRG'
p1378
g12
sS'CCUMGUJLJHQM'
p1379
S"I'm a fucking punmeister Looking for a drinking partner  someone to take me to Rotato for a jacket potato "
p1380
sS'UFHISUHSAEBI'
p1381
g12
sS'BQJIMBRJLGEX'
p1382
S"I'm a fucking punmeister Looking for a drinking partner  someone to take me to Rotato for a jacket potato "
p1383
sS'TGFVVLKYPCSK'
p1384
g12
sS'THOFTPJDJDIE'
p1385
g12
sS'UCQRAVFCYIBO'
p1386
S"I'm in love with David Attenborough "
p1387
sS'XAXBEKMXSHPO'
p1388
S''
p1389
sS'SPBBKRFRFOTC'
p1390
S"I'm a fucking punmeister Looking for a drinking partner  someone to take me to Rotato for a jacket potato "
p1391
sS'TBVAKFBHZQNH'
p1392
S''
p1393
sS'ITGNIVAQPQSS'
p1394
g12
sS'IFGRNSQBGEVI'
p1395
g12
sS'GQYJQYPDNPVQ'
p1396
S'HK in Edinburgh '
p1397
sS'EZMLOWXSJGWP'
p1398
S'London  Edinburgh'
p1399
sS'RSIEVFARIPCQ'
p1400
S' snapchat emmajulie  Mum of  from Musselburgh '
p1401
sS'BIIJFVLNHWUB'
p1402
S"I'm a fucking punmeister Looking for a drinking partner  someone to take me to Rotato for a jacket potato "
p1403
sS'CYOJOMECWLDR'
p1404
S'Staff nurse Voice of the Corran FerryI like caramel lattes and Paolo Nutini '
p1405
sS'KOZCTBLAYXOT'
p1406
S'French student  Internship in Edinburgh for  months'
p1407
sS'YCTWPFKMXWKZ'
p1408
S'Gettysburg College Basketball and track'
p1409
sS'JOOAANFYHWHA'
p1410
S"I'm in love with David Attenborough "
p1411
sS'KXYWYFBTDDYH'
p1412
g12
sS'FIFJSXXQSVSD'
p1413
S''
p1414
sS'FTZYKNLQNQOE'
p1415
S'Just happy Instagram louhunter'
p1416
sS'CFPMKCZQHFKN'
p1417
S''
p1418
sS'YVYFPMUQNYCU'
p1419
S'Journalism student Edinburgh'
p1420
sS'BTFQRUGRIMFX'
p1421
S'Student at Edinburgh University ScottishGamer on PS'
p1422
sS'RBGYAOAUHOCW'
p1423
S'whoreforfoodI want noods not nudes'
p1424
sS'FZAJZXZBBMDM'
p1425
S' interested in human rights law and studying at UoE '
p1426
sS'SEBGNIJVPWOU'
p1427
S'psychology student at edinburgh uni bios are shit so just come chat to me ae '
p1428
sS'RRDYPRNFXVNB'
p1429
S''
p1430
sS'TZDJMMNAPVVA'
p1431
S'Farming girl    Snapchat  laurenlmoore '
p1432
sS'HGSWYOCRPJZS'
p1433
g12
sS'JLTZZHFFJAHF'
p1434
S"I am DTF  Darn Tootin' Fun"
p1435
sS'NBKIVXFGBAKV'
p1436
S"I'm a fucking punmeister Looking for a drinking partner  someone to take me to Rotato for a jacket potato "
p1437
sS'YQPUGNKMGAWI'
p1438
S'I study psychology at the University of Edinburgh and I like skiing and hiking Also enjoy reading pretty much anything scifi and too many tv series'
p1439
sS'CKBQWIJKQFKY'
p1440
S"Acting student edinburgh if you don't like messy eaters then i'm not your gal "
p1441
sS'SHZNCPHXIMZV'
p1442
S'Studying architecture at Edinburgh university Love to travel Big fan of silliness Terribly English Should never be allowed to drink at lunch'
p1443
sS'FZTFQKSPRHCL'
p1444
S'I am a vet nurse staying in Edinburgh Animals are better than people '
p1445
sS'VVHSZPCWTUBA'
p1446
S'Edinburgh and AberdeenStudying a useless degree and I love it Apparently I look like the crescent moon emojiWe should hang out '
p1447
sS'RSHPFYPNCHND'
p1448
S"EdinburghScottish ' redhead Not looking for a serious relationship Likes tall men uniforms beautiful women music dancing outdoors going out staying in watching Netflix being comfy getting dressed up laughing being spontaneous playing practical jokes tattoos  more I also have a very high sex drive bit of a wild child love house parties You only live once and I going to live it to the full so I'd love to find a few sexy people to join me and be my partners in crime "
p1449
sS'WAWAVANSLUSC'
p1450
S''
p1451
sS'OJTWSNBLJJSW'
p1452
S'HK in Edinburgh '
p1453
sS'PCDJVHRMMYFM'
p1454
S'EdinburghStranraer'
p1455
sS'NFXTOIRKCCGK'
p1456
S"Bulgarian working in Manchester  'Life isn't about waiting for the storm to pass it is about learning how to dance in the rain'"
p1457
sS'JSPNULPIGRJO'
p1458
S'Give me bestworst your chat up line '
p1459
sS'UNRVIVNNDKFA'
p1460
g12
sS'SPZCAQENZWLW'
p1461
g12
sS'UOHHGWPMNRMU'
p1462
S'insta  nateilatan'
p1463
sS'UDSYVNBTIWFS'
p1464
S'LondonEdinburgh Part time barmaid full time female UoE ArabicFrench'
p1465
sS'ZEXYHFLFXNSE'
p1466
S''
p1467
sS'RCSCMMWFXSZP'
p1468
g12
sS'EIGVMJCXPYUN'
p1469
S'hi im from perth  I love all sports especially horse riding and skiing'
p1470
sS'XKHUDQLLEHEY'
p1471
S''
p1472
sS'LRNKVVFIUHGC'
p1473
S''
p1474
sS'YWMPRLOXEHKF'
p1475
S''
p1476
sS'ZLQBQLWSEFRI'
p1477
S' loves Netflix any kind if music art books and moviesFrom the isle of Lewis originally but moved to Edinburgh to study Criminology at Napier universityTraditional Gaelic singer'
p1478
sS'DLQOVGRKUOPX'
p1479
g12
sS'HCGGJQMETMCL'
p1480
S''
p1481
sS'YEARRGYGFRUS'
p1482
g12
sS'XYRIBSRTWSWA'
p1483
g12
sS'KMBBNOYRTWTU'
p1484
S'Edinburgh girl '
p1485
sS'GRUXTEJOVOZO'
p1486
g12
sS'GBZOPEZNMUDX'
p1487
S'Kenyan in Edinburgh Looking for some good chat '
p1488
sS'QSZEWPHLFUNI'
p1489
S"The goat on the rightWill always ask the DJ to play Kate Bush KNOPE As in 'nope keep swiping' but also Leslie KnopeBonus fact bigger than a monkey but smaller than most people"
p1490
sS'VEYPFXWOBQJZ'
p1491
S' '
p1492
sS'DNEFYTWEEPSR'
p1493
S"I'm a fucking punmeister Looking for a drinking partner  someone to take me to Rotato for a jacket potato "
p1494
sS'WZTPPXMSKZBH'
p1495
g12
sS'TTJSZPZERXIX'
p1496
S"I'm a fucking punmeister Looking for a drinking partner  someone to take me to Rotato for a jacket potato "
p1497
sS'WHHXUWKRVMXI'
p1498
g12
sS'WXJQUMGZOIBM'
p1499
S''
p1500
sS'DWKBQATCQHAP'
p1501
g12
sS'MVLZXDAJYEXZ'
p1502
S"your bloody mary's lacking in tabasco "
p1503
sS'EXHKHXQZWTFP'
p1504
S'Live in Edinburgh and work for the farm assurance office Go to young farmers and have had ponies since I was a toddler'
p1505
sS'VKBYDJQMUPBZ'
p1506
g12
sS'QYRDAZUPWUQC'
p1507
g12
sS'RWOZDYIUQAAS'
p1508
S"I'm a fucking punmeister Looking for a drinking partner  someone to take me to Rotato for a jacket potato "
p1509
sS'ZPIDJCIZAOVG'
p1510
S'Irish studying in QMU EdinburghHi or hey will guarantee reluctance to reply Instagram  ciaramurray'
p1511
sS'BHSREMBASUEZ'
p1512
S''
p1513
sS'VOZBLYUXANHT'
p1514
S'Medic at Edinburgh '
p1515
sS'ACDEIFSTJBRH'
p1516
S'Medic at Edinburgh '
p1517
sS'AGNKPLWUFLVE'
p1518
g12
sS'AVDKEVDJLKVN'
p1519
S'Edinburgh Instagram katiehmferguson '
p1520
sS'PYJTJDACEUWE'
p1521
S'Physics Edinburgh '
p1522
sS'ZHSWWKXUKUSA'
p1523
S'McGill Faculty of Law Living in Edinburgh Scotland until June I live to travel'
p1524
sS'FAABMJRJLQEU'
p1525
S'Studying Primary Teaching at Edinburgh uni '
p1526
sS'XGYCLKSGAOQG'
p1527
S'EdinburghStudying Nutrition and Food Science at QMUPlay rugby for Lismore WRFC '
p1528
sS'JXOKPFOJSZRO'
p1529
S'Metal Vikings gigs festivals and cats are my things  studying business with French  German in Edinburgh'
p1530
sS'SEEZBEYMGZYT'
p1531
g12
sS'DDYCDTBHBTVG'
p1532
S'Linguistics and Literature student                                                                 I speak Spanish                                                                                       Pizza and beer enthusiast                                                                        Bon Iver fangirl                                                                                    Cuddle slut  Just say hi '
p1533
sS'VTQRJMLZAXRE'
p1534
S'BelfastDundee  Law with German  RowerLifeguard '
p1535
sS'GECARUUSDZEM'
p1536
S"I'm no  ha  play football Edinburgh X "
p1537
sS'RBBBEXNUDRQL'
p1538
S'Banter '
p1539
sS'OEWEFNKQIOJW'
p1540
S'Edinburgh chick'
p1541
sS'XICHXDHBHXTQ'
p1542
g12
sS'QAFVXMPYZGUR'
p1543
S'Edinburgh Midwifery student '
p1544
sS'SYOTCVEVSROI'
p1545
S'BCUWelsh '
p1546
sS'IPDQKCMTBKGZ'
p1547
S" Irish  and Living in Edinburgh accept the the things you can't changebe brave to change the things you canand be wise to know the difference"
p1548
sS'UTUXINXOFDYI'
p1549
S" Claire  Don't Be Shy  "
p1550
sS'ZXPGLILRVETN'
p1551
S'Snapchat  ellebelle '
p1552
sS'AGQAHZGQJIGZ'
p1553
g12
sS'QZUDYAYUXXLT'
p1554
S''
p1555
sS'OIRBMAQZULSA'
p1556
S''
p1557
sS'USBTRQHWUWGJ'
p1558
S'Live on a farm in the middle of nowhere Fitness and game of thrones enthusiast with a mild peanut butter addiction Enjoy skiing baking weights training and attending young farmers shindigs If you dont appreciate a good game of monopoly we cant be friends  instagram emilynimmo facebook Emily Nimmo '
p1559
sS'POYDJEEPIIVH'
p1560
S"philosophy student at UoE avid jazz n folk loverif you don't like cats or cakes swipe left now "
p1561
sS'EHJCASEBPOFQ'
p1562
S' Edinburgh uni psychology student '
p1563
sS'ITPDQUEBIADJ'
p1564
g12
sS'CMQQHAXHIHTA'
p1565
S"I'm a fucking punmeister Looking for a drinking partner  someone to take me to Rotato for a jacket potato "
p1566
sS'CQKLENZWBIXG'
p1567
g12
sS'GSTIGRTLZAYD'
p1568
S'Business student at Edinburgh UniversityFrom Manchester'
p1569
sS'FRPYMCFJNXTV'
p1570
S"EdinburghNursery Practitioner I'm an easy going girl who enjoys meeting new people I enjoying spending time with friends and prefer to be busy when I'm not busy at work I'm either at the gym with mates or enjoying a good movie Looking for a date "
p1571
sS'MGPPMOKVSFRW'
p1572
S'If you dinny like documentaries your no for me Soz'
p1573
sS'SJJMNSVWJLGZ'
p1574
S"I'm a fucking punmeister Looking for a drinking partner  someone to take me to Rotato for a jacket potato "
p1575
sS'HZLWQMGKVDHM'
p1576
g12
sS'RSZRMJLXAATI'
p1577
S"Tinder c'est mon dada "
p1578
sS'ZTNVFVMAMZXU'
p1579
S"It's unfair that breakfast in bed is romantic but dinner in bed is a cry for help"
p1580
sS'GELTEPWPLIBH'
p1581
S''
p1582
sS'XIQQVTIUIPHM'
p1583
S"DerryEdinburgh Love having a bitta craic can be pretty sarcastic at times I reckon I'm pretty friendly though modest too so feel free to send me a wee message "
p1584
sS'MUIZGNZXYDTD'
p1585
S'Student nurse in Edinburgh '
p1586
sS'MRLWSXOBGBQR'
p1587
S'Business Student at the University of Edinburgh'
p1588
sS'UGAVVYDZCADW'
p1589
S"I'm a fucking punmeister Looking for a drinking partner  someone to take me to Rotato for a jacket potato "
p1590
sS'ZTJUURMWBEED'
p1591
S'Probably somewhere between ECA and my hometown of Oxford'
p1592
sS'MTVEJQPLIJFA'
p1593
S"Canadian gal who moved from the family igloo to haggis land I like binge watching breaking bad in bed being nocturnal camping the ocean rainy days hot drinks indie music and naps Let's get together throw a Catalina wine mixer and do activities Also I can name all  original Pokemon If that doesn't impress you I don't know what will Ps If you have a beard I will love u eva I'm so alone"
p1594
sS'MBZBSIFKGNAF'
p1595
S'Hi there '
p1596
sS'YGRHMHJXHAMZ'
p1597
S'student at HWU music and theatre lover singer and musician film fanatic globetrotter tattoo enthusiast can be quite a smartarse should you ever need oneThere is no i in TEAM but there is an i in PIE'
p1598
sS'SCGNDDEEMJSO'
p1599
S''
p1600
sS'JTWIGJAEPKJV'
p1601
g12
sS'JCLCDXRLNPYZ'
p1602
S' '
p1603
sS'NVFAFHKZQBPN'
p1604
S'Instagram  laaaurensmith'
p1605
sS'OGJSQVGCUZSW'
p1606
S"I just got Fallout  so I may not be replying often right now I will be backThis app makes me feel like Sauron I see youI like long walks on the beach Star Trek and casual sexIf you haven't seen Garth Marenghi's Darkplace I would be happy to introduce it to you"
p1607
sS'AMNUCDHCINDP'
p1608
S'Edinburgh chick'
p1609
sS'CIPOGITQRQHB'
p1610
g12
sS'ABTOPLNIKFIE'
p1611
S"Loves to paint act and sing can't be bothered to make money outta them If you can't handle tattoos you can't handle me Rather dislike beards love tall tall guys and any height of girl Dying of the flu at the moment so I can appreciate the type of Netflix and chill where you feed me soup "
p1612
sS'KHJSZIRLHVFI'
p1613
g12
sS'MPXHTIMTUGMY'
p1614
S'Snapchat  Instagram  lauraxxoxxBeauty Therapist Edinburgh'
p1615
sS'TETAYRIPRFTK'
p1616
S"Just moved back to Edinburgh after being in Florida for  years Please don't swipe right unless you actually want a conversation I like honest dominant men who are protective Nice feet and hairy chests too "
p1617
sS'EFBRSMOPFJUQ'
p1618
S'Just Gin and bear it  DStudentEvents management  Not afraid to say hi first Genuinely nice '
p1619
sS'JSUCPIKJJKXA'
p1620
S'From Edinburgh Dundee Uni'
p1621
sS'GIBVIRLDPJFY'
p1622
g12
sS'RPCJKABCWGQT'
p1623
S'NewcastleEdinburgh '
p1624
sS'HZRGKWNIYYPZ'
p1625
g12
sS'LQXHAZIOHQOC'
p1626
S'Bsc Hon in physics Back in Edinburgh after a year teaching in ShanghaiI missed Percy Pigs a lot Peanut butter NCIS and Jumpers'
p1627
sS'DUEUIRXWSFEY'
p1628
S"I'm a fucking punmeister Looking for a drinking partner  someone to take me to Rotato for a jacket potato "
p1629
sS'LCYAGMAZILLV'
p1630
S'English language student at Edinburgh Uni Like music and books and cooking and getting drunk'
p1631
sS'SYPAXBJZWPJH'
p1632
S'A ridiculously sarcastic midget that loves beards '
p1633
sS'MGAKXWIYNMNC'
p1634
S"Just want to travel Don't message first but will reply xYes I do have snapchat so just ask "
p1635
sS'LFQIZTPHUMAQ'
p1636
S"I'm a fucking punmeister Looking for a drinking partner  someone to take me to Rotato for a jacket potato "
p1637
sS'AHHKIWVZPTEL'
p1638
g12
sS'KBMOPLXIUIMW'
p1639
g12
sS'IELTDMEWAHEV'
p1640
g12
sS'UCGWXRVFOVZO'
p1641
S"I'm a fucking punmeister Looking for a drinking partner  someone to take me to Rotato for a jacket potato "
p1642
sS'FXXOJXYMGQEF'
p1643
S"I'm a fucking punmeister Looking for a drinking partner  someone to take me to Rotato for a jacket potato "
p1644
sS'IRYNKIPPPYRI'
p1645
S'Studying in Edinburgh Belgian lived in Dubai Simply love traveling '
p1646
sS'TJPEEQRCMHVH'
p1647
g12
sS'WNASVDUUWVHN'
p1648
S'Ig sofiaellenadolfina snap sofiadolfina floorball'
p1649
sS'MUAWONUUPCNX'
p1650
S'EdinburghMy hobbies include Netflix  Chill minesweeping drinks in George Street nightclubs and taking romantic walks with you to the cash machine'
p1651
sS'PBIMEDLJCDLV'
p1652
g12
sS'SPOYDYNYKSYA'
p1653
S'First year maths student Idk how to write an appealing bio so I guess u just gotta judge me by my face'
p1654
sS'QDNRXMTXFUCA'
p1655
S"Hi  I'm nd year at Edinburgh uni studying German and History would love to meet someone I could speak German with I love to dance Lindy hop Balboa and Blues  I am intelligent feminist and love to talk music and history as well as general randomness Think Asdf and Monty Python"
p1656
sS'YLUXJCCFLXNB'
p1657
S"I'm a fucking punmeister Looking for a drinking partner  someone to take me to Rotato for a jacket potato "
p1658
sS'JGHNQWDUXDJO'
p1659
g12
sS'GITFYKMGPRGN'
p1660
S'Studying business in edinburgh'
p1661
sS'PWOBXUWPUFKM'
p1662
S"I don't know why the photos are up more than once Instagram amberpNewly blondeIf you like girls with tattoos and a dirty sense of humour I'm your girlI'm also a mum he's  just in case you hate children he's my best friend and I love him even more than bacon Happy Swiping "
p1663
sS'FXOPJVWDKSCI'
p1664
S''
p1665
sS'DHIKHSWTAPJI'
p1666
S"I'm a fucking punmeister Looking for a drinking partner  someone to take me to Rotato for a jacket potato "
p1667
sS'MAJICCBWHYCE'
p1668
S'Edinburgh  Psychology StudentBartender Travelling '
p1669
sS'SNMPZCBJIVWB'
p1670
S'Two words'
p1671
sS'TYZGFTZMXZWB'
p1672
S"I'm a fucking punmeister Looking for a drinking partner  someone to take me to Rotato for a jacket potato "
p1673
sS'JQSBRIVOBFOP'
p1674
S"I don't have a witty bio hmu if you wanna talk  I might look scary but I promise I'm not Art and design student sharper than any other edge known to man"
p1675
sS'GOGLKRPCMSJM'
p1676
S''
p1677
sS'MDNIHHZDEWHU'
p1678
g12
sS'BEAUUJWHVNXO'
p1679
S''
p1680
sS'RMCBOPHPCQGX'
p1681
S''
p1682
sS'XUIBLHXRZDXQ'
p1683
S'Forresedinburgh Criminology at Napier '
p1684
sS'JBJBHFKXTIFZ'
p1685
S"I'm a fucking punmeister Looking for a drinking partner  someone to take me to Rotato for a jacket potato "
p1686
sS'YXEFCZCEGGPL'
p1687
S''
p1688
sS'KHUTDFJLHAZL'
p1689
S''
p1690
sS'AQLUYWXDKWOD'
p1691
S''
p1692
sS'BHQJLQQXUYLD'
p1693
S'Norwegian   Student '
p1694
sS'CJIMXNDDIIBJ'
p1695
S'Edin Uni rd Year'
p1696
sS'JGJXTJLRHFDD'
p1697
S'Living and studying in Edinburgh '
p1698
sS'UORYNHVWDAYL'
p1699
S'  Irish   Radiography student at QMU '
p1700
sS'PXFLARPDAKNN'
p1701
S"Weybridge  SurreyPortsmouth UniElegant trippy chaotic flavourAbout meExtremely fond of facials and hair and facial hair Great at giving head Massages I love gin Apologies my Instagram doesn't have endless amount of selfies but there is the odd one in there to prove I'm a solid "
p1702
sS'BYUWEBYBYZIC'
p1703
g12
sS'EZEWCLMZTWTB'
p1704
S'Oot every weekendCan lick ma own nips xMa snap chat is  bethanshankie'
p1705
sS'SRAVZLBZMCXG'
p1706
S"EdinburghScottish ' redhead Not looking for a serious relationship Likes tall men uniforms beautiful women music dancing outdoors going out staying in watching Netflix being comfy getting dressed up laughing being spontaneous playing practical jokes tattoos  more I also have a very high sex drive bit of a wild child love house parties You only live once and I going to live it to the full so I'd love to find a few sexy people to join me and be my partners in crime "
p1707
sS'TJKNSEXAYYLZ'
p1708
g12
sS'FCUJBNMALNVH'
p1709
S"I'm a fucking punmeister Looking for a drinking partner  someone to take me to Rotato for a jacket potato "
p1710
sS'HTPPSRMMOWNV'
p1711
g12
sS'PXBKKNFLCUFL'
p1712
S'Books   films  Netflix  walks  museums  galleries  teacake  baking'
p1713
sS'IZADRLANHZTA'
p1714
S"I'm really fun honest I like holidays elephants crisps and wine "
p1715
sS'LEFNHGJPNAYC'
p1716
S'Undefeated Lord of the Rings trivia championActresswhisky enthusiast'
p1717
sS'SGMDKRDTEZRJ'
p1718
S"I'm a fucking punmeister Looking for a drinking partner  someone to take me to Rotato for a jacket potato "
p1719
sS'AMQAMYGQFKAB'
p1720
g12
sS'JMRKPUGNWZWA'
p1721
S"I'm a fucking punmeister Looking for a drinking partner  someone to take me to Rotato for a jacket potato "
p1722
sS'ICXLGVNZJQDL'
p1723
g12
sS'QSPYUIOSYMPY'
p1724
S' Medical sciences studentEdinbrah Looking for a soulmate obvz'
p1725
sS'EHWWTEIDAHBH'
p1726
S'media student at qmu  full time alcohol enthusiast '
p1727
sS'ICMBSIIDHVQP'
p1728
S''
p1729
sS'WKRWIWTIBLYA'
p1730
g12
sS'MPGUPJCXJWKO'
p1731
g12
sS'WKTYFGYGHNOI'
p1732
S"Just an American girl livin' in an Edi world Yeah I usually make bad jokes "
p1733
sS'GVORHEIZWDQI'
p1734
S"I'm a fucking punmeister Looking for a drinking partner  someone to take me to Rotato for a jacket potato "
p1735
sS'WRXCVWPKGDSH'
p1736
S''
p1737
sS'MUBSSPSAFWXX'
p1738
S'Love sports love travels'
p1739
sS'OJMFRGEWNMPJ'
p1740
S'Edinburgh Uni Medic Occasional blonde moments '
p1741
sS'VDDNVSKKPWQG'
p1742
S"I'm a fucking punmeister Looking for a drinking partner  someone to take me to Rotato for a jacket potato "
p1743
sS'ULLXVFYGTCEM'
p1744
S'Lacking balls and panache since '
p1745
sS'EWMHLNHUHUHB'
p1746
S"studying abroadfrom LA Environmental Engineering ' talk nerdy to me "
p1747
sS'USHSEBOODVXK'
p1748
S"Travel obsessed pierced and inked After working in Romania Madagascar and Nepal I'm spending some time at home in Edinburgh to focus on my dance career and work out what the hell I'm doing with my life If you've heard of The LaFontaines we can probably be friends"
p1749
sS'BNCBDRQPVGVD'
p1750
S'I love footballgym i work as a hairdresser and accountant '
p1751
sS'YDCIJLYRAREI'
p1752
S'Live in Edinburgh Snapchat shannonrileyInstagram shannonriley'
p1753
sS'ZWLPDXBRSSFU'
p1754
S"Hi Norwegian studying physiotherapy in EdinburghMusic  footballI'm looking for someone with a PS or Xbox with COD so I can come over and shoot something "
p1755
sS'TQQGTWKMMTBH'
p1756
S'Love sports love travels'
p1757
sS'HXADZCZAWBDW'
p1758
g12
sS'WWSAXWGJZDMX'
p1759
S'st year University of Edinburgh  London gal'
p1760
sS'LJEQEUGVGRBI'
p1761
g12
sS'ABUNYDICXPVZ'
p1762
S''
p1763
sS'XNHTRINKFFNM'
p1764
S'Live in Edinburgh and work for the farm assurance office Go to young farmers and have had ponies since I was a toddler'
p1765
sS'WBNOAOVUGBNI'
p1766
g12
sS'PUHSIMCURDZB'
p1767
g12
sS'RJNHTKHOTTFK'
p1768
S"I'm no  ha  play football Edinburgh X "
p1769
sS'TCUJXSEXMOVE'
p1770
g12
sS'SLLSBXXIIANO'
p1771
S'ChesterEdinburghnd year vet medGenuinely want to meet my husband on here'
p1772
sS'LJZKMWHVVMKL'
p1773
S'Irish living in Edinburgh '
p1774
sS'LDDIJTKALVGF'
p1775
g12
sS'TGEEEXKSEUDF'
p1776
g12
sS'WCCBJBGXKCXV'
p1777
g12
sS'URSGBJRZCOAW'
p1778
S'Edinburgh Uni  Cambridge '
p1779
sS'TQWIIYZTDPJD'
p1780
S'english lit studenti like people places and thingsthe kind of girl you could take home to meet your parents until your dad inevitably leaves your mum to be with me instead '
p1781
sS'UZPLTJVDCFME'
p1782
S"I don't do Netflix and chill "
p1783
sS'PADTRYCMBBSV'
p1784
S'USA University of Edinburgh Postgrad I like a side of vodka with my orange juice at breakfast Netflix connoisseur Talk nerdy to me   '
p1785
sS'QOTLKJLKNMWM'
p1786
S"Don't take yourself too seriously "
p1787
sS'UAGNEROCRGXV'
p1788
S"I'm a fucking punmeister Looking for a drinking partner  someone to take me to Rotato for a jacket potato "
p1789
sS'UPJMOGSGOVWI'
p1790
S'Welsh girl usually based in Edinburgh work in marketing gym promotions constantly travelling Work between US and UK'
p1791
sS'XTRJSFIOYZPO'
p1792
S''
p1793
sS'GRSBXUGJSFIA'
p1794
S''
p1795
sS'DGSASWZGRCPL'
p1796
S'nd year design student living in Edinburgh from Glasgow  love an adventure friends and gin'
p1797
sS'TIQEIIUPVNHX'
p1798
g12
sS'QJKTVZLYYONT'
p1799
g12
sS'BEHBIFFDWIQU'
p1800
g12
sS'WSTGRGFAWKOS'
p1801
S''
p1802
sS'GIXJBHDLJPLR'
p1803
S'An English girl living in Scotland and studying PhilosophyPolitics at Edinburgh nd yearYorkshire born'
p1804
sS'ARWXDWBVAJVI'
p1805
S''
p1806
sS'KRETGWJIJVYO'
p1807
S''
p1808
sS'IXFWHAPGLHLW'
p1809
S''
p1810
sS'RSZSZIEMWJEQ'
p1811
S"I'm a fucking punmeister Looking for a drinking partner  someone to take me to Rotato for a jacket potato "
p1812
sS'OWUHLTWZWTVX'
p1813
S' not Snapchatt amylownieee '
p1814
sS'GWECCFQFRIXH'
p1815
g12
sS'DVJQRZQTYBLO'
p1816
S'RGU graduate new to Edinburgh '
p1817
sS'YMXCICNQAJNW'
p1818
S"Hi  I'm nd year at Edinburgh uni studying German and History would love to meet someone I could speak German with I love to dance Lindy hop Balboa and Blues  I am intelligent feminist and love to talk music and history as well as general randomness Think Asdf and Monty Python"
p1819
sS'MIGIEZVDDPJX'
p1820
g12
sS'HLSNOCWKYETA'
p1821
g12
sS'TWDSKQURZVWF'
p1822
S''
p1823
sS'BPWTQEJMBOOE'
p1824
g12
sS'MXIESSGHCTEJ'
p1825
S'soft indie grunge'
p1826
sS'FMXIZUGGMTZH'
p1827
g12
sS'ZFBLHLIUHTDE'
p1828
S'Live in Edinburgh studying drama                                     Snapchat  leahmac'
p1829
sS'OHKRMCAXJGQQ'
p1830
S'Snapchattaelorsmith  '
p1831
sS'OYABCBPRFVQF'
p1832
S'Spent my summer living in Spain'
p1833
sS'QGGCBWHPDNEL'
p1834
S'Events Management  QMUSnapchat  alyssahall'
p1835
sS'MGZJPIAUJNMT'
p1836
g12
sS'LCHEJKZCZRVQ'
p1837
S"I'm a fucking punmeister Looking for a drinking partner  someone to take me to Rotato for a jacket potato "
p1838
sS'CZXSOEEUSHIO'
p1839
S' '
p1840
sS'BJETKWWDUQXU'
p1841
S"If I had a pound for every time someone asked me if my hair was naturally ginger I'd have nothing No one talks to me "
p1842
sS'PQASHGIJYVIG'
p1843
S'Edinburgh'
p1844
sS'RJKPNBIOBWLJ'
p1845
g12
sS'FATHRLTFLANU'
p1846
S'Last year of uni  Speak a few languages Love to dance Can salsa and bachataLove cookingWork in retail and training on the sideHoping to be an officer soon '
p1847
sS'AYLKQVYJNODL'
p1848
S'Studying law and French at the University of Edinburgh'
p1849
sS'VZIDXUJYTJGW'
p1850
S"I'm a trouble And I love weird people And Opium Polish Crazy But lovely"
p1851
sS'NWPRVRHMUJTU'
p1852
g12
sS'IBHYIBNEPTSB'
p1853
S"I'm a th year student in edinburgh  I love travelling and sports As Lorelei would say I stop drinking coffee I stop doing the standing and walking and the wordsputtingintosentence doingI will always cheer for Germany or Bayern Munich in football so don't try to convince me otherwise and yes football not soccerNo I am not on tinder for one nightstands so you might as well swipe left"
p1854
sS'LUGKFGJXMASA'
p1855
S"I'm a fucking punmeister Looking for a drinking partner  someone to take me to Rotato for a jacket potato "
p1856
sS'WIDGEUJESJIA'
p1857
S''
p1858
sS'FSVQBCDNCMMJ'
p1859
S''
p1860
sS'IWWULFJAPHCE'
p1861
g12
sS'QBQNVVITQDHB'
p1862
S''
p1863
sS'EPOENLQWHRTX'
p1864
S"I am  and Stydying Psychology I'm not interested in half the things it says I am I can't remember liking them on Facebook but what's done is done "
p1865
sS'YLZDPDUCXGXB'
p1866
S'I like dogs more than people'
p1867
sS'DMISRKMLDKKC'
p1868
g12
sS'TMMWBASEVPUH'
p1869
S'Laughter is the best medicine Jayac is so amazingsexy D  I will not kill him if I find this'
p1870
sS'TWSWKTRMNWUA'
p1871
S'Make me laugh '
p1872
sS'KSJBEVIYRTDM'
p1873
S'I love fiddle folk and French and alliteration '
p1874
sS'JVSOYQDGVKXF'
p1875
S'Business student at Edinburgh UniversityFrom Manchester'
p1876
sS'OKIASONVZGZS'
p1877
g12
sS'BVAMVXGUASNZ'
p1878
g12
sS'XVRNCNOSXNEF'
p1879
g12
sS'ZPKPBHDZTXMX'
p1880
S'Edinburgh physio student Instagram laurarobertsonx Snapchat laurarobertsonx '
p1881
sS'UULKZSTWITPZ'
p1882
S''
p1883
sS'UMASMXJFORMG'
p1884
S'Forever wanting to be back in Bali '
p1885
sS'VBFQPOQLPNUZ'
p1886
S'Studying chemical physics at Edinburgh uni Bilingual and love to travel for real though'
p1887
sS'QKFSVNTBOVMK'
p1888
S''
p1889
sS'VWQECXLIRNUK'
p1890
S"PersianGymnast I'm in the tab"
p1891
sS'KCREIBDNVEPU'
p1892
S'I like a good pair of balls'
p1893
sS'GHBQJAZOGSKB'
p1894
S"I'm a fucking punmeister Looking for a drinking partner  someone to take me to Rotato for a jacket potato "
p1895
sS'TWAPHBMDTMJY'
p1896
S"Stirling Uni  If you are reading this I am metaphorically smiling at you  Go smile at someone else now  it will make their day  I love Marvel films Let's build a pillow fort "
p1897
sS'UESJIQQZJJBE'
p1898
S''
p1899
sS'IPJSXHLSUBPD'
p1900
g12
sS'LGFEMWKMAWPP'
p1901
S"Not   next month lolJust on here to speak to people at the moment really unwell just now and anything more really doesn't interest me sorry to be a bore"
p1902
sS'ZUWGOKJQJGEY'
p1903
S'Gettysburg College Basketball and track'
p1904
sS'OQWFBAIWRPZJ'
p1905
g12
sS'PSNTXRXUKOHQ'
p1906
S''
p1907
sS'RQFNXGBBMQAT'
p1908
S'German studying in the Netherlands on exchange in the UK'
p1909
sS'KBGLLUFNADPR'
p1910
S'Chemistry student at University of EdinburghLove my dug more than anyone else '
p1911
sS'OGFKSZNGUBAI'
p1912
S'RGU graduate new to Edinburgh '
p1913
sS'XDRGVUEUTIHX'
p1914
S'tattoos  piercingscatsTaylor Swift is God'
p1915
sS'VOWTSBJPJGOA'
p1916
S'If you like water you already like  of me EdinburghSnapchat hazbazx '
p1917
sS'GEGCMTOFRFWD'
p1918
S"I'm a fucking punmeister Looking for a drinking partner  someone to take me to Rotato for a jacket potato "
p1919
sS'DJUVYFPPPLAK'
p1920
S'edinburghfootballlaw student '
p1921
sS'OHZBSZPJBHLD'
p1922
S'Edinburgh Instagram katiehmferguson '
p1923
sS'ARTBZOPAJFEA'
p1924
S"Drama and Performance student at QMU I dream of having a pug one day Its the main goal in my life really The way to my heart is food literally any food and i'll be happy Twitter  Instagram sarahlbrownx"
p1925
sS'XRQTUCAOONZD'
p1926
S"Socialist and feminist Love the arts mostly music Oh should mention that I'm looking for friends so no funny bussiness "
p1927
sS'WUPQBNNMKPTB'
p1928
S"I'm a fucking punmeister Looking for a drinking partner  someone to take me to Rotato for a jacket potato "
p1929
sS'IHUCNCYMVROS'
p1930
g12
sS'JNSNNFBEWIXL'
p1931
g12
sS'IOZYYHTWXJMC'
p1932
g12
sS'OOMJDSKGNUJU'
p1933
S"Half Turkish festival and events student  bartender in Edinburgh steak connoisseur and gaming addict  aim to organise E one day  Little lass in the pool is my cousin ain't she a sweetie  oh also guys that have 'netflix' in their bios can u not "
p1934
sS'JIGZSAEBYMPX'
p1935
S' Half Italian Edinburgh'
p1936
sS'FIIZBEXPAUWW'
p1937
g12
sS'CBOKGSMWLCGZ'
p1938
g12
sS'RQHUAUURBFLE'
p1939
g12
sS'USDVIZZXZNQN'
p1940
g12
sS'UMEOFTPEFQDR'
p1941
S''
p1942
sS'RJFRNZUKPXRH'
p1943
g12
sS'LMPAAXLEYFDU'
p1944
g12
sS'MZEXELUYQNZU'
p1945
S'Bsc Hon in physics Back in Edinburgh after a year teaching in ShanghaiI missed Percy Pigs a lot Peanut butter NCIS and Jumpers'
p1946
sS'WEAQCETWCFQQ'
p1947
S"I'm a fucking punmeister Looking for a drinking partner  someone to take me to Rotato for a jacket potato "
p1948
sS'PZKSFAXCCJYB'
p1949
S"I'm studying chemical engineering at Edinburgh I like to communicate using sounds rather than words sometimes"
p1950
sS'HRYSSLNRXXWI'
p1951
S''
p1952
sS'OWAAGZNOBOVR'
p1953
S"Edinburgh Law GraduateJack Daniels enthusiast' on a good hair dayHobbies include trying to get less awful at guitar and watching disney movies in the bathInstagram ines"
p1954
sS'PFMZJESNMOTB'
p1955
S'Living and studying in Edinburgh '
p1956
sS'NNDGRIWSTJFV'
p1957
S"I'm a fucking punmeister Looking for a drinking partner  someone to take me to Rotato for a jacket potato "
p1958
sS'VNAPMRCWUJKP'
p1959
S"I'm a fucking punmeister Looking for a drinking partner  someone to take me to Rotato for a jacket potato "
p1960
sS'WUVDLEJJGCBH'
p1961
S"I'm a fucking punmeister Looking for a drinking partner  someone to take me to Rotato for a jacket potato "
p1962
sS'ILWOTFCWCJZN'
p1963
S'German Lives in Singapore moving to Edinburgh Hit me up '
p1964
sS'WCSEAFOCYNFI'
p1965
S"Drummer English geek and the one on the left pulling the stupid face Decided Yorkshire wasn't quite cold enough so shall be heading up to Edinburgh Uni in September"
p1966
sS'JXWCWUKVVHRW'
p1967
S''
p1968
sS'LGOWBJBXSWBL'
p1969
S"I'm a fucking punmeister Looking for a drinking partner  someone to take me to Rotato for a jacket potato "
p1970
sS'VZNMHFCLXSUN'
p1971
g12
sS'JQWLSAVZHRRM'
p1972
S"My busyness is to create Doesn't even matter what  "
p1973
sS'PQRWESDHBAJX'
p1974
g12
sS'IQRFOKMQHRHG'
p1975
S'From Edinburgh  Snapchat ashleighx'
p1976
sS'PJGUWZFJUPZV'
p1977
g12
sS'FFGOEEGKAMWK'
p1978
S"Edinburgh Law GraduateJack Daniels enthusiast' on a good hair dayHobbies include trying to get less awful at guitar and watching disney movies in the bathInstagram ines"
p1979
sS'WNNFQKKXQPBN'
p1980
S'Never done anything like this before Friend has been raving about it Please be gentle with me '
p1981
sS'JBMXQYLRMQET'
p1982
S'StudentScottish Short'
p1983
sS'CUQRMWQVRFKR'
p1984
S"I'm a fucking punmeister Looking for a drinking partner  someone to take me to Rotato for a jacket potato "
p1985
sS'AJQHRNNYOJUA'
p1986
g12
sS'KWUZLOWYIROM'
p1987
g12
sS'DJQSSFMPOZJB'
p1988
S"I'm a fucking punmeister Looking for a drinking partner  someone to take me to Rotato for a jacket potato "
p1989
sS'AHBLPPFSKLPI'
p1990
S'soft indie grunge'
p1991
sS'ZTXQYAULXNMU'
p1992
S'Gym  Dance  Cook  Bake  Love  Travel  Be crazy  Be happyPeople should smile more Personal Trainer Student'
p1993
sS'LGAHUQXGWMDP'
p1994
g12
sS'MPEHLLXVOOLA'
p1995
S'UoE Economics '
p1996
sS'LUNUHBHBIIHL'
p1997
g12
sS'ESZLIENWOPZC'
p1998
S'edinburghfootballlaw student '
p1999
sS'YJLZEINUKESE'
p2000
g12
sS'GQTBEXKJUJZL'
p2001
g12
sS'EEQEIKJGFNAI'
p2002
g12
sS'HVYXSEGPSAEW'
p2003
g12
sS'UFSQFURHOZPR'
p2004
S'hopefully be a student by January year old son '
p2005
sS'IQASGNYGOKLI'
p2006
S'Live on a farm in the middle of nowhere Fitness and game of thrones enthusiast with a mild peanut butter addiction Enjoy skiing baking weights training and attending young farmers shindigs If you dont appreciate a good game of monopoly we cant be friends  instagram emilynimmo facebook Emily Nimmo '
p2007
sS'TNVKUXDQSTHO'
p2008
S"I'm a fucking punmeister Looking for a drinking partner  someone to take me to Rotato for a jacket potato "
p2009
sS'RYCVFHIUPACO'
p2010
g12
sS'LWWBIAXCGKAT'
p2011
S"I'm a fucking punmeister Looking for a drinking partner  someone to take me to Rotato for a jacket potato "
p2012
sS'MXPGARWFZKYG'
p2013
S'Half Hong Kong half Scottish  ex firefighter and now studying accounting  just moved to Edinburgh '
p2014
sS'HTUKFZDHVEUV'
p2015
S''
p2016
sS'MWDLQCTBWXEW'
p2017
S'Scotland Brazil'
p2018
sS'KTJTHGTPWUQK'
p2019
g12
sS'DHLIFXNBXOKL'
p2020
g12
sS'SLXXFIVIWOAB'
p2021
S"I'm the type of girl who gets a tattoo and finds out it's a Jonas Brothers song three minutes laterWork at Boots I want to go to places I'd never dream of going to "
p2022
sS'QXUSGSXDBHMH'
p2023
S''
p2024
sS'ALWYTHKHZCTY'
p2025
g12
sS'UQNKBXZZXCQR'
p2026
S'Edinburgh uni '
p2027
sS'TJRMBTYUCEQB'
p2028
S'Business student living it up in the big city '
p2029
sS'NYELCPSARNPI'
p2030
S''
p2031
sS'AVTQSUILCETN'
p2032
S''
p2033
sS'BWCBOKSUPSOI'
p2034
S'Welsh girl usually based in Edinburgh work in marketing gym promotions constantly travelling Work between US and UK'
p2035
sS'TKIOWQMZKJGD'
p2036
g12
sS'RETPLSKVUOTI'
p2037
S' '
p2038
sS'UZZEUMWDQBAJ'
p2039
S"Environmental student that's a bit of a film nerd "
p2040
sS'UKGQPNLKYLCS'
p2041
g12
sS'RQKDFFEWSNAL'
p2042
g12
sS'DVYZOTYBEHBD'
p2043
S''
p2044
sS'FWALZABYXEEK'
p2045
g12
sS'EUEQBZELUNLF'
p2046
S'student at HWU music and theatre lover singer and musician film fanatic globetrotter tattoo enthusiast can be quite a smartarse should you ever need oneThere is no i in TEAM but there is an i in PIE'
p2047
sS'CTCKUOCEIEQP'
p2048
S'Snapchat chanteelleex '
p2049
sS'HQZWRASTTVEP'
p2050
S''
p2051
sS'KUYBRCLZANSL'
p2052
S''
p2053
sS'UDGHXRVQDJQW'
p2054
S''
p2055
sS'EBIXCCBPLMRD'
p2056
g12
sS'JZWYPPJKFOAI'
p2057
S'Just meeting new people Nothing more nothing less '
p2058
sS'GXHSOFFOSJRN'
p2059
S'Edinburgh Snapchat  nevadaxFacebook  Nevada Fitzner '
p2060
sS'GEUCHOXLOCGP'
p2061
S'I need a writer friend apply within'
p2062
sS'TJQSXWTBUEWM'
p2063
S"Lover of puns and good literature st year English Language and Literature at Uni of Edinburgh  I live off folkindie rock and dancing wildly to whatever I'm listening to I enjoy embarrassing my friends by dancing in public I also review artsy things and have a strong penchant for Internet shopping"
p2064
sS'LJYZENCQUNCD'
p2065
S'If you like water you already like  of me EdinburghSnapchat hazbazx '
p2066
sS'HXVJWJYSVXZX'
p2067
S"I'm a fucking punmeister Looking for a drinking partner  someone to take me to Rotato for a jacket potato "
p2068
sS'MCFHIVEROUVH'
p2069
g12
sS'YUIYSEGBECBP'
p2070
S'London  Edinburgh'
p2071
sS'RIOTBJSQVPIE'
p2072
S"' English Lit student at UoE"
p2073
sS'PVSVPNCNKQTF'
p2074
g12
sS'ROWSRANWAKOR'
p2075
S"I like spending time with friends and family going out for dinner going to the cinema and cooking I've done ice skating since I was a little and like playingwatching most sports "
p2076
sS'VAQBTDEUEDRP'
p2077
S'A firm believer that hangovers should not be dealt with aloneGeordie girl '
p2078
sS'KCITTLMNWDAO'
p2079
S'Student  Cheerleader  My favourite things are Ice Hockey and Event Planning Twitter  JenIsabellaxx'
p2080
sS'YGVZEXKWBEKS'
p2081
g12
sS'VKTMHMVJSQRA'
p2082
g12
sS'HUCTAHAHAOWX'
p2083
S"I'm a fucking punmeister Looking for a drinking partner  someone to take me to Rotato for a jacket potato "
p2084
sS'FKWFKLWCCRQD'
p2085
S'Edinburgh UniBeen stuck on the last level of snail mail for  years HelpSometimes I put paper in the general waste '
p2086
sS'IUTDSQDXKFJN'
p2087
S'Edinburgh Uni PE teaching Dive coach too '
p2088
sS'HCRMHMPNHDUL'
p2089
S'Student  Cheerleader  My favourite things are Ice Hockey and Event Planning Twitter  JenIsabellaxx'
p2090
sS'EXQTUKGOKXEM'
p2091
S''
p2092
sS'RVKIFYLOHARQ'
p2093
S'edinburgh uni student tottenham hotspur fan dog personi like good grammar and cheesey chatup lines'
p2094
sS'HTDJETDAYQLR'
p2095
S"I'm a fucking punmeister Looking for a drinking partner  someone to take me to Rotato for a jacket potato "
p2096
sS'HZRXPIBRVLUI'
p2097
S''
p2098
sS'TOYDNWPIZAFH'
p2099
S'Edinburgh Allergic to cats and bullshit Please give me none '
p2100
sS'YOPGQTOHHFLS'
p2101
g12
sS'BKQQUFUIMZJO'
p2102
S"I'm a fucking punmeister Looking for a drinking partner  someone to take me to Rotato for a jacket potato "
p2103
sS'JFXOKAEVTDHW'
p2104
S''
p2105
sS'ASBIMVZPERSR'
p2106
g12
sS'HILRLHCXDNWF'
p2107
S''
p2108
sS'KLDMPDPYSILA'
p2109
S''
p2110
sS'AHZYBTEDGFHT'
p2111
S'Australian fugitive on the run in Edinburgh graceless'
p2112
sS'VRDSFUBWSXEG'
p2113
S'Radiography student Edinburgh '
p2114
sS'WKLGJCTRLBAR'
p2115
S"I'm a daydreamer and a nightthinker aka I go to bed at about am most nightsnd year theatre and film student  big tea lover and Christmas obsessedI'm not the kinda girl you will meet in a club I like hanging out in my flat or going out to a pub with my friends Slytherin and proud  I write scripts in my free time and I spend a lot of time with my friends who are all massive geeksnerds what ever you call them who I mum  but they keep me laughing which I love  "
p2116
sS'YANWNYHFTXPE'
p2117
g12
sS'RXTXLDRSYJMS'
p2118
g12
sS'KVONIALDXOFN'
p2119
S"I'm a fucking punmeister Looking for a drinking partner  someone to take me to Rotato for a jacket potato "
p2120
sS'UVFIEAVRSAUM'
p2121
S'From EdinburghTechnical Theatre student in GlasgowEasy going and cheery but apparently  can be to honest for my own good sometimes'
p2122
sS'CTZHUCHFJDHB'
p2123
S''
p2124
sS'YPAJNVXNRQUH'
p2125
S'Basel BrusselsI vibe Insta eleanorroseshortland'
p2126
sS'JWRLUJMXAZGE'
p2127
S'A firm believer that hangovers should not be dealt with aloneGeordie girl '
p2128
sS'JGOPZBZQFCLZ'
p2129
S''
p2130
sS'RGEUDNGEWDMT'
p2131
S'Art student at ECA Fancy dress is the way forward '
p2132
sS'QHSJGYLZMLHA'
p2133
S''
p2134
sS'VWZYZBBEGAUQ'
p2135
g12
sS'DDMHMNAKCQJZ'
p2136
S'EdinburghTattoosSnapchat hollihunterx'
p2137
sS'UZXOQUWEASYH'
p2138
g12
sS'HNLHFBHLQRPG'
p2139
S''
p2140
sS'LFWEBALHWOZH'
p2141
S"I'm a fucking punmeister Looking for a drinking partner  someone to take me to Rotato for a jacket potato "
p2142
sS'JKCMXGLGVACQ'
p2143
g12
sS'LLLOSLWZAFRU'
p2144
g12
sS'DTNCGXEJQAXF'
p2145
S"I'm a fucking punmeister Looking for a drinking partner  someone to take me to Rotato for a jacket potato "
p2146
sS'LJCAMKQRDVJC'
p2147
g12
sS'YWOLZGOEJIRS'
p2148
S"I'm a fucking punmeister Looking for a drinking partner  someone to take me to Rotato for a jacket potato "
p2149
sS'GMSQBQOPGQBY'
p2150
S"I AM NOT A PSYCHO'I'm  and Looking for someone who wants to drink some beers and will let me use their bath"
p2151
sS'LLHOEFPHFLLK'
p2152
S''
p2153
sS'UJKWOPGZOYVW'
p2154
S'Studying at Edinburgh for the semester'
p2155
sS'UXKCSDYTIYAV'
p2156
S'Basel BrusselsI vibe Insta eleanorroseshortland'
p2157
sS'YEYKIANGXIUH'
p2158
g12
sS'DRZOWQIZQWDW'
p2159
S'Fine Art MA  ECA Brummie born and bred My neighbors think my accent is hilarious Instagram mollyhk'
p2160
sS'JYFZIHXCMAGI'
p2161
S''
p2162
sS'FRMABJCDLQLL'
p2163
S''
p2164
sS'WUMUKHNFBCUJ'
p2165
g12
sS'JNCRXJNRBOIH'
p2166
S'Edinburgh '
p2167
sS'ODEQIJQEVVXV'
p2168
S'Indian classical dancer who gets Marx'
p2169
sS'EGABCUNXGZFW'
p2170
S'Snap me  Sarahwilson '
p2171
sS'NCFKZJYOSBWW'
p2172
S''
p2173
sS'YRYJDIODFRMC'
p2174
S'E D I N B U R G HSnapchat jessmcgovernx'
p2175
sS'ARLSIWEDNXQB'
p2176
S'Snapchat samhadden '
p2177
sS'OGUPQINUQLZF'
p2178
S'I enjoy a nicely packed bowl placed on top of a bong Plainfield IL USA Let me be your American sweetheart Edinburgh for the next  weeks Lots to see drink smoke and explore here '
p2179
sS'VEACMEQTOHKO'
p2180
S"I'm a fucking punmeister Looking for a drinking partner  someone to take me to Rotato for a jacket potato "
p2181
sS'MBZEPKXQFNTF'
p2182
S"Katie  Born and bread in North Yorkshire  I'm studying Anthropology at The University of Edinburgh I love music more than anything I drink a lot of tequila I am also a vegetarian  "
p2183
sS'GPVMNEAPLNWR'
p2184
S'some people just put an Instant Smile on your face '
p2185
sS'GGRUYLXGCXKZ'
p2186
S'Business student living it up in the big city '
p2187
sS'KJTGOKNXWHTS'
p2188
S'German studying in the Netherlands on exchange in the UK'
p2189
sS'KCEFOBQPDDNF'
p2190
S''
p2191
sS'PUVFKWUZBDDI'
p2192
S'nd year law student at the university of edinburghvegetarianwine and gigs are my favouritei play guitarIG  tanyawalterss'
p2193
sS'ZPHICPHARSMJ'
p2194
g12
sS'GGZTYKMSZTUA'
p2195
S"Call me on    I study history so I'm great with dates "
p2196
sS'JNPLOJESZYEN'
p2197
g12
sS'DRRNQYIJXBCE'
p2198
S'UoESailing singing drinking socialising etc '
p2199
sS'AWUMQWXFABRM'
p2200
S''
p2201
sS'PHLEIBYKETOD'
p2202
g12
sS'TBRSCEVUUVQE'
p2203
S"Half Turkish festival and events student  bartender in Edinburgh steak connoisseur and gaming addict  aim to organise E one day  Little lass in the pool is my cousin ain't she a sweetie  oh also guys that have 'netflix' in their bios can u not "
p2204
sS'MXSRCBGHULNG'
p2205
g12
sS'YRKSLJJKDJTI'
p2206
g12
sS'QCFZGSKXLSWJ'
p2207
S"I'm a fucking punmeister Looking for a drinking partner  someone to take me to Rotato for a jacket potato "
p2208
sS'VVZGFINARMXG'
p2209
S'Edinburgh Uni  PE'
p2210
sS'EFLIKEGJKXQS'
p2211
S'From Edinburgh  Snapchat ashleighx'
p2212
sS'TKUTRQOHDKRK'
p2213
S'Studying business in edinburgh'
p2214
sS'QZCKGQGMVDWM'
p2215
S' Illustration student Foodie Guernsey  Singapore Living in Edinburgh  '
p2216
sS'AHRJESQNLPWF'
p2217
S'Instagram  eloiseevans '
p2218
sS'FEPTNBTJADSP'
p2219
S"First year Nursing student at Edinburgh Uni I can't make you better if you get ill but I will do a stellar job of washing my hands"
p2220
sS'FFVIRTZFVQIS'
p2221
S'Student nurse in Edinburgh '
p2222
sS'SANWPZHTMLVZ'
p2223
S'Indian classical dancer who gets Marx'
p2224
sS'HBSDJDVXDYMT'
p2225
S'Instagram  ejfieldxDo you ever drive on the motorway and see someone fit and wish you could give them your number somehow'
p2226
sS'LRGWTWAMKYPV'
p2227
S' '
p2228
sS'TJLHVQLGDYND'
p2229
S'Yvonne tes bonneUSA to UK '
p2230
sS'GFLPZEJBRNML'
p2231
S"I'm a fucking punmeister Looking for a drinking partner  someone to take me to Rotato for a jacket potato "
p2232
sS'WCQGEDJWJDUE'
p2233
S' Illustration student Foodie Guernsey  Singapore Living in Edinburgh  '
p2234
sS'ILYCHIAEEMCB'
p2235
g12
sS'MNGRUAWFDSZM'
p2236
S''
p2237
sS'QATXWFGVPGKE'
p2238
S''
p2239
sS'CXVMMBWAKHPK'
p2240
S'Art student in Edinburgh'
p2241
sS'FODAAYZQTHAC'
p2242
S"Not   next month lolJust on here to speak to people at the moment really unwell just now and anything more really doesn't interest me sorry to be a bore"
p2243
sS'IKFJGZLFSJGV'
p2244
S'Edinburgh UniBeen stuck on the last level of snail mail for  years HelpSometimes I put paper in the general waste '
p2245
sS'EWYHWUPNXQYN'
p2246
g12
sS'FKFVSLDZUIWI'
p2247
S''
p2248
sS'DBCMKHQWNOQZ'
p2249
S''
p2250
sS'RQTCPURSLNQA'
p2251
S'From Glasgow studying in EdinburghArt student  th yearBit of a movie geekGot a motorbike Giraffes are kinda my thing '
p2252
sS'NBARSETXVLZX'
p2253
S"I'm a fucking punmeister Looking for a drinking partner  someone to take me to Rotato for a jacket potato "
p2254
sS'JTCBLIACUHRG'
p2255
g12
sS'ZHGCFIEKURZA'
p2256
S'Edinburgh The less you reveal the more people wonder Insta gbrutherford'
p2257
s.